Sections:
00: "code" (0-3987)


Source: "rom.s"
                            	     1: ; ----------------------------------------------------------------------
                            	     2: ; rom.s (assembles with vasmm68k_mot)
                            	     3: ; lime
                            	     4: ;
                            	     5: ; Copyright © 2025-2026 elmerucr. All rights reserved.
                            	     6: ; ----------------------------------------------------------------------
                            	     7: 
                            	     8: ; ----------------------------------------------------------------------
                            	     9: ; - Calling convention: D0-D1/A0-A1 are scratch registers, and need to
                            	    10: ;   be caller saved when to be kept
                            	    11: ; - tab size: 8
                            	    12: ;
                            	    13: ; ----------------------------------------------------------------------
                            	    14: 
                            	    15: ; rom v0.10
                            	    16: ; adjusted (again) for 320x180 resolution
                            	    17: 
                            	    18: ; rom v0.9
                            	    19: ; adjusted for 320x176 screen resolution
                            	    20: 
                            	    21: 	include	"definitions.inc"

Source: "definitions.inc"
                            	     1: ; ----------------------------------------------------------------------
                            	     2: ; definitions.i
                            	     3: ; lime
                            	     4: ;
                            	     5: ; Copyright © 2025 elmerucr. All rights reserved.
                            	     6: ; ----------------------------------------------------------------------
                            	     7: 
                            	     8: ; vectors
                            	     9: VEC_ADDR_ERROR			equ	$000c
                            	    10: VEC_ILLEGAL_INSTR		equ	$0010
                            	    11: VEC_PRIVILEGE_VIOLATION	equ	$0020
                            	    12: VEC_SPURIOUS_INTERRUPT	equ	$0060
                            	    13: VEC_LVL1_IRQ_AUTO		equ	$0064
                            	    14: VEC_LVL2_IRQ_AUTO		equ	$0068	; entry point for core
                            	    15: VEC_LVL4_IRQ_AUTO		equ	$0070	; entry point for timer
                            	    16: VEC_LVL6_IRQ_AUTO		equ	$0078	; entry point for vdc
                            	    17: VEC_LVL7_IRQ_AUTO		equ	$007c	; currently unused
                            	    18: VEC_TRAP0			equ	$0080
                            	    19: VEC_TRAP1			equ	$0084
                            	    20: VEC_TRAP2			equ	$0088
                            	    21: VEC_TRAP3			equ	$008c
                            	    22: VEC_TRAP4			equ	$0090
                            	    23: VEC_TRAP5			equ	$0094
                            	    24: VEC_TRAP6			equ	$0098
                            	    25: VEC_TRAP7			equ	$009c
                            	    26: VEC_TRAP8			equ	$00a0
                            	    27: VEC_TRAP9			equ	$00a4
                            	    28: VEC_TRAP10			equ	$00a8
                            	    29: VEC_TRAP11			equ	$00ac
                            	    30: VEC_TRAP12			equ	$00b0
                            	    31: VEC_TRAP13			equ	$00b4
                            	    32: VEC_TRAP14			equ	$00b8
                            	    33: VEC_TRAP15			equ	$00bc
                            	    34: 
                            	    35: VEC_TIMER0			equ	$0100	; $0100 onwards, user vectors
                            	    36: VEC_TIMER1			equ	$0104
                            	    37: VEC_TIMER2			equ	$0108
                            	    38: VEC_TIMER3			equ	$010c
                            	    39: VEC_TIMER4			equ	$0110
                            	    40: VEC_TIMER5			equ	$0114
                            	    41: VEC_TIMER6			equ	$0118
                            	    42: VEC_TIMER7			equ	$011c
                            	    43: 
                            	    44: ; vdc (video display controller)
                            	    45: VDC_SR				equ	$0400
                            	    46: VDC_CR				equ	$0401
                            	    47: VDC_BORDER_COLOR		equ	$0402
                            	    48: VDC_BORDER_SIZE			equ	$0403
                            	    49: VDC_BG_COLOR			equ	$0404
                            	    50: VDC_CURRENT_LAYER		equ	$0406
                            	    51: VDC_CURRENT_SPRITE		equ	$0407
                            	    52: VDC_CURRENT_SCANLINE_MSB	equ	$040c
                            	    53: VDC_CURRENT_SCANLINE_LSB	equ	$040d
                            	    54: VDC_IRQ_SCANLINE_MSB		equ	$040e
                            	    55: VDC_IRQ_SCANLINE_LSB		equ	$040f
                            	    56: 
                            	    57: VDC_LAYER_X_MSB			equ	$0410
                            	    58: VDC_LAYER_X_LSB			equ	$0411
                            	    59: VDC_LAYER_Y_MSB			equ	$0412
                            	    60: VDC_LAYER_Y_LSB			equ	$0413
                            	    61: VDC_LAYER_FLAGS0		equ	$0414
                            	    62: VDC_LAYER_FLAGS1		equ	$0415
                            	    63: VDC_LAYER_FLAGS2		equ	$0416
                            	    64: VDC_LAYER_COLOR0		equ	$0418
                            	    65: VDC_LAYER_COLOR1		equ	$0419
                            	    66: VDC_LAYER_COLOR2		equ	$041a
                            	    67: VDC_LAYER_COLOR3		equ	$041b
                            	    68: VDC_LAYER_TILES_PAGE		equ	$041c
                            	    69: VDC_LAYER_COLORS_PAGE		equ	$041d
                            	    70: VDC_LAYER_TILESET_PAGE		equ	$041e
                            	    71: 
                            	    72: VDC_SPRITE_X_MSB		equ	$0420
                            	    73: VDC_SPRITE_X_LSB		equ	$0421
                            	    74: VDC_SPRITE_Y_MSB		equ	$0422
                            	    75: VDC_SPRITE_Y_LSB		equ	$0423
                            	    76: VDC_SPRITE_FLAGS0		equ	$0424
                            	    77: VDC_SPRITE_FLAGS1		equ	$0425
                            	    78: VDC_SPRITE_FLAGS2		equ	$0426
                            	    79: VDC_SPRITE_INDEX		equ	$0427
                            	    80: VDC_SPRITE_COLOR0		equ	$0428
                            	    81: VDC_SPRITE_COLOR1		equ	$0429
                            	    82: VDC_SPRITE_COLOR2		equ	$042a
                            	    83: VDC_SPRITE_COLOR3		equ	$042b
                            	    84: VDC_SPRITE_TILESET_PAGE		equ	$042e
                            	    85: 
                            	    86: KEYBOARD_SR			equ	$0600
                            	    87: KEYBOARD_CR			equ	$0601
                            	    88: 
                            	    89: VDC_TILESET_ADDRESS		equ	$1000
                            	    90: 
                            	    91: VDC_LAYER0_TILES		equ	$2000
                            	    92: VDC_LAYER1_TILES		equ	$2000
                            	    93: VDC_LAYER2_TILES		equ	$2000
                            	    94: VDC_LAYER3_TILES		equ	$2000
                            	    95: 
                            	    96: VDC_LAYER0_COLORS		equ	$3000
                            	    97: VDC_LAYER1_COLORS		equ	$3000
                            	    98: VDC_LAYER2_COLORS		equ	$3000
                            	    99: VDC_LAYER3_COLORS		equ	$3000
                            	   100: 
                            	   101: ; sound devices
                            	   102: SID0_F				equ	$0500
                            	   103: SID0_PW				equ	$0502
                            	   104: SID0_V				equ	$051b
                            	   105: SID1_V				equ	$053b
                            	   106: MIX_SID0_LEFT			equ	$0580
                            	   107: MIX_SID0_RIGHT			equ	$0581
                            	   108: MIX_SID1_LEFT			equ	$0582
                            	   109: MIX_SID1_RIGHT			equ	$0583
                            	   110: MIX_ANA0_LEFT			equ	$0584
                            	   111: MIX_ANA0_RIGHT			equ	$0585
                            	   112: MIX_ANA1_LEFT			equ	$0586
                            	   113: MIX_ANA1_RIGHT			equ	$0587
                            	   114: 
                            	   115: ; timer
                            	   116: TIMER_SR			equ	$0440
                            	   117: TIMER_CR			equ	$0441
                            	   118: TIMER0_BPM			equ	$0450
                            	   119: TIMER1_BPM			equ	$0452
                            	   120: TIMER2_BPM			equ	$0454
                            	   121: TIMER3_BPM			equ	$0456
                            	   122: TIMER4_BPM			equ	$0458
                            	   123: TIMER5_BPM			equ	$045a
                            	   124: TIMER6_BPM			equ	$045c
                            	   125: TIMER7_BPM			equ	$045e
                            	   126: 
                            	   127: ; core
                            	   128: CORE_SR				equ	$0480
                            	   129: CORE_CR				equ	$0481
                            	   130: CORE_ROMS			equ	$0482
                            	   131: CORE_FILE_DATA			equ	$0484
                            	   132: CORE_INPUT0			equ	$0488
                            	   133: 
                            	   134: RAM_START			equ	$20000
                            	   135: 

Source: "rom.s"
                            	    22: 
                            	    23: ; constants
                            	    24: TERMINAL_HPITCH	equ	$80	; 128
                            	    25: TERMINAL_VPITCH	equ	$20	; 32
                            	    26: TERMINAL_WIDTH	equ	$50	; 80 columns
                            	    27: TERMINAL_HEIGHT	equ	$14	; 20 rows
                            	    28: 
                            	    29: 	offset	$6000
                            	    30: 
00:00006000 00              	    31: logo_animation	ds.b	1
00:00006001 00              	    32: binary_ready	ds.b	1
00:00006002 0000            	    33: cursor_pos	ds.w	1
00:00006004 00              	    34: cursor_color	ds.b	1
00:00006005 00              	    35: cursor_visible	ds.b	1
00:00006006 00000000        	    36: terminal_chars	ds.l	1
00:0000600A 00000000        	    37: terminal_colors	ds.l	1
00:0000600E 00000000        	    38: chunk_length	ds.l	1
00:00006012 00000000        	    39: exec_address	ds.l	1
00:00006016 00              	    40: rnda		ds.b	1
00:00006017 00              	    41: rndb		ds.b	1
00:00006018 00              	    42: rndc		ds.b	1
00:00006019 00              	    43: rndx		ds.b	1
                            	    44: 
                            	    45: 
                            	    46: 	section	code
                            	    47: 
                            	    48: 	org	$00010000	; rom based at $10000
                            	    49: 
00:00010000 01000000        	    50: 	dc.l	$01000000	; initial ssp at end of ram
00:00010004 00010024        	    51: 	dc.l	_start		; reset vector
00:00010008 726F6D206D633638	    52: 	dc.b	"rom mc68000 0.10.20260525"
00:00010010 30303020302E3130
00:00010018 2E32303236303532
00:00010020 35
                            	    53: 
                            	    54: 	align	2
                            	    55: 
                            	    56: _start
00:00010024 207C00010000    	    57: 	move.l	#$00010000,A0			; set usp
00:0001002A 4E60            	    58: 	move.l	A0,USP
                            	    59: 
00:0001002C 203C00008000    	    60: 	move.l	#$8000,D0			; small delay at reset
00:00010032 5380            	    61: .1	subq.l	#1,D0
00:00010034 6600FFFC        	    62: 	bne	.1
                            	    63: 
00:00010038 4EB900010380    	    64: 	jsr	init_vector_table
                            	    65: 	;jsr	vdc_init_layer0
00:0001003E 4EB90001043E    	    66: 	jsr	vdc_copy_rom_font
00:00010044 4EB900010462    	    67: 	jsr	vdc_copy_logo_tiles
00:0001004A 4EB90001047A    	    68: 	jsr	vdc_init_logo
00:00010050 4EB90001033E    	    69: 	jsr	sound_reset
00:00010056 4EB9000104AA    	    70: 	jsr	terminal_init
00:0001005C 4EB9000104C8    	    71: 	jsr	terminal_clear
                            	    72: 
00:00010062 11FC00686000    	    73: 	move.b	#$68,logo_animation.w		; init variable for letter wobble
00:00010068 13FC00B30000040F	    74: 	move.b	#$b3,VDC_IRQ_SCANLINE_LSB	; set rasterline 179
00:00010070 13FC000100000401	    75: 	move.b	#%00000001,VDC_CR		; enable irq's for vdc
                            	    76: 
00:00010078 027C00FF        	    77: 	andi.w	#$00ff,SR			; jump to user mode, IPL reg = 0b000
                            	    78: 
00:0001007C 42386001        	    79: 	clr.b	binary_ready.w
                            	    80: 
00:00010080 42B900006016    	    81: 	clr.l	rnda				; init random generator, clears all: rnda, rndb, rndc, rndx
                            	    82: 
                            	    83: loop
00:00010086 11F804880404    	    84: 	move.b	CORE_INPUT0.w,VDC_BG_COLOR.w	; use controller inputs for bg color
00:0001008C 4A386001        	    85: 	tst.b	binary_ready.w
00:00010090 6700FFF4        	    86: 	beq	loop				; loop forever, wait for events
                            	    87: 
00:00010094 423900000481    	    88: _jump	clr.b	CORE_CR				; stop irq's when new bin inserted
00:0001009A 423900000401    	    89: 	clr.b	VDC_CR				; stop VDC interrupts (at rasterline 179)
00:000100A0 4200            	    90: 	clr.b	D0
00:000100A2 13C000000407    	    91: .1	move.b	D0,VDC_CURRENT_SPRITE
00:000100A8 423900000424    	    92: 	clr.b	VDC_SPRITE_FLAGS0
00:000100AE 5200            	    93: 	addq.b	#1,D0
00:000100B0 B03C0008        	    94: 	cmp.b	#8,D0
00:000100B4 6600FFEC        	    95: 	bne	.1
                            	    96: 
00:000100B8 4EB900010412    	    97: 	jsr	vdc_init_layer0
                            	    98: 
00:000100BE 11FC00800601    	    99: 	move.b	#%10000000,KEYBOARD_CR.w	; purge keyboard events
                            	   100: 
00:000100C4 12380606        	   101: .test	move.b	$606.w,D1
00:000100C8 6700FFFA        	   102: 	beq	.test
00:000100CC 103C0001        	   103: 	move.b	#1,D0
00:000100D0 4E4F            	   104: 	trap	#15
00:000100D2 6000FFF0        	   105: 	bra	.test
                            	   106: 
00:000100D6 48790001064D    	   107: 	pea	file_loading4
00:000100DC 61000480        	   108: 	bsr	terminal_putstring
00:000100E0 588F            	   109: 	addq.l	#4,SP
                            	   110: 
00:000100E2 2F3900006012    	   111: 	move.l	exec_address,-(SP)
00:000100E8 1F3C0008        	   112: 	move.b	#8,-(SP)
00:000100EC 6100048C        	   113: 	bsr	terminal_put_hex_number
00:000100F0 5C8F            	   114: 	addq.l	#6,SP
                            	   115: 
00:000100F2 203C000C0000    	   116: 	move.l	#$000c0000,D0			; wait loop
00:000100F8 5380            	   117: .2	subq.l	#1,D0
00:000100FA 6600FFFC        	   118: 	bne	.2
                            	   119: 
00:000100FE 610003C8        	   120: 	bsr	terminal_clear
                            	   121: 
00:00010102 207900006012    	   122: 	movea.l	exec_address,A0
00:00010108 4ED0            	   123: 	jmp	(A0)
                            	   124: 
                            	   125: 
                            	   126: exc_addr_error
00:0001010A 6000FFFE        	   127: 	bra	exc_addr_error			; TODO: bsod when this happens?
                            	   128: 
                            	   129: 
                            	   130: exc_illegal_instr
00:0001010E 11FC00120404    	   131: 	move.b	#$12,VDC_BG_COLOR.w
00:00010114 60FE            	   132: .1	bra.s	.1
                            	   133: 
                            	   134: 
                            	   135: exc_privilege_violation
00:00010116 11FC00150404    	   136: 	move.b	#$15,VDC_BG_COLOR.w
00:0001011C 60FE            	   137: .1	bra.s	.1
                            	   138: 
                            	   139: 
                            	   140: exc_spurious_interrupt
00:0001011E 4E73            	   141: 	rte
                            	   142: 
                            	   143: 
                            	   144: exc_lvl1_irq_auto
00:00010120 4E73            	   145: 	rte
                            	   146: 
                            	   147: 
                            	   148: exc_lvl2_irq_auto
00:00010122 48E7C000        	   149: 	movem.l	D0-D1,-(SP)
00:00010126 103900000480    	   150: 	move.b	CORE_SR,D0				; did core cause an irq?
00:0001012C 67000126        	   151: 	beq	.3					; no
00:00010130 13C000000480    	   152: 	move.b	D0,CORE_SR				; yes, acknowledge
                            	   153: 
00:00010136 10380484        	   154: 	move.b	CORE_FILE_DATA.w,D0			; get first byte
00:0001013A B07C0001        	   155: 	cmp	#1,D0
00:0001013E 66000108        	   156: 	bne	.2					; it's not a valid file
                            	   157: 
00:00010142 487900010631    	   158: 	pea	file_loading1
00:00010148 61000414        	   159: 	bsr	terminal_putstring
00:0001014C 588F            	   160: 	addq.l	#4,SP
                            	   161: 
00:0001014E 487900010647    	   162: .start	pea	file_loading2
00:00010154 61000408        	   163: 	bsr	terminal_putstring
00:00010158 588F            	   164: 	addq.l	#4,SP
                            	   165: 
00:0001015A 4280            	   166: 	clr.l	D0
00:0001015C 10380484        	   167: 	move.b	CORE_FILE_DATA.w,D0
00:00010160 660000E6        	   168: 	bne	.2					; should be zero this first byte
00:00010164 10380484        	   169: 	move.b	CORE_FILE_DATA.w,D0
00:00010168 E188            	   170: 	lsl.l	#8,D0
00:0001016A 10380484        	   171: 	move.b	CORE_FILE_DATA.w,D0
00:0001016E E188            	   172: 	lsl.l	#8,D0
00:00010170 10380484        	   173: 	move.b	CORE_FILE_DATA.w,D0
                            	   174: 
00:00010174 23C00000600E    	   175: 	move.l	D0,chunk_length
                            	   176: 
00:0001017A 2F00            	   177: 	move.l	D0,-(SP)
00:0001017C 1F3C0006        	   178: 	move.b	#6,-(SP)
00:00010180 610003F8        	   179: 	bsr	terminal_put_hex_number
00:00010184 5C8F            	   180: 	addq.l	#6,SP
                            	   181: 
00:00010186 48790001064A    	   182: 	pea	file_loading3
00:0001018C 610003D0        	   183: 	bsr	terminal_putstring
00:00010190 588F            	   184: 	addq.l	#4,SP
                            	   185: 
00:00010192 4281            	   186: 	clr.l	D1
00:00010194 12380484        	   187: 	move.b	CORE_FILE_DATA.w,D1
00:00010198 660000AE        	   188: 	bne	.2
00:0001019C 12380484        	   189: 	move.b	CORE_FILE_DATA.w,D1
00:000101A0 E189            	   190: 	lsl.l	#8,D1
00:000101A2 12380484        	   191: 	move.b	CORE_FILE_DATA.w,D1
00:000101A6 E189            	   192: 	lsl.l	#8,D1
00:000101A8 12380484        	   193: 	move.b	CORE_FILE_DATA.w,D1
                            	   194: 
00:000101AC 2F01            	   195: 	move.l	D1,-(SP)
00:000101AE 1F3C0006        	   196: 	move.b	#6,-(SP)
00:000101B2 610003C6        	   197: 	bsr	terminal_put_hex_number
00:000101B6 548F            	   198: 	addq.l	#2,SP
00:000101B8 205F            	   199: 	movea.l	(SP)+,A0
                            	   200: 
00:000101BA 20390000600E    	   201: 	move.l	chunk_length,D0
                            	   202: 
00:000101C0 10F80484        	   203: .1	move.b	CORE_FILE_DATA.w,(A0)+	; get data and store in memory
00:000101C4 5340            	   204: 	subq	#1,D0
00:000101C6 6600FFF8        	   205: 	bne	.1
                            	   206: 
00:000101CA 2F08            	   207: 	move.l	A0,-(SP)
00:000101CC 48790001064A    	   208: 	pea	file_loading3
00:000101D2 6100038A        	   209: 	bsr	terminal_putstring
00:000101D6 588F            	   210: 	addq.l	#4,SP
00:000101D8 205F            	   211: 	movea.l	(SP)+,A0
                            	   212: 
00:000101DA 5348            	   213: 	subq.w	#1,A0			; now A0 contains the last address in which a byte was loaded
00:000101DC 2F08            	   214: 	move.l	A0,-(SP)
00:000101DE 1F3C0006        	   215: 	move.b	#6,-(SP)
00:000101E2 61000396        	   216: 	bsr	terminal_put_hex_number
00:000101E6 5C8F            	   217: 	addq.l	#6,SP
                            	   218: 
00:000101E8 10380484        	   219: 	move.b	CORE_FILE_DATA.w,D0	; look for next chunk
00:000101EC B03C0001        	   220: 	cmp.b	#1,D0
00:000101F0 6700FF5C        	   221: 	beq	.start			; yes, another data chunk
00:000101F4 B03C00FE        	   222: 	cmp.b	#$fe,D0			; no, is this a postamble?
00:000101F8 6600004E        	   223: 	bne	.2			; no = error
                            	   224: 
00:000101FC 10380484        	   225: 	move.b	CORE_FILE_DATA.w,D0	; yes it's the postamble
00:00010200 66000046        	   226: 	bne	.2			; should be zero
00:00010204 10380484        	   227: 	move.b	CORE_FILE_DATA.w,D0
00:00010208 6600003E        	   228: 	bne	.2			; should be zero
00:0001020C 10380484        	   229: 	move.b	CORE_FILE_DATA.w,D0
00:00010210 66000036        	   230: 	bne	.2			; should be zero
00:00010214 10380484        	   231: 	move.b	CORE_FILE_DATA.w,D0
00:00010218 6600002E        	   232: 	bne	.2			; should be zero
                            	   233: 
00:0001021C 4280            	   234: 	clr.l	D0
00:0001021E 10380484        	   235: 	move.b	CORE_FILE_DATA.w,D0
00:00010222 66000024        	   236: 	bne	.2			; should be zero
00:00010226 10380484        	   237: 	move.b	CORE_FILE_DATA.w,D0
00:0001022A E188            	   238: 	lsl.l	#8,D0
00:0001022C 10380484        	   239: 	move.b	CORE_FILE_DATA.w,D0
00:00010230 E188            	   240: 	lsl.l	#8,D0
00:00010232 10380484        	   241: 	move.b	CORE_FILE_DATA.w,D0	; D0 contains starting address
00:00010236 23C000006012    	   242: 	move.l	D0,exec_address
                            	   243: 
00:0001023C 13FC000100006001	   244: 	move.b	#1,binary_ready
00:00010244 6000000E        	   245: 	bra	.3
                            	   246: 
00:00010248 487900010616    	   247: .2	pea	file_error
00:0001024E 6100030E        	   248: 	bsr	terminal_putstring
00:00010252 588F            	   249: 	addq.l	#4,SP
00:00010254 4CDF0003        	   250: .3	movem.l	(SP)+,D0-D1
00:00010258 4E73            	   251: 	rte
                            	   252: 
                            	   253: 
                            	   254: exc_lvl4_irq_auto		; coupled to timer
00:0001025A 48E7C080        	   255: 	movem.l	D0-D1/A0,-(SP)
00:0001025E 207C00000100    	   256: 	movea.l	#VEC_TIMER0,A0
00:00010264 103C0001        	   257: 	move.b	#%00000001,D0	; D0 contains the bit to be tested
                            	   258: 
00:00010268 1200            	   259: .1	move.b	D0,D1		; copy D0 to D1
00:0001026A C2380440        	   260: 	and.b	TIMER_SR.w,D1
00:0001026E 6600000C        	   261: 	bne	.2		; it was this timer
00:00010272 5848            	   262: 	addq	#4,A0
00:00010274 E300            	   263: 	asl.b	D0
00:00010276 6700000C        	   264: 	beq	.3
00:0001027A 60EC            	   265: 	bra.s	.1
                            	   266: 
                            	   267: 	; code for dealing with this timer
00:0001027C 11C00440        	   268: .2	move.b	D0,TIMER_SR.w	; confirm this irq
00:00010280 2050            	   269: 	movea.l	(A0),A0
00:00010282 4E90            	   270: 	jsr	(A0)
                            	   271: 
00:00010284 4CDF0103        	   272: .3	movem.l	(SP)+,D0-D1/A0
00:00010288 4E73            	   273: 	rte
                            	   274: 
                            	   275: 
                            	   276: exc_lvl6_irq_auto				; coupled to vdc
00:0001028A 1F3900000407    	   277: 	move.b	VDC_CURRENT_SPRITE,-(SP)
00:00010290 48E7C000        	   278: 	movem.l	D0-D1,-(SP)
                            	   279: 
00:00010294 10380400        	   280: 	move.b	VDC_SR.w,D0
00:00010298 6700005E        	   281: 	beq	.end
00:0001029C 11C00400        	   282: 	move.b	D0,VDC_SR.w			; acknowledge irq
                            	   283: 
00:000102A0 103900006000    	   284: 	move.b	logo_animation,D0
00:000102A6 5200            	   285: 	addq.b	#$1,D0
00:000102A8 B03C00B8        	   286: 	cmp.b	#$b8,D0				; did we reach x position $b8?
00:000102AC 6600000E        	   287: 	bne	.1				; no jump to .1
00:000102B0 13FC000100000481	   288: 	move.b	#%00000001,CORE_CR		; yes, activate irq's for binary insert (each time we reach $b8)
                            	   289: 						; this makes sure letters wobble at least 1 time before binary
                            	   290: 						; load process starts
00:000102B8 103C0048        	   291: 	move.b	#$48,D0				; reset x position to $48
                            	   292: 
00:000102BC 13C000006000    	   293: .1	move.b	D0,logo_animation
                            	   294: 
00:000102C2 123C0004        	   295: 	move.b	#4,D1				; start with sprite 4 (letter 'l')
00:000102C6 13C100000407    	   296: .2	move.b	D1,VDC_CURRENT_SPRITE
00:000102CC 13FC005C00000423	   297: 	move.b	#92,VDC_SPRITE_Y_LSB		; base position for each letter
                            	   298: 
00:000102D4 103900000421    	   299: 	move.b	VDC_SPRITE_X_LSB,D0		; store x for current sprite in D0
00:000102DA 903900006000    	   300: 	sub.b	logo_animation,D0		; subtract logo_an x value from D0
                            	   301: 
00:000102E0 B03C0008        	   302: 	cmp.b	#8,D0
00:000102E4 64000008        	   303: 	bcc	.3				; if more than 8, jump to .3
                            	   304: 
00:000102E8 533900000423    	   305: 	subq.b	#1,VDC_SPRITE_Y_LSB		; move letter up 1 pixel
                            	   306: 
00:000102EE 5241            	   307: .3	addq	#1,D1				; move to next sprite
00:000102F0 B23C0008        	   308: 	cmp.b	#8,D1				; did we reach sprite 8?
00:000102F4 6600FFD0        	   309: 	bne	.2				; not yet, jump to .2
                            	   310: 
00:000102F8 4CDF0003        	   311: .end	movem.l	(SP)+,D0-D1
00:000102FC 13DF00000407    	   312: 	move.b	(SP)+,VDC_CURRENT_SPRITE
00:00010302 4E73            	   313: 	rte
                            	   314: 
                            	   315: exc_trap14_handler
00:00010304 B03C0000        	   316: 	cmp.b	#0,D0
00:00010308 66000006        	   317: 	bne	.1
00:0001030C 610002D8        	   318: 	bsr	rnd_impl
00:00010310 4E73            	   319: .1	rte
                            	   320: 
                            	   321: exc_trap15_handler
00:00010312 B03C0001        	   322: 	cmp.b	#1,D0
00:00010316 6600000C        	   323: 	bne	.1
00:0001031A 1F01            	   324: 	move.b	D1,-(SP)
00:0001031C 610001D2        	   325: 	bsr	terminal_putchar
00:00010320 548F            	   326: 	addq.l	#2,SP
00:00010322 4E73            	   327: 	rte
                            	   328: 
00:00010324 B03C0002        	   329: .1	cmp.b	#2,D0
00:00010328 6600000A        	   330: 	bne	.2
00:0001032C 2F08            	   331: 	move.l	A0,-(SP)
00:0001032E 6100022E        	   332: 	bsr	terminal_putstring
00:00010332 588F            	   333: 	addq.l	#4,SP
                            	   334: 
00:00010334 4E73            	   335: .2	rte
                            	   336: 
                            	   337: timer_default_handler
00:00010336 11FC00120404    	   338: 	move.b	#$12,VDC_BG_COLOR.w
00:0001033C 4E75            	   339: 	rts
                            	   340: 
                            	   341: 
                            	   342: sound_reset
00:0001033E 48E78080        	   343: 	movem.l	D0/A0,-(SP)
                            	   344: 
00:00010342 207C00000500    	   345: 	movea.l	#SID0_F,A0
                            	   346: 
00:00010348 4218            	   347: .1	clr.b	(A0)+
00:0001034A B1FC00000540    	   348: 	cmpa.l	#SID0_F+$40,A0
00:00010350 6600FFF6        	   349: 	bne	.1
                            	   350: 
00:00010354 103C007F        	   351: 	move.b	#$7f,D0
00:00010358 207C00000580    	   352: 	movea.l	#MIX_SID0_LEFT,A0
                            	   353: 
00:0001035E 10C0            	   354: .2	move.b	D0,(A0)+
00:00010360 B1FC00000588    	   355: 	cmpa.l	#MIX_SID0_LEFT+$8,A0
00:00010366 6600FFF6        	   356: 	bne	.2
                            	   357: 
00:0001036A 13FC000F0000051B	   358: 	move.b	#$f,SID0_V
00:00010372 13FC000F0000053B	   359: 	move.b	#$f,SID1_V
                            	   360: 
00:0001037A 4CDF0101        	   361: 	movem.l	(SP)+,D0/A0
00:0001037E 4E75            	   362: 	rts
                            	   363: 
                            	   364: 
                            	   365: init_vector_table
00:00010380 21FC0001010A000C	   366: 	move.l	#exc_addr_error,VEC_ADDR_ERROR.w
00:00010388 21FC0001010E0010	   367: 	move.l	#exc_illegal_instr,VEC_ILLEGAL_INSTR.w
00:00010390 21FC000101160020	   368: 	move.l	#exc_privilege_violation,VEC_PRIVILEGE_VIOLATION.w
00:00010398 21FC0001011E0060	   369: 	move.l	#exc_spurious_interrupt,VEC_SPURIOUS_INTERRUPT.w
00:000103A0 21FC000101200064	   370: 	move.l	#exc_lvl1_irq_auto,VEC_LVL1_IRQ_AUTO.w
00:000103A8 21FC000101220068	   371: 	move.l	#exc_lvl2_irq_auto,VEC_LVL2_IRQ_AUTO.w
00:000103B0 21FC0001025A0070	   372: 	move.l	#exc_lvl4_irq_auto,VEC_LVL4_IRQ_AUTO.w
00:000103B8 21FC0001028A0078	   373: 	move.l	#exc_lvl6_irq_auto,VEC_LVL6_IRQ_AUTO.w
00:000103C0 21FC0001030400B8	   374: 	move.l	#exc_trap14_handler,VEC_TRAP14.w
00:000103C8 21FC0001031200BC	   375: 	move.l	#exc_trap15_handler,VEC_TRAP15.w
00:000103D0 21FC000103360100	   376: 	move.l	#timer_default_handler,VEC_TIMER0.w
00:000103D8 21FC000103360104	   377: 	move.l	#timer_default_handler,VEC_TIMER1.w
00:000103E0 21FC000103360108	   378: 	move.l	#timer_default_handler,VEC_TIMER2.w
00:000103E8 21FC00010336010C	   379: 	move.l	#timer_default_handler,VEC_TIMER3.w
00:000103F0 21FC000103360110	   380: 	move.l	#timer_default_handler,VEC_TIMER4.w
00:000103F8 21FC000103360114	   381: 	move.l	#timer_default_handler,VEC_TIMER5.w
00:00010400 21FC000103360118	   382: 	move.l	#timer_default_handler,VEC_TIMER6.w
00:00010408 21FC00010336011C	   383: 	move.l	#timer_default_handler,VEC_TIMER7.w
00:00010410 4E75            	   384: 	rts
                            	   385: 
                            	   386: 
                            	   387: vdc_init_layer0
00:00010412 1F380406        	   388: 	move.b	VDC_CURRENT_LAYER.w,-(SP)
                            	   389: 
00:00010416 11FC000C0402    	   390: 	move.b	#$0c,VDC_BORDER_COLOR.w;	; dark grey / black
00:0001041C 11FC000A0403    	   391: 	move.b	#$0a,VDC_BORDER_SIZE.w;
00:00010422 11FC00160404    	   392: 	move.b	#$16,VDC_BG_COLOR.w;		; C64 blue
00:00010428 42380406        	   393: 	clr.b	VDC_CURRENT_LAYER.w		; make layer 0 current
00:0001042C 11FC000D0414    	   394: 	move.b	#%1101,VDC_LAYER_FLAGS0.w	;
00:00010432 31FCFFF60412    	   395: 	move.w	#$fff6,VDC_LAYER_Y_MSB.w
                            	   396: 
00:00010438 11DF0406        	   397: 	move.b	(SP)+,VDC_CURRENT_LAYER.w
00:0001043C 4E75            	   398: 	rts
                            	   399: 
                            	   400: 
                            	   401: vdc_copy_rom_font
00:0001043E 1F380482        	   402: 	move.b	CORE_ROMS.w,-(SP)
                            	   403: 
00:00010442 003800060482    	   404: 	or.b	#%00000110,CORE_ROMS.w			; make rom font visible to cpu
00:00010448 207C00000800    	   405: 	movea.l	#$800,A0
00:0001044E 227C00002000    	   406: 	movea.l	#$2000,A1
                            	   407: 
00:00010454 20D0            	   408: .1	move.l	(A0),(A0)+				; copy rom font to underlying ram
00:00010456 B0C9            	   409: 	cmpa	A1,A0
00:00010458 6600FFFA        	   410: 	bne	.1
                            	   411: 
00:0001045C 11DF0482        	   412: 	move.b	(SP)+,CORE_ROMS.w
00:00010460 4E75            	   413: 	rts
                            	   414: 
                            	   415: 
                            	   416: vdc_copy_logo_tiles
00:00010462 207C000106A0    	   417: 	movea.l	#logo_tiles,A0
00:00010468 327C11C0        	   418: 	movea.w	#$11c0,A1		; start at tile $1c
                            	   419: 
00:0001046C 12D8            	   420: .1	move.b	(A0)+,(A1)+
00:0001046E B1FC000106E0    	   421: 	cmpa.l	#logo_tiles+64,A0	; 64 bytes = 4 tiles, 16 bytes/tile
00:00010474 6600FFF6        	   422: 	bne	.1
                            	   423: 
00:00010478 4E75            	   424: 	rts
                            	   425: 
                            	   426: 
                            	   427: ; setup sprites 0 - 7 (position, flags, index)
                            	   428: vdc_init_logo
00:0001047A 207C00010660    	   429: 	movea.l	#logo_data,A0
00:00010480 4200            	   430: 	clr.b	D0
                            	   431: 
00:00010482 13C000000407    	   432: .1	move.b	D0,VDC_CURRENT_SPRITE
00:00010488 227C00000420    	   433: 	movea.l	#VDC_SPRITE_X_MSB,A1
                            	   434: 
00:0001048E 12D8            	   435: .2	move.b	(A0)+,(A1)+
00:00010490 B3FC00000428    	   436: 	cmpa.l	#VDC_SPRITE_X_MSB+8,A1
00:00010496 6600FFF6        	   437: 	bne	.2
00:0001049A 5240            	   438: 	addq	#1,D0
00:0001049C B1FC000106A0    	   439: 	cmpa.l	#logo_data+64,A0	; 8 * 8 bytes = 64 bytes
00:000104A2 6600FFDE        	   440: 	bne	.1
                            	   441: 
00:000104A6 4E75            	   442: 	rts
                            	   443: 
                            	   444: 
                            	   445: vdc_disable_logo
                            	   446: 	; stop interrupt routine
                            	   447: 	; make sprites 0-7 hidden, but leave other data as it is
                            	   448: 	; <OR> restore original chars?
00:000104A8 4E75            	   449: 	rts
                            	   450: 
                            	   451: 
                            	   452: terminal_init
00:000104AA 23FC000020000000	   453: 	move.l	#VDC_LAYER0_TILES,terminal_chars
00:000104B2 6006
00:000104B4 23FC000030000000	   454: 	move.l	#VDC_LAYER0_COLORS,terminal_colors
00:000104BC 600A
00:000104BE 13FC001E00006004	   455: 	move.b	#$1e,cursor_color
00:000104C6 4E75            	   456: 	rts
                            	   457: 
                            	   458: 
                            	   459: terminal_clear
00:000104C8 303C1000        	   460: 	move.w	#(TERMINAL_HPITCH*TERMINAL_VPITCH),D0
00:000104CC 12386004        	   461: 	move.b	cursor_color.w,D1
00:000104D0 207900006006    	   462: 	movea.l	terminal_chars,A0
00:000104D6 22790000600A    	   463: 	movea.l	terminal_colors,A1
                            	   464: 
00:000104DC 10FC0020        	   465: .1	move.b	#' ',(A0)+
00:000104E0 12C1            	   466: 	move.b	D1,(A1)+
00:000104E2 5340            	   467: 	subq.w	#1,D0
00:000104E4 6600FFF6        	   468: 	bne	.1
                            	   469: 
00:000104E8 427900006002    	   470: 	clr.w	cursor_pos
00:000104EE 4E75            	   471: 	rts
                            	   472: 
                            	   473: terminal_putchar
00:000104F0 207900006006    	   474: 	movea.l	terminal_chars,A0
00:000104F6 22790000600A    	   475: 	movea.l	terminal_colors,A1
00:000104FC 303900006002    	   476: 	move.w	cursor_pos,D0
                            	   477: 
00:00010502 0C2F000A0004    	   478: 	cmp.b	#$0a,(4,SP)		; check for newline
00:00010508 6700002A        	   479: 	beq	.1
00:0001050C 0C2F000D0004    	   480: 	cmp.b	#$0d,(4,SP)		; check for carriage return
00:00010512 67000024        	   481: 	beq	.2
                            	   482: 
00:00010516 11AF00040000    	   483: 	move.b	(4,SP),(A0,D0.w)	; print char
00:0001051C 13B9000060040000	   484: 	move.b	cursor_color,(A1,D0.w)	; set color
                            	   485: 
00:00010524 5240            	   486: 	addq.w	#1,D0			; move cursor one step to the right
00:00010526 3200            	   487: 	move.w	D0,D1
00:00010528 0241007F        	   488: 	andi.w	#%1111111,D1
00:0001052C B27C0050        	   489: 	cmp.w	#TERMINAL_WIDTH,D1	; are we at pos 80 or higher?
00:00010530 65000024        	   490: 	blo	.3			; no
                            	   491: 
00:00010534 06400080        	   492: .1	addi.w	#TERMINAL_HPITCH,D0	; yes, move cursor one line down
00:00010538 0240FF80        	   493: .2	andi.w	#%1111111110000000,D0	; cursor to beginning of line (carriage return)
                            	   494: 
00:0001053C B07C0A00        	   495: 	cmp.w	#(TERMINAL_HPITCH*TERMINAL_HEIGHT),D0	; check for cursor out of screen
00:00010540 65000014        	   496: 	blo	.3			; no
                            	   497: 
00:00010544 04400080        	   498: 	subi.w	#TERMINAL_HPITCH,D0	; move cursor one line up
00:00010548 33C000006002    	   499: 	move.w	D0,cursor_pos
00:0001054E 4EB9000105B8    	   500: 	jsr	terminal_add_bottom_row
00:00010554 4E75            	   501: 	rts
                            	   502: 
00:00010556 33C000006002    	   503: .3	move.w	D0,cursor_pos
00:0001055C 4E75            	   504: 	rts
                            	   505: 
                            	   506: 
                            	   507: terminal_putstring
00:0001055E 206F0004        	   508: 	movea.l	(4,SP),A0
00:00010562 1018            	   509: .1	move.b	(A0)+,D0
00:00010564 67000012        	   510: 	beq	.2
00:00010568 2F08            	   511: 	move.l	A0,-(SP)
00:0001056A 1F00            	   512: 	move.b	D0,-(SP)
00:0001056C 6100FF82        	   513: 	bsr	terminal_putchar
00:00010570 548F            	   514: 	addq.l	#2,SP
00:00010572 205F            	   515: 	movea.l	(SP)+,A0
00:00010574 6000FFEC        	   516: 	bra	.1
00:00010578 4E75            	   517: .2	rts
                            	   518: 
                            	   519: 
                            	   520: terminal_put_hex_number
00:0001057A 102F0004        	   521: 	move.b	4(SP),D0	; D0 contains no of digits to print
00:0001057E 67000036        	   522: 	beq	.2		; if this is 0, end this function
                            	   523: 
00:00010582 5300            	   524: 	subq.b	#1,D0		; reduce number of digits to print by 1
00:00010584 67000014        	   525: 	beq	.1		; if this is 0 (now), only one digit to print
                            	   526: 
00:00010588 222F0006        	   527: 	move.l	6(SP),D1	; D1 contains the number to be printed
                            	   528: 
00:0001058C E889            	   529: 	lsr.l	#4,D1
00:0001058E 2F01            	   530: 	move.l	D1,-(SP)
00:00010590 1F00            	   531: 	move.b	D0,-(SP)
00:00010592 4EB90001057A    	   532: 	jsr	terminal_put_hex_number
00:00010598 5C8F            	   533: 	addq.l	#6,SP
                            	   534: 
00:0001059A 202F0006        	   535: .1	move.l	6(SP),D0
00:0001059E 02800000000F    	   536: 	andi.l	#$f,D0
00:000105A4 41F9000106E0    	   537: 	lea	hex_values,A0
00:000105AA 1F300000        	   538: 	move.b	(A0,D0),-(SP)
00:000105AE 4EB9000104F0    	   539: 	jsr	terminal_putchar
00:000105B4 548F            	   540: 	addq.l	#2,SP
                            	   541: 
00:000105B6 4E75            	   542: .2	rts
                            	   543: 
                            	   544: terminal_add_bottom_row
00:000105B8 48E70030        	   545: 	movem.l	A2-A3,-(SP)
                            	   546: 
00:000105BC 207900006006    	   547: 	movea.l	terminal_chars,A0
00:000105C2 43E80080        	   548: 	lea	(TERMINAL_HPITCH,A0),A1
00:000105C6 24790000600A    	   549: 	movea.l	terminal_colors,A2
00:000105CC 47EA0080        	   550: 	lea	(TERMINAL_HPITCH,A2),A3
                            	   551: 
00:000105D0 303C0A00        	   552: 	move.w	#(TERMINAL_HPITCH*TERMINAL_HEIGHT),D0	; use terminal size, then lowest row is filled properly
00:000105D4 E448            	   553: 	lsr.w	#2,D0			; divide by 4
00:000105D6 20D9            	   554: .1	move.l	(A1)+,(A0)+		; do 4 bytes at once
00:000105D8 24DB            	   555: 	move.l	(A3)+,(A2)+		; do 4 bytes at once
00:000105DA 5340            	   556: 	subq.w	#1,D0
00:000105DC 6600FFF8        	   557: 	bne	.1
                            	   558: 
00:000105E0 4CDF0C00        	   559: 	movem.l	(SP)+,A2-A3
00:000105E4 4E75            	   560: 	rts
                            	   561: 
                            	   562: ; see: https://www.stix.id.au/wiki/Fast_8-bit_pseudorandom_number_generator
                            	   563: rnd_impl
00:000105E6 52386019        	   564: 	addq.b	#1,rndx.w
00:000105EA 10386016        	   565: 	move.b	rnda.w,D0	; D0 = a
00:000105EE 12386018        	   566: 	move.b	rndc.w,D1	; D1 = c
00:000105F2 B300            	   567: 	eor.b	D1,D0		; (a ^ c), in D0
00:000105F4 12386019        	   568: 	move.b	rndx.w,D1	; D1 = x
00:000105F8 B300            	   569: 	eor.b	D1,D0		; (a ^ c) ^ x, in D0
00:000105FA 11C06016        	   570: 	move.b	D0,rnda.w	; store result in a
                            	   571: 
00:000105FE 12386017        	   572: 	move.b	rndb.w,D1	; D1 = b
00:00010602 D200            	   573: 	add.b	D0,D1		; b = b + a
00:00010604 11C16017        	   574: 	move.b	D1,rndb.w
00:00010608 E219            	   575: 	ror.b	#1,D1
00:0001060A D2386018        	   576: 	add.b	rndc.w,D1
00:0001060E B300            	   577: 	eor.b	D1,D0
00:00010610 11C06018        	   578: 	move.b	D0,rndc.w
00:00010614 4E75            	   579: 	rts
                            	   580: 
                            	   581: 
00:00010616 0A              	   582: file_error	dc.b	$0a,"error: not a valid binary",0
00:00010617 6572726F723A206E
00:0001061F 6F7420612076616C
00:00010627 69642062696E6172
00:0001062F 79
00:00010630 00
00:00010631 0A              	   583: file_loading1	dc.b	$0a,"  size    from    to",0
00:00010632 202073697A652020
00:0001063A 202066726F6D2020
00:00010642 2020746F
00:00010646 00
00:00010647 0A              	   584: file_loading2	dc.b	$0a,"$",0
00:00010648 24
00:00010649 00
00:0001064A 2024            	   585: file_loading3	dc.b	" $",0
00:0001064C 00
00:0001064D 0A              	   586: file_loading4	dc.b	$0a,$0a," jumping to $",0
00:0001064E 0A
00:0001064F 206A756D70696E67
00:00010657 20746F2024
00:0001065C 00
                            	   587: 
                            	   588: 	align	2
                            	   589: logo_data
00:00010660 00              	   590: 	dc.b	0,152,0,76,%111,0,0,$1c	; icon top left
00:00010661 98
00:00010662 00
00:00010663 4C
00:00010664 07
00:00010665 00
00:00010666 00
00:00010667 1C
00:00010668 00              	   591: 	dc.b	0,160,0,76,%111,0,0,$1d	; icon top right
00:00010669 A0
00:0001066A 00
00:0001066B 4C
00:0001066C 07
00:0001066D 00
00:0001066E 00
00:0001066F 1D
00:00010670 00              	   592: 	dc.b	0,152,0,84,%111,0,0,$1e	; icon bottom left
00:00010671 98
00:00010672 00
00:00010673 54
00:00010674 07
00:00010675 00
00:00010676 00
00:00010677 1E
00:00010678 00              	   593: 	dc.b	0,160,0,84,%111,0,0,$1f	; icon bottom right
00:00010679 A0
00:0001067A 00
00:0001067B 54
00:0001067C 07
00:0001067D 00
00:0001067E 00
00:0001067F 1F
00:00010680 00              	   594: 	dc.b	0,147,0,92,%111,0,0,$6c	; l
00:00010681 93
00:00010682 00
00:00010683 5C
00:00010684 07
00:00010685 00
00:00010686 00
00:00010687 6C
00:00010688 00              	   595: 	dc.b	0,152,0,92,%111,0,0,$69	; i
00:00010689 98
00:0001068A 00
00:0001068B 5C
00:0001068C 07
00:0001068D 00
00:0001068E 00
00:0001068F 69
00:00010690 00              	   596: 	dc.b	0,158,0,92,%111,0,0,$6d	; m
00:00010691 9E
00:00010692 00
00:00010693 5C
00:00010694 07
00:00010695 00
00:00010696 00
00:00010697 6D
00:00010698 00              	   597: 	dc.b	0,166,0,92,%111,0,0,$65	; e
00:00010699 A6
00:0001069A 00
00:0001069B 5C
00:0001069C 07
00:0001069D 00
00:0001069E 00
00:0001069F 65
                            	   598: 
                            	   599: 
                            	   600: logo_tiles
00:000106A0 00              	   601: 	dc.b	%00000000,%00000000	; tile 1 (icon upper left)
00:000106A1 00
00:000106A2 01              	   602: 	dc.b	%00000001,%00000000
00:000106A3 00
00:000106A4 07              	   603: 	dc.b	%00000111,%10000000
00:000106A5 80
00:000106A6 07              	   604: 	dc.b	%00000111,%10100000
00:000106A7 A0
00:000106A8 1E              	   605: 	dc.b	%00011110,%11111000
00:000106A9 F8
00:000106AA 1E              	   606: 	dc.b	%00011110,%10101111
00:000106AB AF
00:000106AC 1E              	   607: 	dc.b	%00011110,%10101010
00:000106AD AA
00:000106AE 1E              	   608: 	dc.b	%00011110,%10101111
00:000106AF AF
                            	   609: 
00:000106B0 00              	   610: 	dc.b	%00000000,%00000000	; tile 2 (icon upper right)
00:000106B1 00
00:000106B2 00              	   611: 	dc.b	%00000000,%00000000
00:000106B3 00
00:000106B4 00              	   612: 	dc.b	%00000000,%00000000
00:000106B5 00
00:000106B6 00              	   613: 	dc.b	%00000000,%00000000
00:000106B7 00
00:000106B8 00              	   614: 	dc.b	%00000000,%00000000
00:000106B9 00
00:000106BA 00              	   615: 	dc.b	%00000000,%00000000
00:000106BB 00
00:000106BC C0              	   616: 	dc.b	%11000000,%00000000
00:000106BD 00
00:000106BE B0              	   617: 	dc.b	%10110000,%00000000
00:000106BF 00
                            	   618: 
00:000106C0 1E              	   619: 	dc.b	%00011110,%11111010	; tile 3 (icon bottom left)
00:000106C1 FA
00:000106C2 07              	   620: 	dc.b	%00000111,%10101010
00:000106C3 AA
00:000106C4 07              	   621: 	dc.b	%00000111,%10101011
00:000106C5 AB
00:000106C6 01              	   622: 	dc.b	%00000001,%11101011
00:000106C7 EB
00:000106C8 00              	   623: 	dc.b	%00000000,%01111110
00:000106C9 7E
00:000106CA 00              	   624: 	dc.b	%00000000,%00010111
00:000106CB 17
00:000106CC 00              	   625: 	dc.b	%00000000,%00000001
00:000106CD 01
00:000106CE 00              	   626: 	dc.b	%00000000,%00000000
00:000106CF 00
                            	   627: 
00:000106D0 EC              	   628: 	dc.b	%11101100,%00000000	; tile 4 (icon bottom right)
00:000106D1 00
00:000106D2 EE              	   629: 	dc.b	%11101110,%00000000
00:000106D3 00
00:000106D4 AB              	   630: 	dc.b	%10101011,%10000000
00:000106D5 80
00:000106D6 AB              	   631: 	dc.b	%10101011,%10100000
00:000106D7 A0
00:000106D8 AA              	   632: 	dc.b	%10101010,%11110100
00:000106D9 F4
00:000106DA FF              	   633: 	dc.b	%11111111,%01010000
00:000106DB 50
00:000106DC 55              	   634: 	dc.b	%01010101,%00000000
00:000106DD 00
00:000106DE 00              	   635: 	dc.b	%00000000,%00000000
00:000106DF 00
                            	   636: 
                            	   637: hex_values
00:000106E0 3031323334353637	   638: 	dc.b	"0123456789abcdef"
00:000106E8 3839616263646566
                            	   639: 
                            	   640: 	include	"ehbasicm68k.s"

Source: "ehbasicm68k.s"
                            	     1: *****************************************************************
                            	     2: *								*
                            	     3: *	Enhanced BASIC for the Motorola MC680xx			*
                            	     4: *								*
                            	     5: * 	Derived from EhBASIC for the 6502 and adapted by:	*
                            	     6: * 	Lee Davison						*
                            	     7: *								*
                            	     8: *	mail : leeedavison@lycos.co.uk				*
                            	     9: *								*
                            	    10: *	This is the generic version with I/O and LOAD/SAVE	*
                            	    11: *	example code for the EASy68k editor/simulator.		*
                            	    12: *	2002/3/4/5.						*
                            	    13: *								*
                            	    14: *****************************************************************
                            	    15: *								*
                            	    16: *	Copyright (C) 2002/3/4/5 by Lee Davison. This program	*
                            	    17: *	may be freely distributed for personal use only.	*
                            	    18: *	All commercial rights are reserved.			*
                            	    19: *								*
                            	    20: *****************************************************************
                            	    21: *								*
                            	    22: *	The choice of memory areas in this code is set to	*
                            	    23: *	reflect the actual memory present on a 68008 SBC	*
                            	    24: *	that I have.						*
                            	    25: *								*
                            	    26: *	Memory map:						*
                            	    27: *								*
                            	    28: *	ROM	$000000 - $00FFFF				*
                            	    29: *	RAM	$040000 - $048000 ($050000 optional)		*
                            	    30: *								*
                            	    31: *****************************************************************
                            	    32: 
                            	    33: * Ver 3.21
                            	    34: 
                            	    35: * Version 3.xx replaces the fixed RAM addressing from previous versions with a RAM
                            	    36: * pointer in a3. this means that this could now be run as a task on a multitasking
                            	    37: * system where memory resources may change.
                            	    38: 
                            	    39: * $3D04 $37B6 $3784 $3670
                            	    40: 
                            	    41: ;	OPT	CRE
                            	    42: 
                            	    43: 	include	"ehbasicm68k.inc"	* RAM offset definitions

Source: "ehbasicm68k.inc"
                            	     1: * This lot is in RAM
                            	     2: 
                            	     3: 	OFFSET	0			* start of RAM
                            	     4: 
                            	     5: ram_strt
02:00000000 00000000        	     6: 	ds.l	$100			* allow 1K for the stack, this should be plenty
02:00000004 *
                            	     7: 					* for any BASIC program that doesn't do something
                            	     8: 					* silly, it could even be much less.
                            	     9: ram_base
                            	    10: LAB_WARM
02:00000400 0000            	    11: 	ds.w	1			* BASIC warm start entry point
                            	    12: Wrmjpv
02:00000402 00000000        	    13: 	ds.l	1			* BASIC warm start jump vector
                            	    14: 
                            	    15: Usrjmp
02:00000406 0000            	    16: 	ds.w	1			* USR function JMP address
                            	    17: Usrjpv
02:00000408 00000000        	    18: 	ds.l	1			* USR function JMP vector
                            	    19: 
                            	    20: * system dependant i/o vectors
                            	    21: * these are in RAM and are set at start-up
                            	    22: 
02:0000040C 0000            	    23: V_INPT	ds.w	1			* non halting scan input device entry point
02:0000040E 00000000        	    24: V_INPTv	ds.l	1			* non halting scan input device jump vector
                            	    25: 
02:00000412 0000            	    26: V_OUTP	ds.w	1			* send byte to output device entry point
02:00000414 00000000        	    27: V_OUTPv	ds.l	1			* send byte to output device jump vector
                            	    28: 
02:00000418 0000            	    29: V_LOAD	ds.w	1			* load BASIC program entry point
02:0000041A 00000000        	    30: V_LOADv	ds.l	1			* load BASIC program jump vector
                            	    31: 
02:0000041E 0000            	    32: V_SAVE	ds.w	1			* save BASIC program entry point
02:00000420 00000000        	    33: V_SAVEv	ds.l	1			* save BASIC program jump vector
                            	    34: 
02:00000424 0000            	    35: V_CTLC	ds.w	1			* save CTRL-C check entry point
02:00000426 00000000        	    36: V_CTLCv	ds.l	1			* save CTRL-C check jump vector
                            	    37: 
02:0000042A 00000000        	    38: Itemp	ds.l	1			* temporary integer	(for GOTO etc)
                            	    39: 
02:0000042E 00000000        	    40: Smeml	ds.l	1			* start of memory		(start of program)
02:00000432 00000000        	    41: Sfncl	ds.l	1			* start of functions	(end of Program)
02:00000436 00000000        	    42: Svarl	ds.l	1			* start of variables	(end of functions)
02:0000043A 00000000        	    43: Sstrl	ds.l	1			* start of strings	(end of variables)
02:0000043E 00000000        	    44: Sarryl	ds.l	1			* start of arrays		(end of strings)
02:00000442 00000000        	    45: Earryl	ds.l	1			* end of arrays		(start of free mem)
02:00000446 00000000        	    46: Sstorl	ds.l	1			* string storage		(moving down)
02:0000044A 00000000        	    47: Ememl	ds.l	1			* end of memory		(upper bound of RAM)
02:0000044E 00000000        	    48: Sutill	ds.l	1			* string utility ptr
02:00000452 00000000        	    49: Clinel	ds.l	1			* current line		(Basic line number)
02:00000456 00000000        	    50: Blinel	ds.l	1			* break line		(Basic line number)
                            	    51: 
02:0000045A 00000000        	    52: Cpntrl	ds.l	1			* continue pointer
02:0000045E 00000000        	    53: Dlinel	ds.l	1			* current DATA line
02:00000462 00000000        	    54: Dptrl	ds.l	1			* DATA pointer
02:00000466 00000000        	    55: Rdptrl	ds.l	1			* read pointer
02:0000046A 00000000        	    56: Varname	ds.l	1			* current var name
02:0000046E 00000000        	    57: Cvaral	ds.l	1			* current var address
02:00000472 00000000        	    58: Lvarpl	ds.l	1			* variable pointer for LET and FOR/NEXT
                            	    59: 
                            	    60: des_sk_e
02:00000476 00000000        	    61: 	ds.l	6			* descriptor stack end address
02:0000047A *
                            	    62: des_sk					* descriptor stack start address
                            	    63: 					* use a4 for the descriptor pointer
02:0000048E 0000            	    64: 	ds.w	1
02:00000490 00000000        	    65: Ibuffs	ds.l	$40			* start of input buffer
02:00000494 *
                            	    66: Ibuffe
                            	    67: 						* end of input buffer
                            	    68: 
02:00000590 00000000        	    69: FAC1_m	ds.l	1			* FAC1 mantissa1
02:00000594 0000            	    70: FAC1_e	ds.w	1			* FAC1 exponent
                            	    71: FAC1_s	EQU	FAC1_e+1		* FAC1 sign (b7)
02:00000596 0000            	    72: 	ds.w	1
                            	    73: 
02:00000598 00000000        	    74: FAC2_m	ds.l	1			* FAC2 mantissa1
02:0000059C 00000000        	    75: FAC2_e	ds.l	1			* FAC2 exponent
                            	    76: FAC2_s	EQU	FAC2_e+1		* FAC2 sign (b7)
                            	    77: FAC_sc	EQU	FAC2_e+2		* FAC sign comparison, Acc#1 vs #2
                            	    78: flag	EQU	FAC2_e+3		* flag byte for divide routine
                            	    79: 
                            	    80: PRNlword
02:000005A0 00000000        	    81: 	ds.l	1			* PRNG seed long word
                            	    82: 
02:000005A4 00000000        	    83: ut1_pl	ds.l	1			* utility pointer 1
                            	    84: 
02:000005A8 00000000        	    85: Asptl	ds.l	1			* array size/pointer
02:000005AC 00000000        	    86: Astrtl	ds.l	1			* array start pointer
                            	    87: 
                            	    88: numexp	EQU	Astrtl		* string to float number exponent count
                            	    89: expcnt	EQU	Astrtl+1		* string to float exponent count
                            	    90: 
                            	    91: expneg	EQU	Astrtl+3		* string to float eval exponent -ve flag
                            	    92: 
02:000005B0 00000000        	    93: func_l	ds.l	1			* function pointer
                            	    94: 
                            	    95: 
                            	    96: 						* these two need to be a word aligned pair !
02:000005B4 0000            	    97: Defdim	ds.w	1			* default DIM flag
                            	    98: cosout	EQU	Defdim		* flag which CORDIC output (re-use byte)
                            	    99: Dtypef	EQU	Defdim+1		* data type flag, $80=string, $40=integer, $00=float
                            	   100: 
                            	   101: 
02:000005B6 00000000        	   102: Binss		ds.l	4			* number to bin string start (32 chrs)
02:000005BA *
                            	   103: 
02:000005C6 00000000        	   104: Decss		ds.l	1			* number to decimal string start (16 chrs)
02:000005CA 0000            	   105: 		ds.w	1			*
02:000005CC 0000            	   106: Usdss		ds.w	1			* unsigned decimal string start (10 chrs)
                            	   107: 
02:000005CE 00000000        	   108: Hexss		ds.l	2			* number to hex string start (8 chrs)
02:000005D2 *
                            	   109: 
02:000005D6 0000            	   110: BHsend	ds.w	1			* bin/decimal/hex string end
                            	   111: 
                            	   112: 
02:000005D8 00              	   113: prstk		ds.b	1			* stacked function index
                            	   114: 
                            	   115: *Srchc		ds.b	1			* search character
02:000005D9 00              	   116: tpower	ds.b	1			* remember CORDIC power
                            	   117: 
02:000005DA 00              	   118: Asrch		ds.b	1			* scan-between-quotes flag, alt search character
                            	   119: 
02:000005DB 00              	   120: Dimcnt	ds.b	1			* # of dimensions
                            	   121: 
02:000005DC 00              	   122: Breakf	ds.b	1			* break flag, $00=END else=break
02:000005DD 00              	   123: Oquote	ds.b	1			* open quote flag (Flag: DATA; LIST; memory)
02:000005DE 00              	   124: Gclctd	ds.b	1			* garbage collected flag
02:000005DF 00              	   125: Sufnxf	ds.b	1			* subscript/FNX flag, 1xxx xxx = FN(0xxx xxx)
02:000005E0 00              	   126: Imode		ds.b	1			* input mode flag, $00=INPUT, $98=READ
                            	   127: 
02:000005E1 00              	   128: Cflag		ds.b	1			* comparison evaluation flag
                            	   129: 
02:000005E2 00              	   130: TabSiz	ds.b	1			* TAB step size
                            	   131: 
02:000005E3 00              	   132: comp_f	ds.b	1			* compare function flag, bits 0,1 and 2 used
                            	   133: 						* bit 2 set if >
                            	   134: 						* bit 1 set if =
                            	   135: 						* bit 0 set if <
                            	   136: 
02:000005E4 00              	   137: Nullct	ds.b	1			* nulls output after each line
02:000005E5 00              	   138: TPos		ds.b	1			* BASIC terminal position byte
02:000005E6 00              	   139: TWidth	ds.b	1			* BASIC terminal width byte
02:000005E7 00              	   140: Iclim		ds.b	1			* input column limit
02:000005E8 00              	   141: ccflag	ds.b	1			* CTRL-C check flag
02:000005E9 00              	   142: ccbyte	ds.b	1			* CTRL-C last received byte
02:000005EA 00              	   143: ccnull	ds.b	1			* CTRL-C last received byte 'life' timer
                            	   144: 
                            	   145: * these variables for simulator load/save routines
                            	   146: 
02:000005EB 00              	   147: file_byte	ds.b	1			* load/save data byte
02:000005EC 00000000        	   148: file_id	ds.l	1			* load/save file ID
                            	   149: 
02:000005F0 0000            	   150: 		dc.w	0			* dummy even value and zero pad byte
                            	   151: 
                            	   152: prg_strt
                            	   153: 
                            	   154: ;	ORG	*
                            	   155: 	EVEN
                            	   156: 
                            	   157: ram_top	EQU	$40000		* length in bytes of RAM
                            	   158: 

Source: "ehbasicm68k.s"
                            	    44: 
                            	    45: 	section	code
                            	    46: 	;org	$020000			* past the vectors in a real system
                            	    47: 
                            	    48: * the following code is simulator specific, change to suit your system
                            	    49: 
                            	    50: * output character to the console from register D0
                            	    51: 
                            	    52: VEC_OUT
00:000006F0 48E7C000        	    53: 	movem.l	D0-D1,-(SP)	* save D0, D1
00:000006F4 1200            	    54: 	move.b	D0,D1		* copy character
00:000006F6 7001            	    55: 	moveq	#1,D0		* character out (function one in trap #15)
00:000006F8 4E4F            	    56: 	trap	#15		* do I/O function
00:000006FA 4CDF0003        	    57: 	movem.l	(SP)+,D0-D1	* restore D0, D1
00:000006FE 4E75            	    58: 	rts
                            	    59: 
                            	    60: * input a character from the console into register d0
                            	    61: * else return Cb=0 if there's no character available
                            	    62: 
                            	    63: VEC_IN
00:00000700 2F01            	    64: 	move.l	d1,-(sp)		* save d1
00:00000702 7007            	    65: 	moveq	#7,d0			* get status
00:00000704 4E4F            	    66: 	trap	#15			* do I/O function
00:00000706 1001            	    67: 	move.b	d1,d0			* copy status
00:00000708 6608            	    68: 	BNE.s	RETCHR			* branch if character waiting
                            	    69: 
00:0000070A 221F            	    70: 	move.l	(sp)+,d1		* restore d1
00:0000070C 00000000        	    71: 	ORI.b	#$00,d0			* set z flag
                            	    72: *	ANDI.b	#$FE,CCR		* clear carry, flag we not got byte
                            	    73: *					* done by ORI.b
00:00000710 4E75            	    74: 	RTS
                            	    75: 
                            	    76: RETCHR
00:00000712 7005            	    77: 	moveq	#5,d0			* get byte
00:00000714 4E4F            	    78: 	trap	#15			* do I/O function
00:00000716 1001            	    79: 	move.b	d1,d0			* copy byte
00:00000718 221F            	    80: 	move.l	(sp)+,d1		* restore d1
00:0000071A 00000000        	    81: 	ORI.b	#$00,d0			* set z flag on received byte
00:0000071E 003C0001        	    82: 	ORI.b	#1,CCR			* set carry, flag we got a byte
00:00000722 4E75            	    83: 	RTS
                            	    84: 
                            	    85: * LOAD routine for the Easy68k simulator
                            	    86: 
                            	    87: VEC_LD
00:00000724 534D            	    88: 	SUBQ.w	#1,a5				* decrement execute pointer
00:00000726 61000DEE        	    89: 	BSR		LAB_GVAL			* get value from line
00:0000072A 4A2B05B5        	    90: 	TST.b		Dtypef(a3)			* test data type flag
00:0000072E 6A000266        	    91: 	BPL		LAB_TMER			* if type is not string do type mismatch error
                            	    92: 
00:00000732 61001640        	    93: 	BSR		LAB_22B6			* pop string off descriptor stack or from memory
                            	    94: 							* returns with d0 = length, a0 = pointer
00:00000736 6700027E        	    95: 	BEQ		LAB_FCER			* if null do function call error then warm start
                            	    96: 
00:0000073A 2248            	    97: 	MOVEA.l	a0,a1			* copy filename pointer
00:0000073C D0C0            	    98: 	ADDA.w	d0,a0			* add length to find end of string
00:0000073E 1F10            	    99: 	move.b	(a0),-(sp)		* save byte
00:00000740 2F08            	   100: 	move.l	a0,-(sp)		* save address
00:00000742 7000            	   101: 	moveq	#0,d0			* set for null
00:00000744 1080            	   102: 	move.b	d0,(a0)			* null terminate string
00:00000746 303C0033        	   103: 	MOVE	#51,d0			* open existing file
00:0000074A 4E4F            	   104: 	trap	#15			* do I/O function
00:0000074C 4A40            	   105: 	TST.w	d0			* test load result
00:0000074E 66000038        	   106: 	BNE	LOAD_exit		* if error clear up and exit
                            	   107: 
00:00000752 274105EC        	   108: 	move.l	d1,file_id(a3)		* save file ID
00:00000756 43EB05EB        	   109: 	lea	file_byte(a3),a1	* point to byte buffer
00:0000075A 7401            	   110: 	moveq	#1,d2			* set byte count
00:0000075C 7035            	   111: 	moveq	#53,d0			* read first byte from file
00:0000075E 4E4F            	   112: 	trap	#15			* do I/O function
                            	   113: 
00:00000760 4A40            	   114: 	TST.w	d0			* test status
00:00000762 66000020        	   115: 	BNE	LOAD_close		* if error close files & exit
                            	   116: 
00:00000766 7400            	   117: 	moveq	#0,d2			* file position
00:00000768 7037            	   118: 	moveq	#55,d0			* reset file position
00:0000076A 4E4F            	   119: 	trap	#15			* do I/O function
                            	   120: 
00:0000076C 1011            	   121: 	move.b	(a1),d0			* get first file byte
00:0000076E 66000024        	   122: 	BNE	LOAD_ascii		* if first byte not $00 go do ASCII load
                            	   123: 
                            	   124: 					* do binary load
00:00000772 226B042E        	   125: 	MOVEA.l	Smeml(a3),a1		* get start of program memory
00:00000776 343C7FFF        	   126: 	MOVE.w	#$7FFF,d2		* set to $7FFF (max read length)
00:0000077A 7035            	   127: 	moveq	#53,d0			* read from file
00:0000077C 4E4F            	   128: 	trap	#15			* do I/O function
                            	   129: 
00:0000077E D489            	   130: 	ADD.l	a1,d2			* add start of memory to loaded program length
00:00000780 27420432        	   131: 	move.l	d2,Sfncl(a3)		* save end of program
                            	   132: 
                            	   133: LOAD_close
00:00000784 7032            	   134: 	moveq		#50,d0			* close all files
00:00000786 4E4F            	   135: 	trap		#15				* do I/O function
                            	   136: 
                            	   137: LOAD_exit
00:00000788 205F            	   138: 	MOVEA.l	(sp)+,a0			* get string end back
00:0000078A 109F            	   139: 	move.b	(sp)+,(a0)			* put byte back
00:0000078C 6100049E        	   140: 	BSR	LAB_147A			* go do "CLEAR"
00:00000790 60000260        	   141: 	BRA	LAB_1274			* BASIC warm start entry, go wait for Basic
                            	   142: 						* command
                            	   143: 
                            	   144: * is ASCII file so just change the input vector
                            	   145: 
                            	   146: LOAD_ascii
00:00000794 43FA000E        	   147: 	lea	(LOAD_in,PC),a1		* get byte from file vector
00:00000798 2749040E        	   148: 	move.l	a1,V_INPTv(a3)		* set input vector
00:0000079C 205F            	   149: 	MOVEA.l	(sp)+,a0		* get string end back
00:0000079E 109F            	   150: 	move.b	(sp)+,(a0)		* put byte back
00:000007A0 60000258        	   151: 	BRA	LAB_127D		* now we just wait for Basic command, no "Ready"
                            	   152: 
                            	   153: * input character to register d0 from file
                            	   154: 
                            	   155: LOAD_in
00:000007A4 48E76040        	   156: 	movem.l	d1-d2/a1,-(sp)		* save d1, d2 & a1
00:000007A8 222B05EC        	   157: 	move.l	file_id(a3),d1		* get file ID back
00:000007AC 43EB05EB        	   158: 	lea		file_byte(a3),a1		* point to byte buffer
00:000007B0 7401            	   159: 	moveq		#1,d2				* set count for one byte
00:000007B2 7035            	   160: 	moveq		#53,d0			* read from file
00:000007B4 4E4F            	   161: 	trap		#15				* do I/O function
                            	   162: 
00:000007B6 4A40            	   163: 	TST.w		d0				* test status
00:000007B8 6600000E        	   164: 	BNE		LOAD_eof			* branch if byte read failed
                            	   165: 
00:000007BC 1011            	   166: 	move.b	(a1),d0			* get byte
00:000007BE 4CDF0206        	   167: 	movem.l	(sp)+,d1-d2/a1		* restore d1, d2 & a1
00:000007C2 003C0001        	   168: 	ORI.b		#1,CCR			* set carry, flag we got a byte
00:000007C6 4E75            	   169: 	RTS
                            	   170: 							* got an error on read so restore the input
                            	   171: 							* vector and tidy up
                            	   172: LOAD_eof
00:000007C8 7032            	   173: 	moveq		#50,d0			* close all files
00:000007CA 4E4F            	   174: 	trap		#15				* do I/O function
                            	   175: 
00:000007CC 43FAFF32        	   176: 	lea		(VEC_IN,PC),a1		* get byte from input device vector
00:000007D0 2749040E        	   177: 	move.l	a1,V_INPTv(a3)		* set input vector
00:000007D4 7000            	   178: 	moveq		#0,d0				* clear byte
00:000007D6 4CDF0206        	   179: 	movem.l	(sp)+,d1-d2/a1		* restore d1, d2 & a1
00:000007DA 61000450        	   180: 	BSR		LAB_147A			* do CLEAR, erase variables/functions and
                            	   181: 							* flush stacks
00:000007DE 60000212        	   182: 	BRA		LAB_1274			* BASIC warm start entry, go wait for Basic
                            	   183: 							* command
                            	   184: 
                            	   185: * SAVE routine for the Easy68k simulator
                            	   186: 
                            	   187: VEC_SV
00:000007E2 534D            	   188: 	SUBQ.w	#1,a5				* decrement execute pointer
00:000007E4 61000D30        	   189: 	BSR		LAB_GVAL			* get value from line
00:000007E8 4A2B05B5        	   190: 	TST.b		Dtypef(a3)			* test data type flag
00:000007EC 6A0001A8        	   191: 	BPL		LAB_TMER			* if type is not string do type mismatch error
                            	   192: 
00:000007F0 61000D7A        	   193: 	BSR		LAB_GBYT			* get next BASIC byte
00:000007F4 6700005A        	   194: 	BEQ		SAVE_bas			* branch if no following
                            	   195: 
00:000007F8 B03C002C        	   196: 	CMP.b		#',',d0			* compare with ","
00:000007FC 660001C4        	   197: 	BNE		LAB_SNER			* not "," so go do syntax error/warm start
                            	   198: 
00:00000800 61000D68        	   199: 	BSR		LAB_IGBY			* increment & scan memory
00:00000804 00000020        	   200: 	ORI.b		#$20,d0			* ensure lower case
00:00000808 B03C0061        	   201: 	CMP.b		#'a',d0			* compare with "a"
00:0000080C 660001B4        	   202: 	BNE		LAB_SNER			* not "a" so go do syntax error/warm start
                            	   203: 
00:00000810 61001562        	   204: 	BSR		LAB_22B6			* pop string off descriptor stack or from memory
                            	   205: 							* returns with d0 = length, a0 = pointer
00:00000814 670001A0        	   206: 	BEQ		LAB_FCER			* if null do function call error then warm start
                            	   207: 
00:00000818 2248            	   208: 	MOVEA.l	a0,a1				* copy filename pointer
00:0000081A D0C0            	   209: 	ADDA.w	d0,a0				* add length to find end of string
00:0000081C 1F10            	   210: 	move.b	(a0),-(sp)			* save byte
00:0000081E 2F08            	   211: 	move.l	a0,-(sp)			* save address
00:00000820 7000            	   212: 	moveq		#0,d0				* set for null
00:00000822 1080            	   213: 	move.b	d0,(a0)			* null terminate string
00:00000824 303C0034        	   214: 	MOVE		#52,d0			* open new file
00:00000828 4E4F            	   215: 	trap		#15				* do I/O function
00:0000082A 4A40            	   216: 	TST.w		d0				* test save result
00:0000082C 66000054        	   217: 	BNE		SAVE_exit			* if error clear up and exit
                            	   218: 
00:00000830 274105EC        	   219: 	move.l	d1,file_id(a3)		* save file ID
                            	   220: 
00:00000834 2F2B0414        	   221: 	move.l	V_OUTPv(a3),-(sp)		* save the output vector
00:00000838 43FA0054        	   222: 	lea		(SAVE_OUT,PC),a1		* send byte to file vector
00:0000083C 27490414        	   223: 	move.l	a1,V_OUTPv(a3)		* change output vector
                            	   224: 
00:00000840 61000D28        	   225: 	BSR		LAB_IGBY			* increment & scan memory
00:00000844 61000422        	   226: 	BSR		LAB_LIST			* go do list (line numbers applicable)
                            	   227: 
00:00000848 275F0414        	   228: 	move.l	(sp)+,V_OUTPv(a3)		* restore the output vector
00:0000084C 60000030        	   229: 	BRA		SAVE_close
                            	   230: 
                            	   231: SAVE_bas
00:00000850 61001522        	   232: 	BSR		LAB_22B6			* pop string off descriptor stack or from memory
                            	   233: 							* returns with d0 = length, a0 = pointer
00:00000854 67000160        	   234: 	BEQ		LAB_FCER			* if null do Function call error then warm start
                            	   235: 
00:00000858 2248            	   236: 	MOVEA.l	a0,a1				* copy filename pointer
00:0000085A D0C0            	   237: 	ADDA.w	d0,a0				* add length to find end of string
00:0000085C 1F10            	   238: 	move.b	(a0),-(sp)			* save byte
00:0000085E 2F08            	   239: 	move.l	a0,-(sp)			* save address
00:00000860 7000            	   240: 	moveq		#0,d0				* set for null
00:00000862 1080            	   241: 	move.b	d0,(a0)			* null terminate string
00:00000864 303C0034        	   242: 	MOVE		#52,d0			* open new file
00:00000868 4E4F            	   243: 	trap		#15				* do I/O function
00:0000086A 4A40            	   244: 	TST.w		d0				* test save result
00:0000086C 66000014        	   245: 	BNE		SAVE_exit			* if error clear up and exit
                            	   246: 
00:00000870 226B042E        	   247: 	MOVEA.l	Smeml(a3),a1		* get start of program
00:00000874 242B0432        	   248: 	move.l	Sfncl(a3),d2		* get end of program
00:00000878 9489            	   249: 	SUB.l		a1,d2				* subtract start of program (= length)
                            	   250: 
00:0000087A 7036            	   251: 	moveq		#54,d0			* write to file
00:0000087C 4E4F            	   252: 	trap		#15				* do I/O function
                            	   253: 
                            	   254: SAVE_close
00:0000087E 7032            	   255: 	moveq		#50,d0			* close all files
00:00000880 4E4F            	   256: 	trap		#15				* do I/O function
                            	   257: 
                            	   258: SAVE_exit
00:00000882 205F            	   259: 	MOVEA.l	(sp)+,a0			* get string end back
00:00000884 109F            	   260: 	move.b	(sp)+,(a0)			* put byte back
00:00000886 4A40            	   261: 	TST.w		d0				* test save result
00:00000888 6600012C        	   262: 	BNE		LAB_FCER			* if error do function call error, warm start
                            	   263: 
00:0000088C 4E75            	   264: 	RTS
                            	   265: 
                            	   266: * output character to file from register d0
                            	   267: 
                            	   268: SAVE_OUT
00:0000088E 48E7E040        	   269: 	movem.l	d0-d2/a1,-(sp)		* save d0, d1, d2 & a1
00:00000892 222B05EC        	   270: 	move.l	file_id(a3),d1		* get file ID back
00:00000896 43EB05EB        	   271: 	lea	file_byte(a3),a1	* point to byte buffer
00:0000089A 1280            	   272: 	move.b	d0,(a1)			* save byte
00:0000089C 7401            	   273: 	moveq	#1,d2			* set byte count
00:0000089E 7036            	   274: 	moveq	#54,d0			* write to file
00:000008A0 4E4F            	   275: 	trap	#15			* do I/O function
00:000008A2 4CDF0207        	   276: 	movem.l	(sp)+,d0-d2/a1		* restore d0, d1, d2 & a1
00:000008A6 4E75            	   277: 	RTS
                            	   278: 
                            	   279: ****************************************************************************************
                            	   280: ****************************************************************************************
                            	   281: ****************************************************************************************
                            	   282: ****************************************************************************************
                            	   283: *
                            	   284: * Register use :- (must improve this !!)
                            	   285: *
                            	   286: *	a6 -	temp Bpntr				* temporary BASIC execute pointer
                            	   287: *	a5 -	Bpntr					* BASIC execute (get byte) pointer
                            	   288: *	a4 -	des_sk				* descriptor stack pointer
                            	   289: *	a3 -	ram_strt				* start of RAM. all RAM references are offsets
                            	   290: *							* from this value
                            	   291: *	a2 -	general purpose
                            	   292: *	a1 -	general purpose
                            	   293: *	a0 -	general purpose
                            	   294: *
                            	   295: *	d7 -	FAC1 mantissa			* to do
                            	   296: *	d6 -	FAC1 sign & exponent		* to do
                            	   297: *	d5 -	FAC2 mantissa			* to do
                            	   298: *	d4 -	FAC2 sign & exponent		* to do
                            	   299: *	d3 -	BASIC got byte			* to do
                            	   300: *	d2 -
                            	   301: *	d1 -	general purpose
                            	   302: *	d0 -	general purpose
                            	   303: *
                            	   304: 
                            	   305: * turn off simulator key echo
                            	   306: 
                            	   307: code_start
                            	   308: 	;moveq		#12,d0			* keyboard echo
                            	   309: 	;moveq		#0,d1			* turn off echo
                            	   310: 	;trap		#15			* do I/O function
                            	   311: 
                            	   312: * end of simulator specific code
                            	   313: 
                            	   314: * BASIC cold start entry point. assume entry with RAM address in a0 and RAM length
                            	   315: * in d0, for now we fake that with these extra move instructions
                            	   316: 
00:000008A8 207C00040000    	   317: 	MOVEA.l	#$40000,a0			* tell BASIC where RAM is
00:000008AE 203C00040000    	   318: 	move.l	#ram_top,d0			* tell BASIC how big RAM is
                            	   319: 
                            	   320: LAB_COLD
00:000008B4 B0BC00004000    	   321: 	CMP.l		#$4000,d0			* compare size with 16k
00:000008BA 6C04            	   322: 	BGE.s		LAB_sizok			* branch if >= 16k
                            	   323: 
00:000008BC 7005            	   324: 	moveq		#5,d0				* error 5 - not enough RAM
00:000008BE 4E75            	   325: 	RTS						* just exit. this as stands will never execute
                            	   326: 							* but could be used to exit to an OS
                            	   327: 
                            	   328: LAB_sizok
00:000008C0 2648            	   329: 	MOVEA.l	a0,a3				* copy RAM base to a3
00:000008C2 D1C0            	   330: 	ADDA.l	d0,a0				* a0 is top of RAM
00:000008C4 2748044A        	   331: 	move.l	a0,Ememl(a3)		* set end of mem
00:000008C8 4FEB0400        	   332: 	lea		ram_base(a3),sp		* set stack to RAM start + 1k
                            	   333: 
00:000008CC 303C4EF9        	   334: 	MOVE.w	#$4EF9,d0			* JMP opcode
00:000008D0 204F            	   335: 	MOVEA.l	sp,a0				* point to start of vector table
                            	   336: 
00:000008D2 30C0            	   337: 	MOVE.w	d0,(a0)+			* LAB_WARM
00:000008D4 43FAFFDE        	   338: 	lea		(LAB_COLD,PC),a1		* initial warm start vector
00:000008D8 20C9            	   339: 	move.l	a1,(a0)+			* set vector
                            	   340: 
00:000008DA 30C0            	   341: 	MOVE.w	d0,(a0)+			* Usrjmp
00:000008DC 43FA00D8        	   342: 	lea		(LAB_FCER,PC),a1		* initial user function vector
                            	   343: 							* "Function call" error
00:000008E0 20C9            	   344: 	move.l	a1,(a0)+			* set vector
                            	   345: 
00:000008E2 30C0            	   346: 	MOVE.w	d0,(a0)+			* V_INPT JMP opcode
00:000008E4 43FAFE1A        	   347: 	lea	(VEC_IN,PC),a1			* get byte from input device vector
00:000008E8 20C9            	   348: 	move.l	a1,(a0)+			* set vector
                            	   349: 
00:000008EA 30C0            	   350: 	MOVE.w	d0,(a0)+			* V_OUTP JMP opcode
00:000008EC 43FAFE02        	   351: 	lea		(VEC_OUT,PC),a1		* send byte to output device vector
00:000008F0 20C9            	   352: 	move.l	a1,(a0)+			* set vector
                            	   353: 
00:000008F2 30C0            	   354: 	MOVE.w	d0,(a0)+			* V_LOAD JMP opcode
00:000008F4 43FAFE2E        	   355: 	lea		(VEC_LD,PC),a1		* load BASIC program vector
00:000008F8 20C9            	   356: 	move.l	a1,(a0)+			* set vector
                            	   357: 
00:000008FA 30C0            	   358: 	MOVE.w	d0,(a0)+			* V_SAVE JMP opcode
00:000008FC 43FAFEE4        	   359: 	lea		(VEC_SV,PC),a1		* save BASIC program vector
00:00000900 20C9            	   360: 	move.l	a1,(a0)+			* set vector
                            	   361: 
00:00000902 30C0            	   362: 	MOVE.w	d0,(a0)+			* V_CTLC JMP opcode
00:00000904 43FA2268        	   363: 	lea		(VEC_CC,PC),a1		* save CTRL-C check vector
00:00000908 20C9            	   364: 	move.l	a1,(a0)+			* set vector
                            	   365: 
                            	   366: * set-up start values
                            	   367: 
                            	   368: *##LAB_GMEM
00:0000090A 7000            	   369: 	moveq	#$00,d0			* clear d0
00:0000090C 174005E4        	   370: 	move.b	d0,Nullct(a3)		* default NULL count
00:00000910 174005E5        	   371: 	move.b	d0,TPos(a3)		* clear terminal position
00:00000914 174005E8        	   372: 	move.b	d0,ccflag(a3)		* allow CTRL-C check
00:00000918 374005F0        	   373: 	MOVE.w	d0,prg_strt-2(a3)	* clear start word
00:0000091C 374005D6        	   374: 	MOVE.w	d0,BHsend(a3)		* clear value to string end word
                            	   375: 
00:00000920 177C005005E6    	   376: 	move.b	#$50,TWidth(a3)		* default terminal width byte for simulator *##
                            	   377: *##	move.b	d0,TWidth(a3)		* default terminal width byte
                            	   378: 
00:00000926 177C000E05E2    	   379: 	move.b	#$0E,TabSiz(a3)		* save default tab size = 14
                            	   380: 
00:0000092C 177C003805E7    	   381: 	move.b	#$38,Iclim(a3)		* default limit for TAB = 14 for simulator *##
                            	   382: *##	move.b	#$F2,Iclim(a3)		* default limit for TAB = 14
                            	   383: 
00:00000932 49EB048E        	   384: 	lea		des_sk(a3),a4		* set descriptor stack start
                            	   385: 
00:00000936 41EB05F2        	   386: 	lea		prg_strt(a3),a0		* get start of mem
00:0000093A 2748042E        	   387: 	move.l	a0,Smeml(a3)		* save start of mem
                            	   388: 
00:0000093E 610002DA        	   389: 	BSR		LAB_1463			* do "NEW" and "CLEAR"
00:00000942 610007FA        	   390: 	BSR		LAB_CRLF			* print CR/LF
00:00000946 202B044A        	   391: 	move.l	Ememl(a3),d0		* get end of mem
00:0000094A 90AB042E        	   392: 	SUB.l		Smeml(a3),d0		* subtract start of mem
                            	   393: 
00:0000094E 61001B3C        	   394: 	BSR		LAB_295E			* print d0 as unsigned integer (bytes free)
00:00000952 41FA3004        	   395: 	lea		(LAB_SMSG,PC),a0		* point to start message
00:00000956 61000844        	   396: 	BSR		LAB_18C3			* print null terminated string from memory
                            	   397: 
00:0000095A 41FA261E        	   398: 	lea		(LAB_RSED,PC),a0		* get pointer to value
00:0000095E 610019D6        	   399: 	BSR		LAB_UFAC			* unpack memory (a0) into FAC1
                            	   400: 
00:00000962 41FA008E        	   401: 	lea		(LAB_1274,PC),a0		* get warm start vector
00:00000966 27480402        	   402: 	move.l	a0,Wrmjpv(a3)		* set warm start vector
00:0000096A 61001F4C        	   403: 	BSR		LAB_RND			* initialise
00:0000096E 4EEB0400        	   404: 	JMP		LAB_WARM(a3)		* go do warm start
                            	   405: 
                            	   406: * do address error
                            	   407: 
                            	   408: LAB_ADER
00:00000972 7E2A            	   409: 	moveq		#$2A,d7			* error code $2A "Address" error
00:00000974 6052            	   410: 	BRA.s		LAB_XERR			* do error #d7, then warm start
                            	   411: 
                            	   412: * do wrong dimensions error
                            	   413: 
                            	   414: LAB_WDER
00:00000976 7E28            	   415: 	moveq		#$28,d7			* error code $28 "Wrong dimensions" error
00:00000978 604E            	   416: 	BRA.s		LAB_XERR			* do error #d7, then warm start
                            	   417: 
                            	   418: * do undimensioned array error
                            	   419: 
                            	   420: LAB_UDER
00:0000097A 7E26            	   421: 	moveq		#$26,d7			* error code $26 "undimensioned array" error
00:0000097C 604A            	   422: 	BRA.s		LAB_XERR			* do error #d7, then warm start
                            	   423: 
                            	   424: * do undefined variable error
                            	   425: 
                            	   426: LAB_UVER
00:0000097E 7E24            	   427: 	moveq		#$24,d7			* error code $24 "undefined variable" error
00:00000980 6046            	   428: 	BRA.s		LAB_XERR			* do error #X then warm start
                            	   429: 
                            	   430: * if you want undefined variables to return 0 (or "") then comment out the above
                            	   431: * two lines and uncomment these two
                            	   432: *
                            	   433: * value returned by this is either numeric zero (exponent byte is $00) or null string
                            	   434: * (string pointer is $00). in fact a pointer to any $00 longword would have done.
                            	   435: *
                            	   436: *	lea	(LAB_1D96,PC),a0			* else return dummy null pointer
                            	   437: *	RTS
                            	   438: 
                            	   439: * do loop without do error
                            	   440: 
                            	   441: LAB_LDER
00:00000982 7E22            	   442: 	moveq		#$22,d7			* error code $22 "LOOP without DO" error
00:00000984 6042            	   443: 	BRA.s		LAB_XERR			* do error #d7, then warm start
                            	   444: 
                            	   445: * do undefined function error
                            	   446: 
                            	   447: LAB_UFER
00:00000986 7E20            	   448: 	moveq		#$20,d7			* error code $20 "Undefined function" error
00:00000988 603E            	   449: 	BRA.s		LAB_XERR			* do error #d7, then warm start
                            	   450: 
                            	   451: * do can't continue error
                            	   452: 
                            	   453: LAB_CCER
00:0000098A 7E1E            	   454: 	moveq		#$1E,d7			* error code $1E "Can't continue" error
00:0000098C 603A            	   455: 	BRA.s		LAB_XERR			* do error #d7, then warm start
                            	   456: 
                            	   457: * do string too complex error
                            	   458: 
                            	   459: LAB_SCER
00:0000098E 7E1C            	   460: 	moveq		#$1C,d7			* error code $1C "String too complex" error
00:00000990 6036            	   461: 	BRA.s		LAB_XERR			* do error #d7, then warm start
                            	   462: 
                            	   463: * do string too long error
                            	   464: 
                            	   465: LAB_SLER
00:00000992 7E1A            	   466: 	moveq		#$1A,d7			* error code $1A "String too long" error
00:00000994 6032            	   467: 	BRA.s		LAB_XERR			* do error #d7, then warm start
                            	   468: 
                            	   469: * do type missmatch error
                            	   470: 
                            	   471: LAB_TMER
00:00000996 7E18            	   472: 	moveq		#$18,d7			* error code $18 "Type mismatch" error
00:00000998 602E            	   473: 	BRA.s		LAB_XERR			* do error #d7, then warm start
                            	   474: 
                            	   475: * do illegal direct error
                            	   476: 
                            	   477: LAB_IDER
00:0000099A 7E16            	   478: 	moveq		#$16,d7			* error code $16 "Illegal direct" error
00:0000099C 602A            	   479: 	BRA.s		LAB_XERR			* do error #d7, then warm start
                            	   480: 
                            	   481: * do divide by zero error
                            	   482: 
                            	   483: LAB_DZER
00:0000099E 7E14            	   484: 	moveq		#$14,d7			* error code $14 "Divide by zero" error
00:000009A0 6026            	   485: 	BRA.s		LAB_XERR			* do error #d7, then warm start
                            	   486: 
                            	   487: * do double dimension error
                            	   488: 
                            	   489: LAB_DDER
00:000009A2 7E12            	   490: 	moveq		#$12,d7			* error code $12 "Double dimension" error
00:000009A4 6022            	   491: 	BRA.s		LAB_XERR			* do error #d7, then warm start
                            	   492: 
                            	   493: * do array bounds error
                            	   494: 
                            	   495: LAB_ABER
00:000009A6 7E10            	   496: 	moveq		#$10,d7			* error code $10 "Array bounds" error
00:000009A8 601E            	   497: 	BRA.s		LAB_XERR			* do error #d7, then warm start
                            	   498: 
                            	   499: * do undefine satement error
                            	   500: 
                            	   501: LAB_USER
00:000009AA 7E0E            	   502: 	moveq		#$0E,d7			* error code $0E "Undefined statement" error
00:000009AC 601A            	   503: 	BRA.s		LAB_XERR			* do error #d7, then warm start
                            	   504: 
                            	   505: * do out of memory error
                            	   506: 
                            	   507: LAB_OMER
00:000009AE 7E0C            	   508: 	moveq		#$0C,d7			* error code $0C "Out of memory" error
00:000009B0 6016            	   509: 	BRA.s		LAB_XERR			* do error #d7, then warm start
                            	   510: 
                            	   511: * do overflow error
                            	   512: 
                            	   513: LAB_OFER
00:000009B2 7E0A            	   514: 	moveq		#$0A,d7			* error code $0A "Overflow" error
00:000009B4 6012            	   515: 	BRA.s		LAB_XERR			* do error #d7, then warm start
                            	   516: 
                            	   517: * do function call error
                            	   518: 
                            	   519: LAB_FCER
00:000009B6 7E08            	   520: 	moveq		#$08,d7			* error code $08 "Function call" error
00:000009B8 600E            	   521: 	BRA.s		LAB_XERR			* do error #d7, then warm start
                            	   522: 
                            	   523: * do out of data error
                            	   524: 
                            	   525: LAB_ODER
00:000009BA 7E06            	   526: 	moveq		#$06,d7			* error code $06 "Out of DATA" error
00:000009BC 600A            	   527: 	BRA.s		LAB_XERR			* do error #d7, then warm start
                            	   528: 
                            	   529: * do return without gosub error
                            	   530: 
                            	   531: LAB_RGER
00:000009BE 7E04            	   532: 	moveq		#$04,d7			* error code $04 "RETURN without GOSUB" error
00:000009C0 6006            	   533: 	BRA.s		LAB_XERR			* do error #d7, then warm start
                            	   534: 
                            	   535: * do syntax error
                            	   536: 
                            	   537: LAB_SNER
00:000009C2 7E02            	   538: 	moveq		#$02,d7			* error code $02 "Syntax" error
00:000009C4 6002            	   539: 	BRA.s		LAB_XERR			* do error #d7, then warm start
                            	   540: 
                            	   541: * do next without for error
                            	   542: 
                            	   543: LAB_NFER
00:000009C6 7E00            	   544: 	moveq		#$00,d7			* error code $00 "NEXT without FOR" error
                            	   545: 
                            	   546: * do error #d7, then warm start
                            	   547: 
                            	   548: LAB_XERR
00:000009C8 61000282        	   549: 	BSR		LAB_1491			* flush stack & clear continue flag
00:000009CC 61000770        	   550: 	BSR		LAB_CRLF			* print CR/LF
00:000009D0 43FA2C24        	   551: 	lea		(LAB_BAER,PC),a1		* start of error message pointer table
00:000009D4 3E317000        	   552: 	MOVE.w	(a1,d7.w),d7		* get error message offset
00:000009D8 41F17000        	   553: 	lea		(a1,d7.w),a0		* get error message address
00:000009DC 610007BE        	   554: 	BSR		LAB_18C3			* print null terminated string from memory
00:000009E0 41FA2F39        	   555: 	lea		(LAB_EMSG,PC),a0		* point to " Error" message
                            	   556: LAB_1269
00:000009E4 610007B6        	   557: 	BSR		LAB_18C3			* print null terminated string from memory
00:000009E8 202B0452        	   558: 	move.l	Clinel(a3),d0		* get current line
00:000009EC 6B04            	   559: 	BMI.s		LAB_1274			* go do warm start if -ve # (was immediate mode)
                            	   560: 
                            	   561: 							* else print line number
00:000009EE 61001A90        	   562: 	BSR		LAB_2953			* print " in line [LINE #]"
                            	   563: 
                            	   564: * BASIC warm start entry point, wait for Basic command
                            	   565: 
                            	   566: LAB_1274
00:000009F2 41FA2F5A        	   567: 	lea		(LAB_RMSG,PC),a0		* point to "Ready" message
00:000009F6 610007A4        	   568: 	BSR		LAB_18C3			* go do print string
                            	   569: 
                            	   570: * wait for Basic command - no "Ready"
                            	   571: 
                            	   572: LAB_127D
00:000009FA 72FF            	   573: 	moveq		#-1,d1			* set to -1
00:000009FC 27410452        	   574: 	move.l	d1,Clinel(a3)		* set current line #
00:00000A00 174105DC        	   575: 	move.b	d1,Breakf(a3)		* set break flag
00:00000A04 4BEB0490        	   576: 	lea		Ibuffs(a3),a5		* set basic execute pointer ready for new line
                            	   577: LAB_127E
00:00000A08 610000E0        	   578: 	BSR		LAB_1357			* call for BASIC input
00:00000A0C 61000B5E        	   579: 	BSR		LAB_GBYT			* scan memory
00:00000A10 67F6            	   580: 	BEQ.s		LAB_127E			* loop while null
                            	   581: 
                            	   582: * got to interpret input line now ....
                            	   583: 
00:00000A12 6508            	   584: 	BCS.s		LAB_1295			* branch if numeric character, handle new
                            	   585: 							* BASIC line
                            	   586: 
                            	   587: 							* no line number so do immediate mode, a5
                            	   588: 							* points to the buffer start
00:00000A14 61000116        	   589: 	BSR		LAB_13A6			* crunch keywords into Basic tokens
                            	   590: 							* crunch from (a5), output to (a0)
                            	   591: 							* returns ..
                            	   592: 							* d2 is length, d1 trashed, d0 trashed,
                            	   593: 							* a1 trashed
00:00000A18 60000370        	   594: 	BRA		LAB_15F6			* go scan & interpret code
                            	   595: 
                            	   596: * handle new BASIC line
                            	   597: 
                            	   598: LAB_1295
00:00000A1C 610005A0        	   599: 	BSR		LAB_GFPN			* get fixed-point number into temp integer & d1
00:00000A20 6100010A        	   600: 	BSR		LAB_13A6			* crunch keywords into Basic tokens
                            	   601: 							* crunch from (a5), output to (a0)
                            	   602: 							* returns .. d2 is length,
                            	   603: 							* d1 trashed, d0 trashed, a1 trashed
00:00000A24 222B042A        	   604: 	move.l	Itemp(a3),d1		* get required line #
00:00000A28 610001D4        	   605: 	BSR		LAB_SSLN			* search BASIC for d1 line number
                            	   606: 							* returns pointer in a0
00:00000A2C 6532            	   607: 	BCS.s		LAB_12E6			* branch if not found
                            	   608: 
                            	   609: 							* aroooogah! line # already exists! delete it
00:00000A2E 2250            	   610: 	MOVEA.l	(a0),a1			* get start of block (next line pointer)
00:00000A30 202B0432        	   611: 	move.l	Sfncl(a3),d0		* get end of block (start of functions)
00:00000A34 9089            	   612: 	SUB.l		a1,d0				* subtract start of block ( = bytes to move)
00:00000A36 E288            	   613: 	LSR.l		#1,d0				* /2 (word move)
00:00000A38 5340            	   614: 	SUBQ.w	#1,d0				* adjust for DBF loop
00:00000A3A 4840            	   615: 	SWAP		d0				* swap high word to low word
00:00000A3C 2448            	   616: 	MOVEA.l	a0,a2				* copy destination
                            	   617: LAB_12AE
00:00000A3E 4840            	   618: 	SWAP		d0				* swap high word to low word
                            	   619: LAB_12B0
00:00000A40 34D9            	   620: 	MOVE.w	(a1)+,(a2)+			* copy word
00:00000A42 51C8FFFC        	   621: 	DBF		d0,LAB_12B0			* decrement low count and loop until done
                            	   622: 
00:00000A46 4840            	   623: 	SWAP		d0				* swap high word to low word
00:00000A48 51C8FFF4        	   624: 	DBF		d0,LAB_12AE			* decrement high count and loop until done
                            	   625: 
00:00000A4C 274A0432        	   626: 	move.l	a2,Sfncl(a3)		* start of functions
00:00000A50 274A0436        	   627: 	move.l	a2,Svarl(a3)		* save start of variables
00:00000A54 274A043A        	   628: 	move.l	a2,Sstrl(a3)		* start of strings
00:00000A58 274A043E        	   629: 	move.l	a2,Sarryl(a3)		* save start of arrays
00:00000A5C 274A0442        	   630: 	move.l	a2,Earryl(a3)		* save end of arrays
                            	   631: 
                            	   632: 							* got new line in buffer and no existing same #
                            	   633: LAB_12E6
00:00000A60 102B0490        	   634: 	move.b	Ibuffs(a3),d0		* get byte from start of input buffer
00:00000A64 6764            	   635: 	BEQ.s		LAB_1325			* if null line go do line chaining
                            	   636: 
                            	   637: 							* got new line and it isn't empty line
00:00000A66 226B0432        	   638: 	MOVEA.l	Sfncl(a3),a1		* get start of functions (end of block to move)
00:00000A6A 45F12008        	   639: 	lea		8(a1,d2),a2			* copy it, add line length and add room for
                            	   640: 							* pointer and line number
                            	   641: 
00:00000A6E 274A0432        	   642: 	move.l	a2,Sfncl(a3)		* start of functions
00:00000A72 274A0436        	   643: 	move.l	a2,Svarl(a3)		* save start of variables
00:00000A76 274A043A        	   644: 	move.l	a2,Sstrl(a3)		* start of strings
00:00000A7A 274A043E        	   645: 	move.l	a2,Sarryl(a3)		* save start of arrays
00:00000A7E 274A0442        	   646: 	move.l	a2,Earryl(a3)		* save end of arrays
00:00000A82 276B044A0446    	   647: 	move.l	Ememl(a3),Sstorl(a3)	* copy end of mem to start of strings, clear
                            	   648: 							* strings
                            	   649: 
00:00000A88 2209            	   650: 	move.l	a1,d1				* copy end of block to move
00:00000A8A 9288            	   651: 	SUB.l		a0,d1				* subtract start of block to move
00:00000A8C E289            	   652: 	LSR.l		#1,d1				* /2 (word copy)
00:00000A8E 5381            	   653: 	SUBQ.l	#1,d1				* correct for loop end on -1
00:00000A90 4841            	   654: 	SWAP		d1				* swap high word to low word
                            	   655: LAB_12FF
00:00000A92 4841            	   656: 	SWAP		d1				* swap high word to low word
                            	   657: LAB_1301
00:00000A94 3521            	   658: 	MOVE.w	-(a1),-(a2)			* decrement pointers and copy word
00:00000A96 51C9FFFC        	   659: 	DBF		d1,LAB_1301			* decrement & loop
                            	   660: 
00:00000A9A 4841            	   661: 	SWAP		d1				* swap high word to low word
00:00000A9C 51C9FFF4        	   662: 	DBF		d1,LAB_12FF			* decrement high count and loop until done
                            	   663: 
                            	   664: * space is opened up, now copy the crunched line from the input buffer into the space
                            	   665: 
00:00000AA0 43EB0490        	   666: 	lea		Ibuffs(a3),a1		* source is input buffer
00:00000AA4 2448            	   667: 	MOVEA.l	a0,a2				* copy destination
00:00000AA6 72FF            	   668: 	moveq		#-1,d1			* set to allow re-chaining
00:00000AA8 24C1            	   669: 	move.l	d1,(a2)+			* set next line pointer (allow re-chaining)
00:00000AAA 24EB042A        	   670: 	move.l	Itemp(a3),(a2)+		* save line number
00:00000AAE E24A            	   671: 	LSR.w		#1,d2				* /2 (word copy)
00:00000AB0 5342            	   672: 	SUBQ.w	#1,d2				* correct for loop end on -1
                            	   673: LAB_1303
00:00000AB2 34D9            	   674: 	MOVE.w	(a1)+,(a2)+			* copy word
00:00000AB4 51CAFFFC        	   675: 	DBF		d2,LAB_1303			* decrement & loop
                            	   676: 
00:00000AB8 6010            	   677: 	BRA.s		LAB_1325			* go test for end of prog
                            	   678: 
                            	   679: * rebuild chaining of Basic lines
                            	   680: 
                            	   681: LAB_132E
00:00000ABA 5048            	   682: 	ADDQ.w	#8,a0				* point to first code byte of line, there is
                            	   683: 							* always 1 byte + [EOL] as null entries are
                            	   684: 							* deleted
                            	   685: LAB_1330
00:00000ABC 4A18            	   686: 	TST.b		(a0)+				* test byte
00:00000ABE 66FC            	   687: 	BNE.s		LAB_1330			* loop if not [EOL]
                            	   688: 
                            	   689: 							* was [EOL] so get next line start
00:00000AC0 3208            	   690: 	MOVE.w	a0,d1				* past pad byte(s)
00:00000AC2 02410001        	   691: 	ANDI.w	#1,d1				* mask odd bit
00:00000AC6 D0C1            	   692: 	ADD.w		d1,a0				* add back to ensure even
00:00000AC8 2288            	   693: 	move.l	a0,(a1)			* save next line pointer to current line
                            	   694: LAB_1325
00:00000ACA 2248            	   695: 	MOVEA.l	a0,a1				* copy pointer for this line
00:00000ACC 4A90            	   696: 	TST.l		(a0)				* test pointer to next line
00:00000ACE 66EA            	   697: 	BNE.s		LAB_132E			* not end of program yet so we must
                            	   698: 							* go and fix the pointers
                            	   699: 
00:00000AD0 61000154        	   700: 	BSR		LAB_1477			* reset execution to start, clear variables
                            	   701: 							* and flush stack
00:00000AD4 6000FF24        	   702: 	BRA		LAB_127D			* now we just wait for Basic command, no "Ready"
                            	   703: 
                            	   704: * receive line from keyboard
                            	   705: 							* character $08 as delete key, BACKSPACE on
                            	   706: 							* standard keyboard
                            	   707: LAB_134B
00:00000AD8 610006DC        	   708: 	BSR		LAB_PRNA			* go print the character
00:00000ADC 5341            	   709: 	SUBQ.w	#$01,d1			* decrement the buffer index (delete)
00:00000ADE 6010            	   710: 	BRA.s		LAB_1359			* re-enter loop
                            	   711: 
                            	   712: * print "? " and get BASIC input
                            	   713: * return a0 pointing to the buffer start
                            	   714: 
                            	   715: LAB_INLN
00:00000AE0 610006D2        	   716: 	BSR		LAB_18E3			* print "?" character
00:00000AE4 7020            	   717: 	moveq		#' ',d0			* load " "
00:00000AE6 610006CE        	   718: 	BSR		LAB_PRNA			* go print
                            	   719: 
                            	   720: * call for BASIC input (main entry point)
                            	   721: * return a0 pointing to the buffer start
                            	   722: 
                            	   723: LAB_1357
00:00000AEA 7200            	   724: 	moveq		#$00,d1			* clear buffer index
00:00000AEC 41EB0490        	   725: 	lea		Ibuffs(a3),a0		* set buffer base pointer
                            	   726: LAB_1359
00:00000AF0 4EAB040C        	   727: 	JSR		V_INPT(a3)			* call scan input device
00:00000AF4 64FA            	   728: 	BCC.s		LAB_1359			* loop if no byte
                            	   729: 
00:00000AF6 67F8            	   730: 	BEQ.s		LAB_1359			* loop if null byte
                            	   731: 
00:00000AF8 B03C0007        	   732: 	CMP.b		#$07,d0			* compare with [BELL]
00:00000AFC 6718            	   733: 	BEQ.s		LAB_1378			* branch if [BELL]
                            	   734: 
00:00000AFE B03C000D        	   735: 	CMP.b		#$0D,d0			* compare with [CR]
00:00000B02 67000634        	   736: 	BEQ		LAB_1866			* do CR/LF exit if [CR]
                            	   737: 
00:00000B06 4A41            	   738: 	TST.w		d1				* set flags on buffer index
00:00000B08 6606            	   739: 	BNE.s		LAB_1374			* branch if not empty
                            	   740: 
                            	   741: 							* next two lines ignore any non print character
                            	   742: 							* & [SPACE] if the input buffer is empty
00:00000B0A B03C0021        	   743: 	CMP.b		#' '+1,d0			* compare with [SP]+1
00:00000B0E 65E0            	   744: 	BCS.s		LAB_1359			* if < ignore character
                            	   745: 
                            	   746: LAB_1374
00:00000B10 B03C0008        	   747: 	CMP.b		#$08,d0			* compare with [BACKSPACE]
00:00000B14 67C2            	   748: 	BEQ.s		LAB_134B			* go delete last character
                            	   749: 
                            	   750: LAB_1378
00:00000B16 B27C00FF        	   751: 	CMP.w	#(Ibuffe-Ibuffs-1),d1		* compare character count with max-1
00:00000B1A 640C            	   752: 	BCC.s		LAB_138E			* skip store & do [BELL] if buffer full
                            	   753: 
00:00000B1C 11801000        	   754: 	move.b	d0,(a0,d1.w)		* else store in buffer
00:00000B20 5241            	   755: 	ADDQ.w	#$01,d1			* increment index
                            	   756: LAB_137F
00:00000B22 61000692        	   757: 	BSR		LAB_PRNA			* go print the character
00:00000B26 60C8            	   758: 	BRA.s		LAB_1359			* always loop for next character
                            	   759: 
                            	   760: * announce buffer full
                            	   761: 
                            	   762: LAB_138E
00:00000B28 7007            	   763: 	moveq		#$07,d0			* [BELL] character into d0
00:00000B2A 60F6            	   764: 	BRA.s		LAB_137F			* go print the [BELL] but ignore input character
                            	   765: 
                            	   766: * crunch keywords into Basic tokens
                            	   767: * crunch from (a5), output to (a0)
                            	   768: * returns ..
                            	   769: * d4 trashed
                            	   770: * d3 trashed
                            	   771: * d2 is length
                            	   772: * d1 trashed
                            	   773: * d0 trashed
                            	   774: * a1 trashed
                            	   775: 
                            	   776: * this is the improved BASIC crunch routine and is 10 to 100 times faster than the
                            	   777: * old list search
                            	   778: 
                            	   779: LAB_13A6
00:00000B2C 7200            	   780: 	moveq		#$00,d1			* set read index
00:00000B2E 3401            	   781: 	MOVE.w	d1,d2				* set save index
00:00000B30 174105DD        	   782: 	move.b	d1,Oquote(a3)		* clear open quote/DATA flag
                            	   783: LAB_13AC
00:00000B34 7000            	   784: 	moveq		#0,d0				* clear word
00:00000B36 10351000        	   785: 	move.b	(a5,d1.w),d0		* get byte from input buffer
00:00000B3A 675A            	   786: 	BEQ.s		LAB_13EC			* if null save byte then continue crunching
                            	   787: 
00:00000B3C B03C005F        	   788: 	CMP.b		#'_',d0			* compare with "_"
00:00000B40 6454            	   789: 	BCC.s		LAB_13EC			* if >= "_" save byte then continue crunching
                            	   790: 
00:00000B42 B03C003C        	   791: 	CMP.b		#'<',d0			* compare with "<"
00:00000B46 6418            	   792: 	BCC.s		LAB_13CC			* if >= "<" go crunch
                            	   793: 
00:00000B48 B03C0030        	   794: 	CMP.b		#'0',d0			* compare with "0"
00:00000B4C 6448            	   795: 	BCC.s		LAB_13EC			* if >= "0" save byte then continue crunching
                            	   796: 
00:00000B4E 174005DA        	   797: 	move.b	d0,Asrch(a3)		* save buffer byte as search character
00:00000B52 B03C0022        	   798: 	CMP.b		#$22,d0			* is it quote character?
00:00000B56 67000072        	   799: 	BEQ		LAB_1410			* branch if so (copy quoted string)
                            	   800: 
00:00000B5A B03C002A        	   801: 	CMP.b		#'*',d0			* compare with "*"
00:00000B5E 6536            	   802: 	BCS.s		LAB_13EC			* if <= "*" save byte then continue crunching
                            	   803: 
                            	   804: 							* crunch rest
                            	   805: LAB_13CC
00:00000B60 082B000605DD    	   806: 	BTST.b	#6,Oquote(a3)		* test open quote/DATA token flag
00:00000B66 662E            	   807: 	BNE.s		LAB_13EC			* branch if b6 of Oquote set (was DATA)
                            	   808: 							* go save byte then continue crunching
                            	   809: 
00:00000B68 903C002A        	   810: 	SUB.b		#$2A,d0			* normalise byte
00:00000B6C D040            	   811: 	ADD.w		d0,d0				* *2 makes word offset (high byte=$00)
00:00000B6E 43FA2890        	   812: 	lea		(TAB_CHRT,PC),a1		* get keyword offset table address
00:00000B72 30310000        	   813: 	MOVE.w	(a1,d0.w),d0		* get offset into keyword table
00:00000B76 6B6E            	   814: 	BMI.s		LAB_141F			* branch if no keywords for character
                            	   815: 
00:00000B78 43FA2BF9        	   816: 	lea		(TAB_STAR,PC),a1		* get keyword table address
00:00000B7C D2C0            	   817: 	ADDA.w	d0,a1				* add keyword offset
00:00000B7E 76FF            	   818: 	moveq		#-1,d3			* clear index
00:00000B80 3801            	   819: 	MOVE.w	d1,d4				* copy read index
                            	   820: LAB_13D6
00:00000B82 5243            	   821: 	ADDQ.w	#1,d3				* increment table index
00:00000B84 10313000        	   822: 	move.b	(a1,d3.w),d0		* get byte from table
                            	   823: LAB_13D8
00:00000B88 6B0A            	   824: 	BMI.s		LAB_13EA			* branch if token, save token and continue
                            	   825: 							* crunching
                            	   826: 
00:00000B8A 5244            	   827: 	ADDQ.w	#1,d4				* increment read index
00:00000B8C B0354000        	   828: 	CMP.b		(a5,d4.w),d0		* compare byte from input buffer
00:00000B90 67F0            	   829: 	BEQ.s		LAB_13D6			* loop if character match
                            	   830: 
00:00000B92 6040            	   831: 	BRA.s		LAB_1417			* branch if no match
                            	   832: 
                            	   833: LAB_13EA
00:00000B94 3204            	   834: 	MOVE.w	d4,d1				* update read index
                            	   835: LAB_13EC
00:00000B96 11802000        	   836: 	move.b	d0,(a0,d2.w)		* save byte to output
00:00000B9A 5242            	   837: 	ADDQ.w	#1,d2				* increment buffer save index
00:00000B9C 5241            	   838: 	ADDQ.w	#1,d1				* increment buffer read index
00:00000B9E 4A00            	   839: 	TST.b		d0				* set flags
00:00000BA0 674A            	   840: 	BEQ.s		LAB_142A			* branch if was null [EOL]
                            	   841: 
                            	   842: 							* d0 holds token or byte here
00:00000BA2 903C003A        	   843: 	SUB.b		#$3A,d0			* subtract ":"
00:00000BA6 6706            	   844: 	BEQ.s		LAB_13FF			* branch if it was ":" (is now $00)
                            	   845: 
                            	   846: 							* d0 now holds token-$3A
00:00000BA8 B03C0049        	   847: 	CMP.b		#(TK_DATA-$3A),d0		* compare with DATA token - $3A
00:00000BAC 6604            	   848: 	BNE.s		LAB_1401			* branch if not DATA
                            	   849: 
                            	   850: 							* token was : or DATA
                            	   851: LAB_13FF
00:00000BAE 174005DD        	   852: 	move.b	d0,Oquote(a3)		* save token-$3A ($00 for ":", TK_DATA-$3A for
                            	   853: 							* DATA)
                            	   854: LAB_1401
00:00000BB2 903C0055        	   855: 	SUB.b		#(TK_REM-$3A),d0		* subtract REM token offset
00:00000BB6 6600FF7C        	   856: 	BNE		LAB_13AC			* If wasn't REM then go crunch rest of line
                            	   857: 
00:00000BBA 174005DA        	   858: 	move.b	d0,Asrch(a3)		* else was REM so set search for [EOL]
                            	   859: 
                            	   860: 							* loop for REM, "..." etc.
                            	   861: LAB_1408
00:00000BBE 10351000        	   862: 	move.b	(a5,d1.w),d0		* get byte from input buffer
00:00000BC2 67D2            	   863: 	BEQ.s		LAB_13EC			* branch if null [EOL]
                            	   864: 
00:00000BC4 B02B05DA        	   865: 	CMP.b		Asrch(a3),d0		* compare with stored character
00:00000BC8 67CC            	   866: 	BEQ.s		LAB_13EC			* branch if match (end quote, REM, :, or DATA)
                            	   867: 
                            	   868: 							* entry for copy string in quotes, don't crunch
                            	   869: LAB_1410
00:00000BCA 11802000        	   870: 	move.b	d0,(a0,d2.w)		* save byte to output
00:00000BCE 5242            	   871: 	ADDQ.w	#1,d2				* increment buffer save index
00:00000BD0 5241            	   872: 	ADDQ.w	#1,d1				* increment buffer read index
00:00000BD2 60EA            	   873: 	BRA.s		LAB_1408			* loop
                            	   874: 
                            	   875: * not found keyword this go so find the end of this word in the table
                            	   876: 
                            	   877: LAB_1417
00:00000BD4 3801            	   878: 	MOVE.w	d1,d4				* reset read pointer
                            	   879: LAB_141B
00:00000BD6 5243            	   880: 	ADDQ.w	#1,d3				* increment keyword table pointer, flag
                            	   881: 							* unchanged
00:00000BD8 10313000        	   882: 	move.b	(a1,d3.w),d0		* get keyword table byte
00:00000BDC 6AF8            	   883: 	BPL.s		LAB_141B			* if not end of keyword go do next byte
                            	   884: 
00:00000BDE 5243            	   885: 	ADDQ.w	#1,d3				* increment keyword table pointer flag
                            	   886: 							* unchanged
00:00000BE0 10313000        	   887: 	move.b	(a1,d3.w),d0		* get keyword table byte
00:00000BE4 66A2            	   888: 	BNE.s		LAB_13D8			* go test next word if not zero byte (table end)
                            	   889: 
                            	   890: 							* reached end of table with no match
                            	   891: LAB_141F
00:00000BE6 10351000        	   892: 	move.b	(a5,d1.w),d0		* restore byte from input buffer
00:00000BEA 60AA            	   893: 	BRA.s		LAB_13EC			* go save byte in output and continue crunching
                            	   894: 
                            	   895: 							* reached [EOL]
                            	   896: LAB_142A
00:00000BEC 7000            	   897: 	moveq		#0,d0				* ensure longword clear
00:00000BEE 0102            	   898: 	BTST		d0,d2				* test odd bit (fastest)
00:00000BF0 6706            	   899: 	BEQ.s		LAB_142C			* branch if no bytes to fill
                            	   900: 
00:00000BF2 11802000        	   901: 	move.b	d0,(a0,d2.w)		* clear next byte
00:00000BF6 5242            	   902: 	ADDQ.w	#1,d2				* increment buffer save index
                            	   903: LAB_142C
00:00000BF8 21802000        	   904: 	move.l	d0,(a0,d2.w)		* clear next line pointer, EOT in immediate mode
00:00000BFC 4E75            	   905: 	RTS
                            	   906: 
                            	   907: * search Basic for d1 line number from start of mem
                            	   908: 
                            	   909: LAB_SSLN
00:00000BFE 206B042E        	   910: 	MOVEA.l	Smeml(a3),a0		* get start of program mem
00:00000C02 6002            	   911: 	BRA.s		LAB_SCLN			* go search for required line from a0
                            	   912: 
                            	   913: LAB_145F
00:00000C04 2040            	   914: 	MOVEA.l	d0,a0				* copy next line pointer
                            	   915: 
                            	   916: * search Basic for d1 line number from a0
                            	   917: * returns Cb=0 if found
                            	   918: * returns a0 pointer to found or next higher (not found) line
                            	   919: 
                            	   920: LAB_SCLN
00:00000C06 2018            	   921: 	move.l	(a0)+,d0			* get next line pointer and point to line #
00:00000C08 6708            	   922: 	BEQ.s		LAB_145E			* is end marker so we're done, do 'no line' exit
                            	   923: 
00:00000C0A B290            	   924: 	CMP.l		(a0),d1			* compare this line # with required line #
00:00000C0C 6EF6            	   925: 	BGT.s		LAB_145F			* loop if required # > this #
                            	   926: 
00:00000C0E 5948            	   927: 	SUBQ.w	#4,a0				* adjust pointer, flags not changed
00:00000C10 4E75            	   928: 	RTS
                            	   929: 
                            	   930: LAB_145E
00:00000C12 5948            	   931: 	SUBQ.w	#4,a0				* adjust pointer, flags not changed
00:00000C14 5380            	   932: 	SUBQ.l	#1,d0				* make end program found = -1, set carry
00:00000C16 4E75            	   933: 	RTS
                            	   934: 
                            	   935: * perform NEW
                            	   936: 
                            	   937: LAB_NEW
00:00000C18 6648            	   938: 	BNE.s		RTS_005			* exit if not end of statement (do syntax error)
                            	   939: 
                            	   940: LAB_1463
00:00000C1A 206B042E        	   941: 	MOVEA.l	Smeml(a3),a0		* point to start of program memory
00:00000C1E 7000            	   942: 	moveq		#0,d0				* clear longword
00:00000C20 20C0            	   943: 	move.l	d0,(a0)+			* clear first line, next line pointer
00:00000C22 27480432        	   944: 	move.l	a0,Sfncl(a3)		* set start of functions
                            	   945: 
                            	   946: * reset execution to start, clear variables and flush stack
                            	   947: 
                            	   948: LAB_1477
00:00000C26 2A6B042E        	   949: 	MOVEA.l	Smeml(a3),a5		* reset BASIC execute pointer
00:00000C2A 1025            	   950: 	move.b	-(a5),d0			* -1 (as end of previous line)
                            	   951: 							* fastest/shortest method
                            	   952: 
                            	   953: * "CLEAR" command gets here
                            	   954: 
                            	   955: LAB_147A
00:00000C2C 276B044A0446    	   956: 	move.l	Ememl(a3),Sstorl(a3)	* save end of mem as bottom of string space
00:00000C32 202B0432        	   957: 	move.l	Sfncl(a3),d0		* get start of functions
00:00000C36 27400436        	   958: 	move.l	d0,Svarl(a3)		* start of variables
00:00000C3A 2740043A        	   959: 	move.l	d0,Sstrl(a3)		* start of strings
00:00000C3E 2740043E        	   960: 	move.l	d0,Sarryl(a3)		* set start of arrays
00:00000C42 27400442        	   961: 	move.l	d0,Earryl(a3)		* set end of arrays
00:00000C46 7000            	   962: 	moveq		#0,d0				* set Zb
00:00000C48 610001CA        	   963: 	BSR		LAB_RESTORE			* perform RESTORE command
                            	   964: 
                            	   965: * flush stack & clear continue flag
                            	   966: 
                            	   967: LAB_1491
00:00000C4C 49EB048E        	   968: 	lea		des_sk(a3),a4		* reset descriptor stack pointer
                            	   969: 
00:00000C50 201F            	   970: 	move.l	(sp)+,d0			* pull return address
00:00000C52 4FEB0400        	   971: 	lea		ram_base(a3),sp		* set stack to RAM start + 1k, flush stack
00:00000C56 2F00            	   972: 	move.l	d0,-(sp)			* restore return address
                            	   973: 
00:00000C58 7000            	   974: 	moveq		#0,d0				* clear longword
00:00000C5A 2740045A        	   975: 	move.l	d0,Cpntrl(a3)		* clear continue pointer
00:00000C5E 174005DF        	   976: 	move.b	d0,Sufnxf(a3)		* clear subscript/FNX flag
                            	   977: RTS_005
00:00000C62 4E75            	   978: 	RTS
                            	   979: 
                            	   980: * perform CLEAR
                            	   981: 
                            	   982: LAB_CLEAR
00:00000C64 67C6            	   983: 	BEQ.s		LAB_147A			* if no following byte go do "CLEAR"
                            	   984: 
00:00000C66 4E75            	   985: 	RTS						* was following byte (go do syntax error)
                            	   986: 
                            	   987: * perform LIST [n][-m]
                            	   988: 
                            	   989: LAB_LIST
00:00000C68 6512            	   990: 	BCS.s		LAB_14BD			* branch if next character numeric (LIST n...)
                            	   991: 
00:00000C6A 72FF            	   992: 	moveq		#-1,d1			* set end to $FFFFFFFF
00:00000C6C 2741042A        	   993: 	move.l	d1,Itemp(a3)		* save to Itemp
                            	   994: 
00:00000C70 7200            	   995: 	moveq		#0,d1				* set start to $00000000
00:00000C72 4A00            	   996: 	TST.b		d0				* test next byte
00:00000C74 670A            	   997: 	BEQ.s		LAB_14C0			* branch if next character [NULL] (LIST)
                            	   998: 
00:00000C76 B03C00B2        	   999: 	CMP.b		#TK_MINUS,d0		* compare with token for -
00:00000C7A 66E6            	  1000: 	BNE.s		RTS_005			* exit if not - (LIST -m)
                            	  1001: 
                            	  1002: 							* LIST [[n]-[m]] this sets the n, if present,
                            	  1003: 							* as the start and end
                            	  1004: LAB_14BD
00:00000C7C 61000340        	  1005: 	BSR		LAB_GFPN			* get fixed-point number into temp integer & d1
                            	  1006: LAB_14C0
00:00000C80 6100FF7C        	  1007: 	BSR		LAB_SSLN			* search BASIC for d1 line number
                            	  1008: 							* (pointer in a0)
00:00000C84 610008E6        	  1009: 	BSR		LAB_GBYT			* scan memory
00:00000C88 6716            	  1010: 	BEQ.s		LAB_14D4			* branch if no more characters
                            	  1011: 
                            	  1012: 							* this bit checks the - is present
00:00000C8A B03C00B2        	  1013: 	CMP.b		#TK_MINUS,d0		* compare with token for -
00:00000C8E 66D2            	  1014: 	BNE.s		RTS_005			* return if not "-" (will be Syntax error)
                            	  1015: 
00:00000C90 72FF            	  1016: 	moveq		#-1,d1			* set end to $FFFFFFFF
00:00000C92 2741042A        	  1017: 	move.l	d1,Itemp(a3)		* save Itemp
                            	  1018: 
                            	  1019: 							* LIST [n]-[m] the - was there so see if
                            	  1020: 							* there is an m to set as the end value
00:00000C96 610008D2        	  1021: 	BSR		LAB_IGBY			* increment & scan memory
00:00000C9A 6704            	  1022: 	BEQ.s		LAB_14D4			* branch if was [NULL] (LIST n-)
                            	  1023: 
00:00000C9C 61000320        	  1024: 	BSR		LAB_GFPN			* get fixed-point number into temp integer & d1
                            	  1025: LAB_14D4
00:00000CA0 177C000005DD    	  1026: 	move.b	#$00,Oquote(a3)		* clear open quote flag
00:00000CA6 61000496        	  1027: 	BSR		LAB_CRLF			* print CR/LF
00:00000CAA 2018            	  1028: 	move.l	(a0)+,d0			* get next line pointer
00:00000CAC 67B4            	  1029: 	BEQ.s		RTS_005			* if null all done so exit
                            	  1030: 
00:00000CAE 2240            	  1031: 	MOVEA.l	d0,a1				* copy next line pointer
00:00000CB0 61000128        	  1032: 	BSR		LAB_1629			* do CRTL-C check vector
                            	  1033: 
00:00000CB4 2018            	  1034: 	move.l	(a0)+,d0			* get this line #
00:00000CB6 B0AB042A        	  1035: 	CMP.l		Itemp(a3),d0		* compare end line # with this line #
00:00000CBA 62A6            	  1036: 	BHI.s		RTS_005			* if this line greater all done so exit
                            	  1037: 
                            	  1038: LAB_14E2
00:00000CBC 48E700C0        	  1039: 	movem.l	a0-a1,-(sp)			* save registers
00:00000CC0 610017CA        	  1040: 	BSR		LAB_295E			* print d0 as unsigned integer
00:00000CC4 4CDF0300        	  1041: 	movem.l	(sp)+,a0-a1			* restore registers
00:00000CC8 7020            	  1042: 	moveq		#$20,d0			* space is the next character
                            	  1043: LAB_150C
00:00000CCA 610004EA        	  1044: 	BSR		LAB_PRNA			* go print the character
00:00000CCE B03C0022        	  1045: 	CMP.b		#$22,d0			* was it " character
00:00000CD2 6606            	  1046: 	BNE.s		LAB_1519			* branch if not
                            	  1047: 
                            	  1048: 							* we're either entering or leaving quotes
00:00000CD4 0A2B00FF05DD    	  1049: 	EOR.b		#$FF,Oquote(a3)		* toggle open quote flag
                            	  1050: LAB_1519
00:00000CDA 1018            	  1051: 	move.b	(a0)+,d0			* get byte and increment pointer
00:00000CDC 6608            	  1052: 	BNE.s		LAB_152E			* branch if not [EOL] (go print)
                            	  1053: 
                            	  1054: 							* was [EOL]
00:00000CDE 2049            	  1055: 	MOVEA.l	a1,a0				* copy next line pointer
00:00000CE0 2008            	  1056: 	move.l	a0,d0				* copy to set flags
00:00000CE2 66BC            	  1057: 	BNE.s		LAB_14D4			* go do next line if not [EOT]
                            	  1058: 
00:00000CE4 4E75            	  1059: 	RTS
                            	  1060: 
                            	  1061: LAB_152E
00:00000CE6 6AE2            	  1062: 	BPL.s		LAB_150C			* just go print it if not token byte
                            	  1063: 
                            	  1064: 							* else it was a token byte so maybe uncrunch it
00:00000CE8 4A2B05DD        	  1065: 	TST.b		Oquote(a3)			* test the open quote flag
00:00000CEC 6BDC            	  1066: 	BMI.s		LAB_150C			* just go print character if open quote set
                            	  1067: 
                            	  1068: 							* else uncrunch BASIC token
00:00000CEE 45FA277A        	  1069: 	lea		(LAB_KEYT,PC),a2		* get keyword table address
00:00000CF2 727F            	  1070: 	moveq		#$7F,d1			* mask into d1
00:00000CF4 C200            	  1071: 	AND.b		d0,d1				* copy and mask token
00:00000CF6 E549            	  1072: 	LSL.w		#2,d1				* *4
00:00000CF8 45F21000        	  1073: 	lea		(a2,d1.w),a2		* get keyword entry address
00:00000CFC 101A            	  1074: 	move.b	(a2)+,d0			* get byte from keyword table
00:00000CFE 610004B6        	  1075: 	BSR		LAB_PRNA			* go print the first character
00:00000D02 7200            	  1076: 	moveq		#0,d1				* clear d1
00:00000D04 121A            	  1077: 	move.b	(a2)+,d1			* get remaining length byte from keyword table
00:00000D06 6BD2            	  1078: 	BMI.s		LAB_1519			* if -ve done so go get next byte
                            	  1079: 
00:00000D08 3012            	  1080: 	MOVE.w	(a2),d0			* get offset to rest
00:00000D0A 45FA2A67        	  1081: 	lea		(TAB_STAR,PC),a2		* get keyword table address
00:00000D0E 45F20000        	  1082: 	lea		(a2,d0.w),a2		* get address of rest
                            	  1083: LAB_1540
00:00000D12 101A            	  1084: 	move.b	(a2)+,d0			* get byte from keyword table
00:00000D14 610004A0        	  1085: 	BSR		LAB_PRNA			* go print the character
00:00000D18 51C9FFF8        	  1086: 	DBF		d1,LAB_1540			* decrement and loop if more to do
                            	  1087: 
00:00000D1C 60BC            	  1088: 	BRA.s		LAB_1519			* go get next byte
                            	  1089: 
                            	  1090: * perform FOR
                            	  1091: 
                            	  1092: LAB_FOR
00:00000D1E 6100033E        	  1093: 	BSR		LAB_LET			* go do LET
                            	  1094: *	moveq		#24,d0			* we need 28 bytes !
                            	  1095: *	BSR.s		LAB_1212			* check room on stack for d0 bytes
00:00000D22 6100021E        	  1096: 	BSR		LAB_SNBS			* scan for next BASIC statement ([:] or [EOL])
                            	  1097: 							* returns a0 as pointer to [:] or [EOL]
00:00000D26 2E88            	  1098: 	move.l	a0,(sp)			* push onto stack (and dump return address)
00:00000D28 2F2B0452        	  1099: 	move.l	Clinel(a3),-(sp)		* push current line onto stack
                            	  1100: 
00:00000D2C 70A9            	  1101: 	moveq		#TK_TO-$100,d0		* set "TO" token
00:00000D2E 61000832        	  1102: 	BSR		LAB_SCCA			* scan for CHR$(d0) else syntax error/warm start
00:00000D32 610006BC        	  1103: 	BSR		LAB_CTNM			* check if source is numeric, else type mismatch
00:00000D36 1F2B05B5        	  1104: 	move.b	Dtypef(a3),-(sp)		* push FOR variable data type onto stack
00:00000D3A 610006B2        	  1105: 	BSR		LAB_EVNM			* evaluate expression and check is numeric else
                            	  1106: 							* do type mismatch
                            	  1107: 
00:00000D3E 2F2B0590        	  1108: 	move.l	FAC1_m(a3),-(sp)		* push TO value mantissa
00:00000D42 3F2B0594        	  1109: 	MOVE.w	FAC1_e(a3),-(sp)		* push TO value exponent and sign
                            	  1110: 
00:00000D46 277C800000000590	  1111: 	move.l	#$80000000,FAC1_m(a3)	* set default STEP size mantissa
00:00000D4E 377C81000594    	  1112: 	MOVE.w	#$8100,FAC1_e(a3)		* set default STEP size exponent and sign
                            	  1113: 
00:00000D54 61000816        	  1114: 	BSR		LAB_GBYT			* scan memory
00:00000D58 B03C00AE        	  1115: 	CMP.b		#TK_STEP,d0			* compare with STEP token
00:00000D5C 6608            	  1116: 	BNE.s		LAB_15B3			* jump if not "STEP"
                            	  1117: 
                            	  1118: 							* was STEP token so ....
00:00000D5E 6100080A        	  1119: 	BSR		LAB_IGBY			* increment & scan memory
00:00000D62 6100068A        	  1120: 	BSR		LAB_EVNM			* evaluate expression & check is numeric
                            	  1121: 							* else do type mismatch
                            	  1122: LAB_15B3
00:00000D66 2F2B0590        	  1123: 	move.l	FAC1_m(a3),-(sp)		* push STEP value mantissa
00:00000D6A 3F2B0594        	  1124: 	MOVE.w	FAC1_e(a3),-(sp)		* push STEP value exponent and sign
                            	  1125: 
00:00000D6E 2F2B0472        	  1126: 	move.l	Lvarpl(a3),-(sp)		* push variable pointer for FOR/NEXT
00:00000D72 3F3C0081        	  1127: 	MOVE.w	#TK_FOR,-(sp)		* push FOR token on stack
                            	  1128: 
00:00000D76 6018            	  1129: 	BRA.s		LAB_15C2			* go do interpreter inner loop
                            	  1130: 
                            	  1131: LAB_15DC						* have reached [EOL]+1
00:00000D78 300D            	  1132: 	MOVE.w	a5,d0				* copy BASIC execute pointer
00:00000D7A C07C0001        	  1133: 	AND.w		#1,d0				* and make line start address even
00:00000D7E DAC0            	  1134: 	ADD.w		d0,a5				* add to BASIC execute pointer
00:00000D80 201D            	  1135: 	move.l	(a5)+,d0			* get next line pointer
00:00000D82 6700FC6E        	  1136: 	BEQ		LAB_1274			* if null go to immediate mode, no "BREAK"
                            	  1137: 							* message (was immediate or [EOT] marker)
                            	  1138: 
00:00000D86 275D0452        	  1139: 	move.l	(a5)+,Clinel(a3)		* save (new) current line #
                            	  1140: LAB_15F6
00:00000D8A 610007E0        	  1141: 	BSR		LAB_GBYT			* get BASIC byte
00:00000D8E 6122            	  1142: 	BSR.s		LAB_15FF			* go interpret BASIC code from (a5)
                            	  1143: 
                            	  1144: * interpreter inner loop (re)entry point
                            	  1145: 
                            	  1146: LAB_15C2
00:00000D90 6148            	  1147: 	BSR.s		LAB_1629			* do CRTL-C check vector
00:00000D92 4A2B0452        	  1148: 	TST.b		Clinel(a3)			* test current line #, is -ve for immediate mode
00:00000D96 6B04            	  1149: 	BMI.s		LAB_15D1			* branch if immediate mode
                            	  1150: 
00:00000D98 274D045A        	  1151: 	move.l	a5,Cpntrl(a3)		* save BASIC execute pointer as continue pointer
                            	  1152: LAB_15D1
00:00000D9C 101D            	  1153: 	move.b	(a5)+,d0			* get this byte & increment pointer
00:00000D9E 67D8            	  1154: 	BEQ.s		LAB_15DC			* loop if [EOL]
                            	  1155: 
00:00000DA0 B03C003A        	  1156: 	CMP.b		#$3A,d0			* compare with ":"
00:00000DA4 67E4            	  1157: 	BEQ.s		LAB_15F6			* loop if was statement separator
                            	  1158: 
00:00000DA6 6000FC1A        	  1159: 	BRA		LAB_SNER			* else syntax error, then warm start
                            	  1160: 
                            	  1161: * tail of IF command
                            	  1162: 
                            	  1163: LAB_1754
00:00000DAA 610007BE        	  1164: 	BSR		LAB_IGBY			* increment & scan memory, Cb=1 if "0"-"9"
00:00000DAE 650000F4        	  1165: 	BCS		LAB_GOTO			* if numeric do GOTO n
                            	  1166: 
                            	  1167: * interpret BASIC code from (a5)
                            	  1168: 
                            	  1169: LAB_15FF
00:00000DB2 6700008C        	  1170: 	BEQ		RTS_006			* exit if zero [EOL]
                            	  1171: 
                            	  1172: LAB_1602
00:00000DB6 0A000080        	  1173: 	EORI.b	#$80,d0			* normalise token
00:00000DBA 6B0002A2        	  1174: 	BMI		LAB_LET			* if not token, go do implied LET
                            	  1175: 
00:00000DBE B03C0028        	  1176: 	CMP.b		#(TK_TAB-$80),d0		* compare normalised token with TAB
00:00000DC2 6400FBFE        	  1177: 	BCC		LAB_SNER			* branch if d0>=TAB, syntax error/warm start
                            	  1178: 							* only tokens before TAB can start a statement
                            	  1179: 
00:00000DC6 4880            	  1180: 	EXT.w		d0				* byte to word (clear high byte)
00:00000DC8 D040            	  1181: 	ADD.w		d0,d0				* *2
00:00000DCA 41FA2504        	  1182: 	lea		(LAB_CTBL,PC),a0		* get vector table base address
00:00000DCE 30300000        	  1183: 	MOVE.w	(a0,d0.w),d0		* get offset to vector
00:00000DD2 48700000        	  1184: 	PEA		(a0,d0.w)			* push vector
00:00000DD6 60000792        	  1185: 	BRA		LAB_IGBY			* get following byte & execute vector
                            	  1186: 
                            	  1187: * CTRL-C check jump. this is called as a subroutine but exits back via a jump if a
                            	  1188: * key press is detected.
                            	  1189: 
                            	  1190: LAB_1629
00:00000DDA 4EEB0424        	  1191: 	JMP		V_CTLC(a3)			* ctrl c check vector
                            	  1192: 
                            	  1193: * if there was a key press it gets back here .....
                            	  1194: 
                            	  1195: LAB_1636
00:00000DDE B03C0003        	  1196: 	CMP.b		#$03,d0			* compare with CTRL-C
00:00000DE2 670C            	  1197: 	BEQ.s		LAB_163B			* STOP if was CTRL-C
                            	  1198: 
                            	  1199: LAB_1639
00:00000DE4 4E75            	  1200: 	RTS						*
                            	  1201: 
                            	  1202: * perform END
                            	  1203: 
                            	  1204: LAB_END
00:00000DE6 66FC            	  1205: 	BNE.s		LAB_1639			* exit if something follows STOP
00:00000DE8 177C000005DC    	  1206: 	move.b	#0,Breakf(a3)		* clear break flag, indicate program end
                            	  1207: 
                            	  1208: * perform STOP
                            	  1209: 
                            	  1210: LAB_STOP
00:00000DEE 66F4            	  1211: 	BNE.s		LAB_1639			* exit if something follows STOP
                            	  1212: 
                            	  1213: LAB_163B
00:00000DF0 43EB0590        	  1214: 	lea		Ibuffe(a3),a1		* get buffer end
00:00000DF4 BBC9            	  1215: 	CMPA.l	a1,a5				* compare execute address with buffer end
00:00000DF6 650A            	  1216: 	BCS.s		LAB_164F			* branch if BASIC pointer is in buffer
                            	  1217: 							* can't continue in immediate mode
                            	  1218: 
                            	  1219: 							* else...
00:00000DF8 274D045A        	  1220: 	move.l	a5,Cpntrl(a3)		* save BASIC execute pointer as continue pointer
                            	  1221: LAB_1647
00:00000DFC 276B04520456    	  1222: 	move.l	Clinel(a3),Blinel(a3)	* save break line
                            	  1223: LAB_164F
00:00000E02 584F            	  1224: 	ADDQ.w	#4,sp				* dump return address, don't return to execute
                            	  1225: 							* loop
00:00000E04 102B05DC        	  1226: 	move.b	Breakf(a3),d0		* get break flag
00:00000E08 6700FBE8        	  1227: 	BEQ		LAB_1274			* go do warm start if was program end
                            	  1228: 
00:00000E0C 41FA2B05        	  1229: 	lea		(LAB_BMSG,PC),a0		* point to "Break"
00:00000E10 6000FBD2        	  1230: 	BRA		LAB_1269			* print "Break" and do warm start
                            	  1231: 
                            	  1232: * perform RESTORE
                            	  1233: 
                            	  1234: LAB_RESTORE
00:00000E14 206B042E        	  1235: 	MOVEA.l	Smeml(a3),a0		* copy start of memory
00:00000E18 6720            	  1236: 	BEQ.s		LAB_1624			* branch if next character null (RESTORE)
                            	  1237: 
00:00000E1A 610001A2        	  1238: 	BSR		LAB_GFPN			* get fixed-point number into temp integer & d1
00:00000E1E B2AB0452        	  1239: 	CMP.l		Clinel(a3),d1		* compare current line # with required line #
00:00000E22 630E            	  1240: 	BLS.s		LAB_GSCH			* branch if >= (start search from beginning)
                            	  1241: 
00:00000E24 204D            	  1242: 	MOVEA.l	a5,a0				* copy BASIC execute pointer
                            	  1243: LAB_RESs
00:00000E26 4A18            	  1244: 	TST.b		(a0)+				* test next byte & increment pointer
00:00000E28 66FC            	  1245: 	BNE.s		LAB_RESs			* loop if not EOL
                            	  1246: 
00:00000E2A 3008            	  1247: 	MOVE.w	a0,d0				* copy pointer
00:00000E2C C07C0001        	  1248: 	AND.w		#1,d0				* mask odd bit
00:00000E30 D0C0            	  1249: 	ADD.w		d0,a0				* add pointer
                            	  1250: 							* search for line in Itemp from (a0)
                            	  1251: LAB_GSCH
00:00000E32 6100FDD2        	  1252: 	BSR		LAB_SCLN			* search for d1 line number from a0
                            	  1253: 							* returns Cb=0 if found
00:00000E36 6500FB72        	  1254: 	BCS		LAB_USER			* go do "Undefined statement" error if not found
                            	  1255: 
                            	  1256: LAB_1624
00:00000E3A 4A20            	  1257: 	TST.b		-(a0)				* decrement pointer (faster)
00:00000E3C 27480462        	  1258: 	move.l	a0,Dptrl(a3)		* save DATA pointer
                            	  1259: RTS_006
00:00000E40 4E75            	  1260: 	RTS
                            	  1261: 
                            	  1262: * perform NULL
                            	  1263: 
                            	  1264: LAB_NULL
00:00000E42 61001090        	  1265: 	BSR		LAB_GTBY			* get byte parameter, result in d0 and Itemp
00:00000E46 174005E4        	  1266: 	move.b	d0,Nullct(a3)		* save new NULL count
00:00000E4A 4E75            	  1267: 	RTS
                            	  1268: 
                            	  1269: * perform CONT
                            	  1270: 
                            	  1271: LAB_CONT
00:00000E4C 6600FB74        	  1272: 	BNE		LAB_SNER			* if following byte exit to do syntax error
                            	  1273: 
00:00000E50 4A2B0452        	  1274: 	TST.b		Clinel(a3)			* test current line #, is -ve for immediate mode
00:00000E54 6A00FB34        	  1275: 	BPL		LAB_CCER			* if running go do can't continue error
                            	  1276: 
00:00000E58 202B045A        	  1277: 	move.l	Cpntrl(a3),d0		* get continue pointer
00:00000E5C 6700FB2C        	  1278: 	BEQ		LAB_CCER			* go do can't continue error if we can't
                            	  1279: 
                            	  1280: 							* we can continue so ...
00:00000E60 2A40            	  1281: 	MOVEA.l	d0,a5				* save continue pointer as BASIC execute pointer
00:00000E62 276B04560452    	  1282: 	move.l	Blinel(a3),Clinel(a3)	* set break line as current line
00:00000E68 4E75            	  1283: 	RTS
                            	  1284: 
                            	  1285: * perform RUN
                            	  1286: 
                            	  1287: LAB_RUN
00:00000E6A 6600000E        	  1288: 	BNE		LAB_RUNn			* if following byte do RUN n
                            	  1289: 
00:00000E6E 6100FDB6        	  1290: 	BSR		LAB_1477			* execution to start, clear vars & flush stack
00:00000E72 274D045A        	  1291: 	move.l	a5,Cpntrl(a3)		* save as continue pointer
00:00000E76 6000FF18        	  1292: 	BRA		LAB_15C2			* go do interpreter inner loop
                            	  1293: 							* (can't RTS, we flushed the stack!)
                            	  1294: 
                            	  1295: LAB_RUNn
00:00000E7A 6100FDB0        	  1296: 	BSR		LAB_147A			* go do "CLEAR"
00:00000E7E 601C            	  1297: 	BRA.s		LAB_16B0			* get n and do GOTO n
                            	  1298: 
                            	  1299: * perform DO
                            	  1300: 
                            	  1301: LAB_DO
                            	  1302: *	move.l	#$05,d0			* need 5 bytes for DO
                            	  1303: *	BSR.s		LAB_1212			* check room on stack for A bytes
00:00000E80 2F0D            	  1304: 	move.l	a5,-(sp)			* push BASIC execute pointer on stack
00:00000E82 2F2B0452        	  1305: 	move.l	Clinel(a3),-(sp)		* push current line on stack
00:00000E86 3F3C009C        	  1306: 	MOVE.w	#TK_DO,-(sp)		* push token for DO on stack
00:00000E8A 487AFF04        	  1307: 	PEA		(LAB_15C2,PC)		* set return address
00:00000E8E 600006DC        	  1308: 	BRA		LAB_GBYT			* scan memory & return to interpreter inner loop
                            	  1309: 
                            	  1310: * perform GOSUB
                            	  1311: 
                            	  1312: LAB_GOSUB
                            	  1313: *	move.l	#10,d0			* need 10 bytes for GOSUB
                            	  1314: *	BSR.s		LAB_1212			* check room on stack for d0 bytes
00:00000E92 2F0D            	  1315: 	move.l	a5,-(sp)			* push BASIC execute pointer
00:00000E94 2F2B0452        	  1316: 	move.l	Clinel(a3),-(sp)		* push current line
00:00000E98 3F3C008D        	  1317: 	MOVE.w	#TK_GOSUB,-(sp)		* push token for GOSUB
                            	  1318: LAB_16B0
00:00000E9C 610006CE        	  1319: 	BSR		LAB_GBYT			* scan memory
00:00000EA0 487AFEEE        	  1320: 	PEA		(LAB_15C2,PC)		* return to interpreter inner loop after GOTO n
                            	  1321: 
                            	  1322: * perform GOTO
                            	  1323: 
                            	  1324: LAB_GOTO
00:00000EA4 61000118        	  1325: 	BSR		LAB_GFPN			* get fixed-point number into temp integer & d1
00:00000EA8 206B042E        	  1326: 	MOVEA.l	Smeml(a3),a0		* get start of memory
00:00000EAC B2AB0452        	  1327: 	CMP.l		Clinel(a3),d1		* compare current line with wanted #
00:00000EB0 630E            	  1328: 	BLS.s		LAB_16D0			* branch if current # => wanted #
                            	  1329: 
00:00000EB2 204D            	  1330: 	MOVEA.l	a5,a0				* copy BASIC execute pointer
                            	  1331: LAB_GOTs
00:00000EB4 4A18            	  1332: 	TST.b		(a0)+				* test next byte & increment pointer
00:00000EB6 66FC            	  1333: 	BNE.s		LAB_GOTs			* loop if not EOL
                            	  1334: 
00:00000EB8 3008            	  1335: 	MOVE.w	a0,d0				* past pad byte(s)
00:00000EBA C07C0001        	  1336: 	AND.w		#1,d0				* mask odd bit
00:00000EBE D0C0            	  1337: 	ADD.w		d0,a0				* add to pointer
                            	  1338: 
                            	  1339: LAB_16D0
00:00000EC0 6100FD44        	  1340: 	BSR		LAB_SCLN			* search for d1 line number from a0
                            	  1341: 							* returns Cb=0 if found
00:00000EC4 6500FAE4        	  1342: 	BCS		LAB_USER			* if carry set go do "Undefined statement" error
                            	  1343: 
00:00000EC8 2A48            	  1344: 	MOVEA.l	a0,a5				* copy to basic execute pointer
00:00000ECA 534D            	  1345: 	SUBQ.w	#1,a5				* decrement pointer
00:00000ECC 274D045A        	  1346: 	move.l	a5,Cpntrl(a3)		* save as continue pointer
00:00000ED0 4E75            	  1347: 	RTS
                            	  1348: 
                            	  1349: * perform LOOP
                            	  1350: 
                            	  1351: LAB_LOOP
00:00000ED2 0C6F009C0004    	  1352: 	CMP.w		#TK_DO,4(sp)		* compare token on stack with DO token
00:00000ED8 6600FAA8        	  1353: 	BNE		LAB_LDER			* branch if no matching DO
                            	  1354: 
00:00000EDC 1E00            	  1355: 	move.b	d0,d7				* copy following token (byte)
00:00000EDE 672E            	  1356: 	BEQ.s		LoopAlways			* if no following token loop forever
                            	  1357: 
00:00000EE0 BE3C003A        	  1358: 	CMP.b		#':',d7			* compare with ":"
00:00000EE4 6728            	  1359: 	BEQ.s		LoopAlways			* if no following token loop forever
                            	  1360: 
00:00000EE6 9E3C00AF        	  1361: 	SUB.b		#TK_UNTIL,d7		* subtract token for UNTIL
00:00000EEA 6708            	  1362: 	BEQ.s		DoRest			* branch if was UNTIL
                            	  1363: 
00:00000EEC 5307            	  1364: 	SUBQ.b	#1,d7				* decrement result
00:00000EEE 6600FAD2        	  1365: 	BNE		LAB_SNER			* if not WHILE go do syntax error & warm start
                            	  1366: 							* only if the token was WHILE will this fail
                            	  1367: 
00:00000EF2 7EFF            	  1368: 	moveq		#-1,d7			* set invert result longword
                            	  1369: DoRest
00:00000EF4 61000674        	  1370: 	BSR		LAB_IGBY			* increment & scan memory
00:00000EF8 6100050C        	  1371: 	BSR		LAB_EVEX			* evaluate expression
00:00000EFC 4A2B0594        	  1372: 	TST.b		FAC1_e(a3)			* test FAC1 exponent
00:00000F00 6706            	  1373: 	BEQ.s		DoCmp				* if = 0 go do straight compare
                            	  1374: 
00:00000F02 177C00FF0594    	  1375: 	move.b	#$FF,FAC1_e(a3)		* else set all bits
                            	  1376: DoCmp
00:00000F08 BF2B0594        	  1377: 	EOR.b		d7,FAC1_e(a3)		* EOR with invert byte
00:00000F0C 6614            	  1378: 	BNE.s		LoopDone			* if <> 0 clear stack & back to interpreter loop
                            	  1379: 
                            	  1380: 							* loop condition wasn't met so do it again
                            	  1381: LoopAlways
00:00000F0E 276F00060452    	  1382: 	move.l	6(sp),Clinel(a3)		* copy DO current line
00:00000F14 2A6F000A        	  1383: 	move.l	10(sp),a5			* save BASIC execute pointer
                            	  1384: 
00:00000F18 41FAFE76        	  1385: 	lea		(LAB_15C2,PC),a0		* get return address
00:00000F1C 2E88            	  1386: 	move.l	a0,(sp)			* dump the call to this routine and set the
                            	  1387: 							* return address
00:00000F1E 6000064C        	  1388: 	BRA		LAB_GBYT			* scan memory and return to interpreter inner
                            	  1389: 							* loop
                            	  1390: 
                            	  1391: 							* clear stack & back to interpreter loop
                            	  1392: LoopDone
00:00000F22 4FEF000E        	  1393: 	lea		14(sp),sp			* dump structure and call from stack
00:00000F26 6014            	  1394: 	BRA.s		LAB_DATA			* go perform DATA (find : or [EOL])
                            	  1395: 
                            	  1396: * perform RETURN
                            	  1397: 
                            	  1398: LAB_RETURN
00:00000F28 6616            	  1399: 	BNE.s		RTS_007			* exit if following token to allow syntax error
                            	  1400: 
00:00000F2A 0C6F008D0004    	  1401: 	CMP.w		#TK_GOSUB,4(sp)		* compare token from stack with GOSUB
00:00000F30 6600FA8C        	  1402: 	BNE		LAB_RGER			* do RETURN without GOSUB error if no matching
                            	  1403: 							* GOSUB
                            	  1404: 
00:00000F34 5C4F            	  1405: 	ADDQ.w	#6,sp				* dump calling address & token
00:00000F36 275F0452        	  1406: 	move.l	(sp)+,Clinel(a3)		* pull current line
00:00000F3A 2A5F            	  1407: 	move.l	(sp)+,a5			* pull BASIC execute pointer
                            	  1408: 							* now do perform "DATA" statement as we could be
                            	  1409: 							* returning into the middle of an ON <var> GOSUB
                            	  1410: 							* n,m,p,q line (the return address used by the
                            	  1411: 							* DATA statement is the one pushed before the
                            	  1412: 							* GOSUB was executed!)
                            	  1413: 
                            	  1414: * perform DATA
                            	  1415: 
                            	  1416: LAB_DATA
00:00000F3C 6104            	  1417: 	BSR.s		LAB_SNBS			* scan for next BASIC statement ([:] or [EOL])
                            	  1418: 							* returns a0 as pointer to [:] or [EOL]
00:00000F3E 2A48            	  1419: 	MOVEA.l	a0,a5				* skip rest of statement
                            	  1420: RTS_007
00:00000F40 4E75            	  1421: 	RTS
                            	  1422: 
                            	  1423: * scan for next BASIC statement ([:] or [EOL])
                            	  1424: * returns a0 as pointer to [:] or [EOL]
                            	  1425: 
                            	  1426: LAB_SNBS
00:00000F42 204D            	  1427: 	MOVEA.l	a5,a0				* copy BASIC execute pointer
00:00000F44 7222            	  1428: 	moveq		#$22,d1			* set string quote character
00:00000F46 743A            	  1429: 	moveq		#$3A,d2			* set look for character = ":"
00:00000F48 6008            	  1430: 	BRA.s		LAB_172D			* go do search
                            	  1431: 
                            	  1432: LAB_172C
00:00000F4A B400            	  1433: 	CMP.b		d0,d2				* compare with ":"
00:00000F4C 6708            	  1434: 	BEQ.s		RTS_007a			* exit if found
                            	  1435: 
00:00000F4E B200            	  1436: 	CMP.b		d0,d1				* compare with '"'
00:00000F50 670C            	  1437: 	BEQ.s		LAB_1725			* if found go search for [EOL]
                            	  1438: 
                            	  1439: LAB_172D
00:00000F52 1018            	  1440: 	move.b	(a0)+,d0			* get next byte
00:00000F54 66F4            	  1441: 	BNE.s		LAB_172C			* loop if not null [EOL]
                            	  1442: 
                            	  1443: RTS_007a
00:00000F56 5348            	  1444: 	SUBQ.w	#1,a0				* correct pointer
00:00000F58 4E75            	  1445: 	RTS
                            	  1446: 
                            	  1447: LAB_1723
00:00000F5A B200            	  1448: 	CMP.b		d0,d1				* compare with '"'
00:00000F5C 67F4            	  1449: 	BEQ.s		LAB_172D			* if found go search for ":" or [EOL]
                            	  1450: 
                            	  1451: LAB_1725
00:00000F5E 1018            	  1452: 	move.b	(a0)+,d0			* get next byte
00:00000F60 66F8            	  1453: 	BNE.s		LAB_1723			* loop if not null [EOL]
                            	  1454: 
00:00000F62 60F2            	  1455: 	BRA.s		RTS_007a			* correct pointer & return
                            	  1456: 
                            	  1457: * perform IF
                            	  1458: 
                            	  1459: LAB_IF
00:00000F64 610004A0        	  1460: 	BSR		LAB_EVEX			* evaluate expression
00:00000F68 61000602        	  1461: 	BSR		LAB_GBYT			* scan memory
00:00000F6C B03C0089        	  1462: 	CMP.b		#TK_GOTO,d0			* compare with "GOTO" token
00:00000F70 6708            	  1463: 	BEQ.s		LAB_174B			* jump if was "GOTO"
                            	  1464: 
                            	  1465: 							* wasn't IF ... GOTO so must be IF ... THEN
00:00000F72 B03C00AC        	  1466: 	CMP.b		#TK_THEN,d0			* compare with "THEN" token
00:00000F76 6600FA4A        	  1467: 	BNE		LAB_SNER			* if not "THEN" token do syntax error/warm start
                            	  1468: 
                            	  1469: LAB_174B
00:00000F7A 102B0594        	  1470: 	move.b	FAC1_e(a3),d0		* get FAC1 exponent
00:00000F7E 6600FE2A        	  1471: 	BNE		LAB_1754			* branch if result was non zero
                            	  1472: 							* else ....
                            	  1473: * perform REM, skip (rest of) line
                            	  1474: 
                            	  1475: LAB_REM
00:00000F82 4A1D            	  1476: 	TST.b		(a5)+				* test byte & increment pointer
00:00000F84 66FC            	  1477: 	BNE.s		LAB_REM			* loop if not EOL
                            	  1478: 
00:00000F86 534D            	  1479: 	SUBQ.w	#1,a5				* correct pointer
00:00000F88 4E75            	  1480: 	RTS
                            	  1481: 
                            	  1482: * perform ON
                            	  1483: 
                            	  1484: LAB_ON
00:00000F8A 61000F48        	  1485: 	BSR		LAB_GTBY			* get byte parameter, result in d0 and Itemp
00:00000F8E 1400            	  1486: 	move.b	d0,d2				* copy byte
00:00000F90 610005DA        	  1487: 	BSR		LAB_GBYT			* restore BASIC byte
00:00000F94 3F00            	  1488: 	MOVE.w	d0,-(sp)			* push GOTO/GOSUB token
00:00000F96 B03C008D        	  1489: 	CMP.b		#TK_GOSUB,d0		* compare with GOSUB token
00:00000F9A 6708            	  1490: 	BEQ.s		LAB_176C			* branch if GOSUB
                            	  1491: 
00:00000F9C B03C0089        	  1492: 	CMP.b		#TK_GOTO,d0			* compare with GOTO token
00:00000FA0 6600FA20        	  1493: 	BNE		LAB_SNER			* if not GOTO do syntax error, then warm start
                            	  1494: 
                            	  1495: * next character was GOTO or GOSUB
                            	  1496: 
                            	  1497: LAB_176C
00:00000FA4 5302            	  1498: 	SUBQ.b	#1,d2				* decrement index (byte value)
00:00000FA6 6606            	  1499: 	BNE.s		LAB_1773			* branch if not zero
                            	  1500: 
00:00000FA8 301F            	  1501: 	MOVE.w	(sp)+,d0			* pull GOTO/GOSUB token
00:00000FAA 6000FE0A        	  1502: 	BRA		LAB_1602			* go execute it
                            	  1503: 
                            	  1504: LAB_1773
00:00000FAE 610005BA        	  1505: 	BSR		LAB_IGBY			* increment & scan memory
00:00000FB2 610A            	  1506: 	BSR.s		LAB_GFPN			* get fixed-point number into temp integer & d1
                            	  1507: 							* (skip this n)
00:00000FB4 B03C002C        	  1508: 	CMP.b		#$2C,d0			* compare next character with ","
00:00000FB8 67EA            	  1509: 	BEQ.s		LAB_176C			* loop if ","
                            	  1510: 
00:00000FBA 301F            	  1511: 	MOVE.w	(sp)+,d0			* pull GOTO/GOSUB token (run out of options)
00:00000FBC 4E75            	  1512: 	RTS						* and exit
                            	  1513: 
                            	  1514: * get fixed-point number into temp integer & d1
                            	  1515: * interpret number from (a5), leave (a5) pointing to byte after #
                            	  1516: 
                            	  1517: LAB_GFPN
00:00000FBE 7200            	  1518: 	moveq		#$00,d1			* clear integer register
00:00000FC0 2001            	  1519: 	move.l	d1,d0				* clear d0
00:00000FC2 610005A8        	  1520: 	BSR		LAB_GBYT			* scan memory, Cb=1 if "0"-"9", & get byte
00:00000FC6 642E            	  1521: 	BCC.s		LAB_1786			* return if carry clear, chr was not "0"-"9"
                            	  1522: 
00:00000FC8 2F02            	  1523: 	move.l	d2,-(sp)			* save d2
                            	  1524: LAB_1785
00:00000FCA 2401            	  1525: 	move.l	d1,d2				* copy integer register
00:00000FCC D281            	  1526: 	ADD.l		d1,d1				* *2
00:00000FCE 6500F9F2        	  1527: 	BCS		LAB_SNER			* if overflow do syntax error, then warm start
                            	  1528: 
00:00000FD2 D281            	  1529: 	ADD.l		d1,d1				* *4
00:00000FD4 6500F9EC        	  1530: 	BCS		LAB_SNER			* if overflow do syntax error, then warm start
                            	  1531: 
00:00000FD8 D282            	  1532: 	ADD.l		d2,d1				* *1 + *4
00:00000FDA 6500F9E6        	  1533: 	BCS		LAB_SNER			* if overflow do syntax error, then warm start
                            	  1534: 
00:00000FDE D281            	  1535: 	ADD.l		d1,d1				* *10
00:00000FE0 6500F9E0        	  1536: 	BCS		LAB_SNER			* if overflow do syntax error, then warm start
                            	  1537: 
00:00000FE4 903C0030        	  1538: 	SUB.b		#$30,d0			* subtract $30 from byte
00:00000FE8 D280            	  1539: 	ADD.l		d0,d1				* add to integer register, the top 24 bits are
                            	  1540: 							* always clear
00:00000FEA 6900F9D6        	  1541: 	BVS		LAB_SNER			* if overflow do syntax error, then warm start
                            	  1542: 							* this makes the maximum line number 2147483647
00:00000FEE 6100057A        	  1543: 	BSR		LAB_IGBY			* increment & scan memory
00:00000FF2 65D6            	  1544: 	BCS.s		LAB_1785			* loop for next character if "0"-"9"
                            	  1545: 
00:00000FF4 241F            	  1546: 	move.l	(sp)+,d2			* restore d2
                            	  1547: LAB_1786
00:00000FF6 2741042A        	  1548: 	move.l	d1,Itemp(a3)		* save Itemp
00:00000FFA 4E75            	  1549: 	RTS
                            	  1550: 
                            	  1551: * perform DEC
                            	  1552: 
                            	  1553: LAB_DEC
00:00000FFC 3F3C8180        	  1554: 	MOVE.w	#$8180,-(sp)		* set -1 sign/exponent
00:00001000 600A            	  1555: 	BRA.s		LAB_17B7			* go do DEC
                            	  1556: 
                            	  1557: * perform INC
                            	  1558: 
                            	  1559: LAB_INC
00:00001002 3F3C8100        	  1560: 	MOVE.w	#$8100,-(sp)		* set 1 sign/exponent
00:00001006 6004            	  1561: 	BRA.s		LAB_17B7			* go do INC
                            	  1562: 
                            	  1563: 							* was "," so another INCR variable to do
                            	  1564: LAB_17B8
00:00001008 61000560        	  1565: 	BSR		LAB_IGBY			* increment and scan memory
                            	  1566: LAB_17B7
00:0000100C 61000760        	  1567: 	BSR		LAB_GVAR			* get variable address in a0
00:00001010 4A2B05B5        	  1568: 	TST.b		Dtypef(a3)			* test data type, $80=string, $40=integer,
                            	  1569: 							* $00=float
00:00001014 6B00F980        	  1570: 	BMI		LAB_TMER			* if string do "Type mismatch" error/warm start
                            	  1571: 
00:00001018 6636            	  1572: 	BNE.s		LAB_INCI			* go do integer INC/DEC
                            	  1573: 
00:0000101A 27480472        	  1574: 	move.l	a0,Lvarpl(a3)		* save var address
00:0000101E 61001316        	  1575: 	BSR		LAB_UFAC			* unpack memory (a0) into FAC1
00:00001022 277C800000000598	  1576: 	move.l	#$80000000,FAC2_m(a3)	* set FAC2 mantissa for 1
00:0000102A 3017            	  1577: 	MOVE.w	(sp),d0			* move exponent & sign to d0
00:0000102C 3740059C        	  1578: 	MOVE.w	d0,FAC2_e(a3)		* move exponent & sign to FAC2
00:00001030 176B0595059E    	  1579: 	move.b	FAC1_s(a3),FAC_sc(a3)	* make sign compare = FAC1 sign
00:00001036 B12B059E        	  1580: 	EOR.b		d0,FAC_sc(a3)		* make sign compare (FAC1_s EOR FAC2_s)
00:0000103A 6100100C        	  1581: 	BSR		LAB_ADD			* add FAC2 to FAC1
00:0000103E 61001312        	  1582: 	BSR		LAB_PFAC			* pack FAC1 into variable (Lvarpl)
                            	  1583: LAB_INCT
00:00001042 61000528        	  1584: 	BSR		LAB_GBYT			* scan memory
00:00001046 0C00002C        	  1585: 	CMPI.b	#$2C,d0			* compare with ","
00:0000104A 67BC            	  1586: 	BEQ.s		LAB_17B8			* continue if "," (another variable to do)
                            	  1587: 
00:0000104C 544F            	  1588: 	ADDQ.w	#2,sp				* else dump sign & exponent
00:0000104E 4E75            	  1589: 	RTS
                            	  1590: 
                            	  1591: LAB_INCI
00:00001050 4A2F0001        	  1592: 	TST.b		1(sp)				* test sign
00:00001054 6604            	  1593: 	BNE.s		LAB_DECI			* branch if DEC
                            	  1594: 
00:00001056 5290            	  1595: 	ADDQ.l	#1,(a0)			* increment variable
00:00001058 60E8            	  1596: 	BRA.s		LAB_INCT			* go scan for more
                            	  1597: 
                            	  1598: LAB_DECI
00:0000105A 5390            	  1599: 	SUBQ.l	#1,(a0)			* decrement variable
00:0000105C 60E4            	  1600: 	BRA.s		LAB_INCT			* go scan for more
                            	  1601: 
                            	  1602: 
                            	  1603: * perform LET
                            	  1604: 
                            	  1605: LAB_LET
00:0000105E 6100070E        	  1606: 	BSR		LAB_GVAR			* get variable address in a0
00:00001062 27480472        	  1607: 	move.l	a0,Lvarpl(a3)		* save variable address
00:00001066 1F2B05B5        	  1608: 	move.b	Dtypef(a3),-(sp)		* push var data type, $80=string, $40=integer,
                            	  1609: 							* $00=float
00:0000106A 70BC            	  1610: 	moveq		#TK_EQUAL-$100,d0		* get = token
00:0000106C 610004F4        	  1611: 	BSR		LAB_SCCA			* scan for CHR$(d0), else do syntax error/warm
                            	  1612: 							* start
00:00001070 61000394        	  1613: 	BSR		LAB_EVEX			* evaluate expression
00:00001074 102B05B5        	  1614: 	move.b	Dtypef(a3),d0		* copy expression data type
00:00001078 175F05B5        	  1615: 	move.b	(sp)+,Dtypef(a3)		* pop variable data type
00:0000107C E318            	  1616: 	ROL.b		#1,d0				* set carry if expression type = string
00:0000107E 61000372        	  1617: 	BSR		LAB_CKTM			* type match check, set C for string
00:00001082 670012CE        	  1618: 	BEQ		LAB_PFAC			* if number pack FAC1 into variable Lvarpl & RET
                            	  1619: 
                            	  1620: * string LET
                            	  1621: 
                            	  1622: LAB_17D5
00:00001086 246B0472        	  1623: 	MOVEA.l	Lvarpl(a3),a2		* get pointer to variable
                            	  1624: LAB_17D6
00:0000108A 206B0590        	  1625: 	MOVEA.l	FAC1_m(a3),a0		* get descriptor pointer
00:0000108E 2250            	  1626: 	MOVEA.l	(a0),a1			* get string pointer
00:00001090 B3EB0446        	  1627: 	CMP.l		Sstorl(a3),a1		* compare string memory start with string
                            	  1628: 							* pointer
00:00001094 6516            	  1629: 	BCS.s		LAB_1811			* if it was in program memory assign the value
                            	  1630: 							* and exit
                            	  1631: 
00:00001096 B1EB0432        	  1632: 	CMPA.l	Sfncl(a3),a0		* compare functions start with descriptor
                            	  1633: 							* pointer
00:0000109A 6510            	  1634: 	BCS.s		LAB_1811			* branch if >= (string is on stack)
                            	  1635: 
                            	  1636: 							* string is variable$ make space and copy string
                            	  1637: LAB_1810
00:0000109C 7200            	  1638: 	moveq		#0,d1				* clear length
00:0000109E 32280004        	  1639: 	MOVE.w	4(a0),d1			* get string length
00:000010A2 2050            	  1640: 	MOVEA.l	(a0),a0			* get string pointer
00:000010A4 61000B10        	  1641: 	BSR		LAB_20C9			* copy string
00:000010A8 206B0590        	  1642: 	MOVEA.l	FAC1_m(a3),a0		* get descriptor pointer back
                            	  1643: 							* clean stack & assign value to string variable
                            	  1644: LAB_1811
00:000010AC B9C8            	  1645: 	CMPA.l	a0,a4				* is string on the descriptor stack
00:000010AE 6602            	  1646: 	BNE.s		LAB_1813			* skip pop if not
                            	  1647: 
00:000010B0 5C4C            	  1648: 	ADDQ.w	#$06,a4			* else update stack pointer
                            	  1649: LAB_1813
00:000010B2 24D8            	  1650: 	move.l	(a0)+,(a2)+			* save pointer to variable
00:000010B4 3490            	  1651: 	MOVE.w	(a0),(a2)			* save length to variable
                            	  1652: RTS_008
00:000010B6 4E75            	  1653: 	RTS
                            	  1654: 
                            	  1655: * perform GET
                            	  1656: 
                            	  1657: LAB_GET
00:000010B8 610006B4        	  1658: 	BSR		LAB_GVAR			* get variable address in a0
00:000010BC 27480472        	  1659: 	move.l	a0,Lvarpl(a3)		* save variable address as GET variable
00:000010C0 4A2B05B5        	  1660: 	TST.b		Dtypef(a3)			* test data type, $80=string, $40=integer,
                            	  1661: 							* $00=float
00:000010C4 6B0C            	  1662: 	BMI.s		LAB_GETS			* go get string character
                            	  1663: 
                            	  1664: 							* was numeric get
00:000010C6 61001ACC        	  1665: 	BSR		INGET				* get input byte
00:000010CA 610009BA        	  1666: 	BSR		LAB_1FD0			* convert d0 to unsigned byte in FAC1
00:000010CE 60001282        	  1667: 	BRA		LAB_PFAC			* pack FAC1 into variable (Lvarpl) & return
                            	  1668: 
                            	  1669: LAB_GETS
00:000010D2 7200            	  1670: 	moveq		#$00,d1			* assume no byte
00:000010D4 2041            	  1671: 	move.l	d1,a0				* assume null string
00:000010D6 61001ABC        	  1672: 	BSR		INGET				* get input byte
00:000010DA 6408            	  1673: 	BCC.s		LAB_NoSt			* branch if no byte received
                            	  1674: 
00:000010DC 7201            	  1675: 	moveq		#$01,d1			* string is single byte
00:000010DE 61000B08        	  1676: 	BSR		LAB_2115			* make string space d1 bytes long
                            	  1677: 							* return a0 = pointer, other registers unchanged
                            	  1678: 
00:000010E2 1080            	  1679: 	move.b	d0,(a0)			* save byte in string (byte IS string!)
                            	  1680: LAB_NoSt
00:000010E4 61000AE8        	  1681: 	BSR		LAB_RTST			* push string on descriptor stack
                            	  1682: 							* a0 = pointer, d1 = length
                            	  1683: 
00:000010E8 609C            	  1684: 	BRA.s		LAB_17D5			* do string LET & return
                            	  1685: 
                            	  1686: * PRINT
                            	  1687: 
                            	  1688: LAB_1829
00:000010EA 610000B4        	  1689: 	BSR		LAB_18C6			* print string from stack
                            	  1690: LAB_182C
00:000010EE 6100047C        	  1691: 	BSR		LAB_GBYT			* scan memory
                            	  1692: 
                            	  1693: * perform PRINT
                            	  1694: 
                            	  1695: LAB_PRINT
00:000010F2 674A            	  1696: 	BEQ.s		LAB_CRLF			* if nothing following just print CR/LF
                            	  1697: 
                            	  1698: LAB_1831
00:000010F4 B03C00A8        	  1699: 	CMP.b		#TK_TAB,d0			* compare with TAB( token
00:000010F8 6764            	  1700: 	BEQ.s		LAB_18A2			* go do TAB/SPC
                            	  1701: 
00:000010FA B03C00AB        	  1702: 	CMP.b		#TK_SPC,d0			* compare with SPC( token
00:000010FE 675E            	  1703: 	BEQ.s		LAB_18A2			* go do TAB/SPC
                            	  1704: 
00:00001100 B03C002C        	  1705: 	CMP.b		#',',d0			* compare with ","
00:00001104 6740            	  1706: 	BEQ.s		LAB_188B			* go do move to next TAB mark
                            	  1707: 
00:00001106 B03C003B        	  1708: 	CMP.b		#';',d0			* compare with ";"
00:0000110A 67000086        	  1709: 	BEQ		LAB_18BD			* if ";" continue with PRINT processing
                            	  1710: 
00:0000110E 610002F6        	  1711: 	BSR		LAB_EVEX			* evaluate expression
00:00001112 4A2B05B5        	  1712: 	TST.b		Dtypef(a3)			* test data type, $80=string, $40=integer,
                            	  1713: 							* $00=float
00:00001116 6BD2            	  1714: 	BMI.s		LAB_1829			* branch if string
                            	  1715: 
                            	  1716: ** replace the two lines above with this code
                            	  1717: 
                            	  1718: **	move.b	Dtypef(a3),d0		* get data type flag, $80=string, $00=numeric
                            	  1719: **	BMI.s		LAB_1829			* branch if string
                            	  1720: 
00:00001118 610013B8        	  1721: 	BSR		LAB_2970			* convert FAC1 to string
00:0000111C 61000A6A        	  1722: 	BSR		LAB_20AE			* print " terminated string to FAC1 stack
                            	  1723: 
                            	  1724: * don't check fit if terminal width byte is zero
                            	  1725: 
00:00001120 7000            	  1726: 	moveq		#0,d0				* clear d0
00:00001122 102B05E6        	  1727: 	move.b	TWidth(a3),d0		* get terminal width byte
00:00001126 670C            	  1728: 	BEQ.s		LAB_185E			* skip check if zero
                            	  1729: 
00:00001128 902C0007        	  1730: 	SUB.b		7(a4),d0			* subtract string length
00:0000112C 902B05E5        	  1731: 	SUB.b		TPos(a3),d0			* subtract terminal position
00:00001130 6402            	  1732: 	BCC.s		LAB_185E			* branch if less than terminal width
                            	  1733: 
00:00001132 610A            	  1734: 	BSR.s		LAB_CRLF			* else print CR/LF
                            	  1735: LAB_185E
00:00001134 616A            	  1736: 	BSR.s		LAB_18C6			* print string from stack
00:00001136 60B6            	  1737: 	BRA.s		LAB_182C			* always go continue processing line
                            	  1738: 
                            	  1739: * CR/LF return to BASIC from BASIC input handler
                            	  1740: * leaves a0 pointing to the buffer start
                            	  1741: 
                            	  1742: LAB_1866
00:00001138 11BC00001000    	  1743: 	move.b	#$00,(a0,d1.w)		* null terminate input
                            	  1744: 
                            	  1745: * print CR/LF
                            	  1746: 
                            	  1747: LAB_CRLF
00:0000113E 700D            	  1748: 	moveq		#$0D,d0			* load [CR]
00:00001140 6174            	  1749: 	BSR.s		LAB_PRNA			* go print the character
00:00001142 700A            	  1750: 	moveq		#$0A,d0			* load [LF]
00:00001144 6070            	  1751: 	BRA.s		LAB_PRNA			* go print the character & return
                            	  1752: 
                            	  1753: LAB_188B
00:00001146 142B05E5        	  1754: 	move.b	TPos(a3),d2			* get terminal position
00:0000114A B42B05E7        	  1755: 	CMP.b		Iclim(a3),d2		* compare with input column limit
00:0000114E 6504            	  1756: 	BCS.s		LAB_1898			* branch if less than Iclim
                            	  1757: 
00:00001150 61EC            	  1758: 	BSR.s		LAB_CRLF			* else print CR/LF (next line)
00:00001152 603E            	  1759: 	BRA.s		LAB_18BD			* continue with PRINT processing
                            	  1760: 
                            	  1761: LAB_1898
00:00001154 942B05E2        	  1762: 	SUB.b		TabSiz(a3),d2		* subtract TAB size
00:00001158 64FA            	  1763: 	BCC.s		LAB_1898			* loop if result was >= 0
                            	  1764: 
00:0000115A 4402            	  1765: 	NEG.b		d2				* twos complement it
00:0000115C 6022            	  1766: 	BRA.s		LAB_18B7			* print d2 spaces
                            	  1767: 
                            	  1768: 							* do TAB/SPC
                            	  1769: LAB_18A2
00:0000115E 3F00            	  1770: 	MOVE.w	d0,-(sp)			* save token
00:00001160 61000D6E        	  1771: 	BSR		LAB_SGBY			* increment and get byte, result in d0 and Itemp
00:00001164 3400            	  1772: 	MOVE.w	d0,d2				* copy byte
00:00001166 61000404        	  1773: 	BSR		LAB_GBYT			* get basic byte back
00:0000116A B03C0029        	  1774: 	CMP.b		#$29,d0			* is next character ")"
00:0000116E 6600F852        	  1775: 	BNE		LAB_SNER			* if not do syntax error, then warm start
                            	  1776: 
00:00001172 301F            	  1777: 	MOVE.w	(sp)+,d0			* get token back
00:00001174 B03C00A8        	  1778: 	CMP.b		#TK_TAB,d0			* was it TAB ?
00:00001178 6606            	  1779: 	BNE.s		LAB_18B7			* branch if not (was SPC)
                            	  1780: 
                            	  1781: 							* calculate TAB offset
00:0000117A 942B05E5        	  1782: 	SUB.b		TPos(a3),d2			* subtract terminal position
00:0000117E 6312            	  1783: 	BLS.s		LAB_18BD			* branch if result was <= 0
                            	  1784: 							* can't TAB backwards or already there
                            	  1785: 
                            	  1786: 							* print d2.b spaces
                            	  1787: LAB_18B7
00:00001180 7000            	  1788: 	moveq		#0,d0				* clear longword
00:00001182 5300            	  1789: 	SUBQ.b	#1,d0				* make d0 = $FF
00:00001184 C480            	  1790: 	AND.l		d0,d2				* mask for byte only
00:00001186 670A            	  1791: 	BEQ.s		LAB_18BD			* branch if zero
                            	  1792: 
00:00001188 7020            	  1793: 	moveq		#$20,d0			* load " "
00:0000118A 5302            	  1794: 	SUBQ.b	#1,d2				* adjust for DBF loop
                            	  1795: LAB_18B8
00:0000118C 6128            	  1796: 	BSR.s		LAB_PRNA			* go print
00:0000118E 51CAFFFC        	  1797: 	DBF		d2,LAB_18B8			* decrement count and loop if not all done
                            	  1798: 
                            	  1799: 							* continue with PRINT processing
                            	  1800: LAB_18BD
00:00001192 610003D6        	  1801: 	BSR		LAB_IGBY			* increment & scan memory
00:00001196 6600FF5C        	  1802: 	BNE		LAB_1831			* if byte continue executing PRINT
                            	  1803: 
00:0000119A 4E75            	  1804: 	RTS						* exit if nothing more to print
                            	  1805: 
                            	  1806: * print null terminated string from a0
                            	  1807: 
                            	  1808: LAB_18C3
00:0000119C 610009EA        	  1809: 	BSR		LAB_20AE			* print terminated string to FAC1/stack
                            	  1810: 
                            	  1811: * print string from stack
                            	  1812: 
                            	  1813: LAB_18C6
00:000011A0 61000BD2        	  1814: 	BSR		LAB_22B6			* pop string off descriptor stack or from memory
                            	  1815: 							* returns with d0 = length, a0 = pointer
00:000011A4 670C            	  1816: 	BEQ.s		RTS_009			* exit (RTS) if null string
                            	  1817: 
00:000011A6 3200            	  1818: 	MOVE.w	d0,d1				* copy length & set Z flag
00:000011A8 5341            	  1819: 	SUBQ.w	#1,d1				* -1 for BF loop
                            	  1820: LAB_18CD
00:000011AA 1018            	  1821: 	move.b	(a0)+,d0			* get byte from string
00:000011AC 6108            	  1822: 	BSR.s		LAB_PRNA			* go print the character
00:000011AE 51C9FFFA        	  1823: 	DBF		d1,LAB_18CD			* decrement count and loop if not done yet
                            	  1824: 
                            	  1825: RTS_009
00:000011B2 4E75            	  1826: 	RTS
                            	  1827: 
                            	  1828: * print "?" character
                            	  1829: 
                            	  1830: LAB_18E3
00:000011B4 703F            	  1831: 	moveq		#$3F,d0			* load "?" character
                            	  1832: 
                            	  1833: * print character in d0, includes the null handler and infinite line length code
                            	  1834: * changes no registers
                            	  1835: 
                            	  1836: LAB_PRNA
00:000011B6 2F01            	  1837: 	move.l	d1,-(SP)			* save d1
00:000011B8 B03C0020        	  1838: 	CMP.b		#$20,d0			* compare with " "
00:000011BC 6528            	  1839: 	BCS.s		LAB_18F9			* branch if less, non printing character
                            	  1840: 
                            	  1841: 							* don't check fit if terminal width byte is zero
00:000011BE 122B05E6        	  1842: 	move.b	TWidth(a3),d1		* get terminal width
00:000011C2 6610            	  1843: 	BNE.s		LAB_18F0			* branch if not zero (not infinite length)
                            	  1844: 
                            	  1845: 							* is "infinite line" so check TAB position
00:000011C4 122B05E5        	  1846: 	move.b	TPos(a3),d1			* get position
00:000011C8 922B05E2        	  1847: 	SUB.b		TabSiz(a3),d1		* subtract TAB size
00:000011CC 6614            	  1848: 	BNE.s		LAB_18F7			* skip reset if different
                            	  1849: 
00:000011CE 174105E5        	  1850: 	move.b	d1,TPos(a3)			* else reset position
00:000011D2 600E            	  1851: 	BRA.s		LAB_18F7			* go print character
                            	  1852: 
                            	  1853: LAB_18F0
00:000011D4 B22B05E5        	  1854: 	CMP.b		TPos(a3),d1			* compare with terminal character position
00:000011D8 6608            	  1855: 	BNE.s		LAB_18F7			* branch if not at end of line
                            	  1856: 
00:000011DA 2F00            	  1857: 	move.l	d0,-(SP)			* save d0
00:000011DC 6100FF60        	  1858: 	BSR		LAB_CRLF			* else print CR/LF
00:000011E0 201F            	  1859: 	move.l	(SP)+,d0			* restore d0
                            	  1860: LAB_18F7
00:000011E2 522B05E5        	  1861: 	ADDQ.b	#$01,TPos(a3)		* increment terminal position
                            	  1862: LAB_18F9
00:000011E6 4EAB0412        	  1863: 	JSR		V_OUTP(a3)			* output byte via output vector
00:000011EA B03C000D        	  1864: 	CMP.b		#$0D,d0			* compare with [CR]
00:000011EE 6618            	  1865: 	BNE.s		LAB_188A			* branch if not [CR]
                            	  1866: 
                            	  1867: 							* else print nullct nulls after the [CR]
00:000011F0 7200            	  1868: 	moveq		#$00,d1			* clear d1
00:000011F2 122B05E4        	  1869: 	move.b	Nullct(a3),d1		* get null count
00:000011F6 670C            	  1870: 	BEQ.s		LAB_1886			* branch if no nulls
                            	  1871: 
00:000011F8 7000            	  1872: 	moveq		#$00,d0			* load [NULL]
                            	  1873: LAB_1880
00:000011FA 4EAB0412        	  1874: 	JSR		V_OUTP(a3)			* go print the character
00:000011FE 51C9FFFA        	  1875: 	DBF		d1,LAB_1880			* decrement count and loop if not all done
                            	  1876: 
00:00001202 700D            	  1877: 	moveq		#$0D,d0			* restore the character
                            	  1878: LAB_1886
00:00001204 174105E5        	  1879: 	move.b	d1,TPos(a3)			* clear terminal position
                            	  1880: LAB_188A
00:00001208 221F            	  1881: 	move.l	(SP)+,d1			* restore d1
00:0000120A 4E75            	  1882: 	RTS
                            	  1883: 
                            	  1884: * handle bad input data
                            	  1885: 
                            	  1886: LAB_1904
00:0000120C 2A5F            	  1887: 	MOVEA.l	(sp)+,a5			* restore execute pointer
00:0000120E 4A2B05E0        	  1888: 	TST.b		Imode(a3)			* test input mode flag, $00=INPUT, $98=READ
00:00001212 6A0A            	  1889: 	BPL.s		LAB_1913			* branch if INPUT (go do redo)
                            	  1890: 
00:00001214 276B045E0452    	  1891: 	move.l	Dlinel(a3),Clinel(a3)	* save DATA line as current line
00:0000121A 6000F77A        	  1892: 	BRA		LAB_TMER			* do type mismatch error, then warm start
                            	  1893: 
                            	  1894: 							* mode was INPUT
                            	  1895: LAB_1913
00:0000121E 41FA271C        	  1896: 	lea		(LAB_REDO,PC),a0		* point to redo message
00:00001222 6100FF78        	  1897: 	BSR		LAB_18C3			* print null terminated string from memory
00:00001226 2A6B045A        	  1898: 	MOVEA.l	Cpntrl(a3),a5		* save continue pointer as BASIC execute pointer
00:0000122A 4E75            	  1899: 	RTS
                            	  1900: 
                            	  1901: * perform INPUT
                            	  1902: 
                            	  1903: LAB_INPUT
00:0000122C 61000860        	  1904: 	BSR		LAB_CKRN			* check not Direct (back here if ok)
00:00001230 B03C0022        	  1905: 	CMP.b		#$22,d0			* compare next byte with open quote
00:00001234 660E            	  1906: 	BNE.s		LAB_1934			* branch if no prompt string
                            	  1907: 
00:00001236 6100030A        	  1908: 	BSR		LAB_1BC1			* print "..." string
00:0000123A 703B            	  1909: 	moveq		#$3B,d0			* load d0 with ";"
00:0000123C 61000324        	  1910: 	BSR		LAB_SCCA			* scan for CHR$(d0), else do syntax error/warm
                            	  1911: 							* start
00:00001240 6100FF5E        	  1912: 	BSR		LAB_18C6			* print string from Sutill/Sutilh
                            	  1913: 							* done with prompt, now get data
                            	  1914: LAB_1934
00:00001244 6100F89A        	  1915: 	BSR		LAB_INLN			* print "? " and get BASIC input
                            	  1916: 							* return a0 pointing to the buffer start
00:00001248 7000            	  1917: 	moveq		#0,d0				* clear d0 (flag INPUT)
00:0000124A 4A10            	  1918: 	TST.b		(a0)				* test first byte from buffer
00:0000124C 660A            	  1919: 	BNE.s		LAB_1953			* branch if not null input
                            	  1920: 
00:0000124E 6000FBAC        	  1921: 	BRA		LAB_1647			* go do BREAK exit
                            	  1922: 
                            	  1923: * perform READ
                            	  1924: 
                            	  1925: LAB_READ
00:00001252 206B0462        	  1926: 	MOVEA.l	Dptrl(a3),a0		* get DATA pointer
00:00001256 7098            	  1927: 	moveq		#$98-$100,d0		* flag READ
                            	  1928: LAB_1953
00:00001258 174005E0        	  1929: 	move.b	d0,Imode(a3)		* set input mode flag, $00=INPUT, $98=READ
00:0000125C 27480466        	  1930: 	move.l	a0,Rdptrl(a3)		* save READ pointer
                            	  1931: 
                            	  1932: 							* READ or INPUT next variable from list
                            	  1933: LAB_195B
00:00001260 6100050C        	  1934: 	BSR		LAB_GVAR			* get variable address in a0
00:00001264 27480472        	  1935: 	move.l	a0,Lvarpl(a3)		* save variable address as LET variable
00:00001268 2F0D            	  1936: 	move.l	a5,-(sp)			* save BASIC execute pointer
00:0000126A 2A6B0466        	  1937: 	MOVEA.l	Rdptrl(a3),a5		* set READ pointer as BASIC execute pointer
00:0000126E 610002FC        	  1938: 	BSR		LAB_GBYT			* scan memory
00:00001272 661E            	  1939: 	BNE.s		LAB_1986			* branch if not null
                            	  1940: 
                            	  1941: 							* pointer was to null entry
00:00001274 4A2B05E0        	  1942: 	TST.b		Imode(a3)			* test input mode flag, $00=INPUT, $98=READ
00:00001278 6B72            	  1943: 	BMI.s		LAB_19DD			* branch if READ (go find next statement)
                            	  1944: 
                            	  1945: 							* mode was INPUT
00:0000127A 6100FF38        	  1946: 	BSR		LAB_18E3			* print "?" character, double ? for extended
                            	  1947: 							* input
00:0000127E 6100F860        	  1948: 	BSR		LAB_INLN			* print "? " and get BASIC input
                            	  1949: 							* return a0 pointing to the buffer start
00:00001282 4A10            	  1950: 	TST.b		(a0)				* test first byte from buffer
00:00001284 6604            	  1951: 	BNE.s		LAB_1984			* branch if not null input
                            	  1952: 
00:00001286 6000FB74        	  1953: 	BRA		LAB_1647			* go do BREAK exit
                            	  1954: 
                            	  1955: LAB_1984
00:0000128A 2A48            	  1956: 	MOVEA.l	a0,a5				* set BASIC execute pointer to buffer start
00:0000128C 534D            	  1957: 	SUBQ.w	#1,a5				* decrement pointer
                            	  1958: LAB_1985
00:0000128E 610002DA        	  1959: 	BSR		LAB_IGBY			* increment & scan memory
                            	  1960: LAB_1986
00:00001292 4A2B05B5        	  1961: 	TST.b		Dtypef(a3)			* test data type, $80=string, $40=integer,
                            	  1962: 							* $00=float
00:00001296 6A20            	  1963: 	BPL.s		LAB_19B0			* branch if numeric
                            	  1964: 
                            	  1965: 							* else get string
00:00001298 1400            	  1966: 	move.b	d0,d2				* save search character
00:0000129A B03C0022        	  1967: 	CMP.b		#$22,d0			* was it " ?
00:0000129E 6706            	  1968: 	BEQ.s		LAB_1999			* branch if so
                            	  1969: 
00:000012A0 743A            	  1970: 	moveq		#':',d2			* set new search character
00:000012A2 702C            	  1971: 	moveq		#',',d0			* other search character is ","
00:000012A4 534D            	  1972: 	SUBQ.w	#1,a5				* decrement BASIC execute pointer
                            	  1973: LAB_1999
00:000012A6 524D            	  1974: 	ADDQ.w	#1,a5				* increment BASIC execute pointer
00:000012A8 1600            	  1975: 	move.b	d0,d3				* set second search character
00:000012AA 204D            	  1976: 	MOVEA.l	a5,a0				* BASIC execute pointer is source
                            	  1977: 
00:000012AC 610008DE        	  1978: 	BSR		LAB_20B4			* print d2/d3 terminated string to FAC1 stack
                            	  1979: 							* d2 = Srchc, d3 = Asrch, a0 is source
00:000012B0 2A4A            	  1980: 	MOVEA.l	a2,a5				* copy end of string to BASIC execute pointer
00:000012B2 6100FDD2        	  1981: 	BSR		LAB_17D5			* go do string LET
00:000012B6 6010            	  1982: 	BRA.s		LAB_19B6			* go check string terminator
                            	  1983: 
                            	  1984: 							* get numeric INPUT
                            	  1985: LAB_19B0
00:000012B8 1F2B05B5        	  1986: 	move.b	Dtypef(a3),-(sp)		* save variable data type
00:000012BC 61001A80        	  1987: 	BSR		LAB_2887			* get FAC1 from string
00:000012C0 175F05B5        	  1988: 	move.b	(sp)+,Dtypef(a3)		* restore variable data type
00:000012C4 6100108C        	  1989: 	BSR		LAB_PFAC			* pack FAC1 into (Lvarpl)
                            	  1990: LAB_19B6
00:000012C8 610002A2        	  1991: 	BSR		LAB_GBYT			* scan memory
00:000012CC 670A            	  1992: 	BEQ.s		LAB_19C2			* branch if null (last entry)
                            	  1993: 
00:000012CE B03C002C        	  1994: 	CMP.b		#',',d0			* else compare with ","
00:000012D2 6600FF38        	  1995: 	BNE		LAB_1904			* if not "," go handle bad input data
                            	  1996: 
00:000012D6 524D            	  1997: 	ADDQ.w	#1,a5				* else was "," so point to next chr
                            	  1998: 							* got good input data
                            	  1999: LAB_19C2
00:000012D8 274D0466        	  2000: 	move.l	a5,Rdptrl(a3)		* save read pointer for now
00:000012DC 2A5F            	  2001: 	MOVEA.l	(sp)+,a5			* restore execute pointer
00:000012DE 6100028C        	  2002: 	BSR		LAB_GBYT			* scan memory
00:000012E2 6736            	  2003: 	BEQ.s		LAB_1A03			* if null go do extra ignored message
                            	  2004: 
00:000012E4 487AFF7A        	  2005: 	PEA		(LAB_195B,PC)		* set return address
00:000012E8 60000276        	  2006: 	BRA		LAB_1C01			* scan for "," else do syntax error/warm start
                            	  2007: 							* then go INPUT next variable from list
                            	  2008: 
                            	  2009: 							* find next DATA statement or do "Out of Data"
                            	  2010: 							* error
                            	  2011: LAB_19DD
00:000012EC 6100FC54        	  2012: 	BSR		LAB_SNBS			* scan for next BASIC statement ([:] or [EOL])
                            	  2013: 							* returns a0 as pointer to [:] or [EOL]
00:000012F0 2A48            	  2014: 	MOVEA.l	a0,a5				* add index, now = pointer to [EOL]/[EOS]
00:000012F2 524D            	  2015: 	ADDQ.w	#1,a5				* pointer to next character
00:000012F4 B03C003A        	  2016: 	CMP.b		#':',d0			* was it statement end?
00:000012F8 6712            	  2017: 	BEQ.s		LAB_19F6			* branch if [:]
                            	  2018: 
                            	  2019: 							* was [EOL] so find next line
                            	  2020: 
00:000012FA 320D            	  2021: 	MOVE.w	a5,d1				* past pad byte(s)
00:000012FC C27C0001        	  2022: 	AND.w		#1,d1				* mask odd bit
00:00001300 DAC1            	  2023: 	ADD.w		d1,a5				* add pointer
00:00001302 241D            	  2024: 	move.l	(a5)+,d2			* get next line pointer
00:00001304 6700F6B4        	  2025: 	BEQ		LAB_ODER			* branch if end of program
                            	  2026: 
00:00001308 275D045E        	  2027: 	move.l	(a5)+,Dlinel(a3)		* save current DATA line
                            	  2028: LAB_19F6
00:0000130C 6100025E        	  2029: 	BSR		LAB_GBYT			* scan memory
00:00001310 B03C0083        	  2030: 	CMP.b		#TK_DATA,d0			* compare with "DATA" token
00:00001314 6700FF78        	  2031: 	BEQ		LAB_1985			* was "DATA" so go do next READ
                            	  2032: 
00:00001318 60D2            	  2033: 	BRA.s		LAB_19DD			* go find next statement if not "DATA"
                            	  2034: 
                            	  2035: * end of INPUT/READ routine
                            	  2036: 
                            	  2037: LAB_1A03
00:0000131A 206B0466        	  2038: 	MOVEA.l	Rdptrl(a3),a0		* get temp READ pointer
00:0000131E 4A2B05E0        	  2039: 	TST.b		Imode(a3)			* get input mode flag, $00=INPUT, $98=READ
00:00001322 6A06            	  2040: 	BPL.s		LAB_1A0E			* branch if INPUT
                            	  2041: 
00:00001324 27480462        	  2042: 	move.l	a0,Dptrl(a3)		* else save temp READ pointer as DATA pointer
00:00001328 4E75            	  2043: 	RTS
                            	  2044: 
                            	  2045: 							* we were getting INPUT
                            	  2046: LAB_1A0E
00:0000132A 4A10            	  2047: 	TST.b		(a0)				* test next byte
00:0000132C 6602            	  2048: 	BNE.s		LAB_1A1B			* error if not end of INPUT
                            	  2049: 
00:0000132E 4E75            	  2050: 	RTS
                            	  2051: 							* user typed too much
                            	  2052: LAB_1A1B
00:00001330 41FA25FA        	  2053: 	lea		(LAB_IMSG,PC),a0		* point to extra ignored message
00:00001334 6000FE66        	  2054: 	BRA		LAB_18C3			* print null terminated string from memory & RTS
                            	  2055: 
                            	  2056: * perform NEXT
                            	  2057: 
                            	  2058: LAB_NEXT
00:00001338 6610            	  2059: 	BNE.s		LAB_1A46			* branch if NEXT var
                            	  2060: 
00:0000133A 584F            	  2061: 	ADDQ.w	#4,sp				* back past return address
00:0000133C 0C570081        	  2062: 	CMP.w		#TK_FOR,(sp)		* is FOR token on stack?
00:00001340 6600F684        	  2063: 	BNE		LAB_NFER			* if not do NEXT without FOR err/warm start
                            	  2064: 
00:00001344 206F0002        	  2065: 	MOVEA.l	2(sp),a0			* get stacked FOR variable pointer
00:00001348 601C            	  2066: 	BRA.s		LAB_11BD			* branch always (no variable to search for)
                            	  2067: 
                            	  2068: * NEXT var
                            	  2069: 
                            	  2070: LAB_1A46
00:0000134A 61000422        	  2071: 	BSR		LAB_GVAR			* get variable address in a0
00:0000134E 584F            	  2072: 	ADDQ.w	#4,sp				* back past return address
00:00001350 303C0081        	  2073: 	MOVE.w	#TK_FOR,d0			* set for FOR token
00:00001354 721A            	  2074: 	moveq		#$1A,d1			* set for FOR use size
00:00001356 6002            	  2075: 	BRA.s		LAB_11A6			* enter loop for next variable search
                            	  2076: 
                            	  2077: LAB_11A5
00:00001358 DFC1            	  2078: 	ADDA.l	d1,sp				* add FOR stack use size
                            	  2079: LAB_11A6
00:0000135A B057            	  2080: 	CMP.w		(sp),d0			* is FOR token on stack?
00:0000135C 6600F668        	  2081: 	BNE		LAB_NFER			* if not found do NEXT without FOR error and
                            	  2082: 							* warm start
                            	  2083: 
                            	  2084: 							* was FOR token
00:00001360 B1EF0002        	  2085: 	CMPA.l	2(sp),a0			* compare var pointer with stacked var pointer
00:00001364 66F2            	  2086: 	BNE.s		LAB_11A5			* loop if no match found
                            	  2087: 
                            	  2088: LAB_11BD
00:00001366 376F0006059C    	  2089: 	MOVE.w	6(sp),FAC2_e(a3)		* get STEP value exponent and sign
00:0000136C 276F00080598    	  2090: 	move.l	8(sp),FAC2_m(a3)		* get STEP value mantissa
                            	  2091: 
00:00001372 176F001205B5    	  2092: 	move.b	18(sp),Dtypef(a3)		* restore FOR variable data type
00:00001378 61000216        	  2093: 	BSR		LAB_1C19			* check type and unpack (a0)
                            	  2094: 
00:0000137C 176B059D059E    	  2095: 	move.b	FAC2_s(a3),FAC_sc(a3)	* save FAC2 sign as sign compare
00:00001382 102B0595        	  2096: 	move.b	FAC1_s(a3),d0		* get FAC1 sign
00:00001386 B12B059E        	  2097: 	EOR.b		d0,FAC_sc(a3)		* EOR to create sign compare
                            	  2098: 
00:0000138A 27480472        	  2099: 	move.l	a0,Lvarpl(a3)		* save variable pointer
00:0000138E 61000CB8        	  2100: 	BSR		LAB_ADD			* add STEP value to FOR variable
00:00001392 176F001205B5    	  2101: 	move.b	18(sp),Dtypef(a3)		* restore FOR variable data type (again)
00:00001398 61000FB8        	  2102: 	BSR		LAB_PFAC			* pack FAC1 into FOR variable (Lvarpl)
                            	  2103: 
00:0000139C 376F000C059C    	  2104: 	MOVE.w	12(sp),FAC2_e(a3)		* get TO value exponent and sign
00:000013A2 276F000E0598    	  2105: 	move.l	14(sp),FAC2_m(a3)		* get TO value mantissa
                            	  2106: 
00:000013A8 176B059D059E    	  2107: 	move.b	FAC2_s(a3),FAC_sc(a3)	* save FAC2 sign as sign compare
00:000013AE 102B0595        	  2108: 	move.b	FAC1_s(a3),d0		* get FAC1 sign
00:000013B2 B12B059E        	  2109: 	EOR.b		d0,FAC_sc(a3)		* EOR to create sign compare
                            	  2110: 
00:000013B6 61001044        	  2111: 	BSR		LAB_27FA			* compare FAC1 with FAC2 (TO value)
                            	  2112: 							* returns d0=+1 if FAC1 > FAC2
                            	  2113: 							* returns d0= 0 if FAC1 = FAC2
                            	  2114: 							* returns d0=-1 if FAC1 < FAC2
                            	  2115: 
00:000013BA 322F0006        	  2116: 	MOVE.w	6(sp),d1			* get STEP value exponent and sign
00:000013BE B141            	  2117: 	EOR.w		d0,d1				* EOR compare result with STEP exponent and sign
                            	  2118: 
00:000013C0 4A00            	  2119: 	TST.b		d0				* test for =
00:000013C2 6704            	  2120: 	BEQ.s		LAB_1A90			* branch if = (loop INcomplete)
                            	  2121: 
00:000013C4 4A01            	  2122: 	TST.b		d1				* test result
00:000013C6 6A0E            	  2123: 	BPL.s		LAB_1A9B			* branch if > (loop complete)
                            	  2124: 
                            	  2125: 							* loop back and do it all again
                            	  2126: LAB_1A90
00:000013C8 276F00140452    	  2127: 	move.l	20(sp),Clinel(a3)		* reset current line
00:000013CE 2A6F0018        	  2128: 	move.l	24(sp),a5			* reset BASIC execute pointer
00:000013D2 6000F9BC        	  2129: 	BRA		LAB_15C2			* go do interpreter inner loop
                            	  2130: 
                            	  2131: 							* loop complete so carry on
                            	  2132: LAB_1A9B
00:000013D6 DEFC001C        	  2133: 	ADDA.w	#28,sp			* add 28 to dump FOR structure
00:000013DA 61000190        	  2134: 	BSR		LAB_GBYT			* scan memory
00:000013DE B03C002C        	  2135: 	CMP.b		#$2C,d0			* compare with ","
00:000013E2 6600F9AC        	  2136: 	BNE		LAB_15C2			* if not "," go do interpreter inner loop
                            	  2137: 
                            	  2138: 							* was "," so another NEXT variable to do
00:000013E6 61000182        	  2139: 	BSR		LAB_IGBY			* else increment & scan memory
00:000013EA 6100FF5E        	  2140: 	BSR		LAB_1A46			* do NEXT (var)
                            	  2141: 
                            	  2142: * evaluate expression & check is numeric, else do type mismatch
                            	  2143: 
                            	  2144: LAB_EVNM
00:000013EE 6116            	  2145: 	BSR.s		LAB_EVEX			* evaluate expression
                            	  2146: 
                            	  2147: * check if source is numeric, else do type mismatch
                            	  2148: 
                            	  2149: LAB_CTNM
00:000013F0 B040            	  2150: 	CMP.w		d0,d0				* required type is numeric so clear carry
                            	  2151: 
                            	  2152: * type match check, set C for string, clear C for numeric
                            	  2153: 
                            	  2154: LAB_CKTM
00:000013F2 082B000705B5    	  2155: 	BTST.b	#7,Dtypef(a3)		* test data type flag, don't change carry
00:000013F8 6606            	  2156: 	BNE.s		LAB_1ABA			* branch if data type is string
                            	  2157: 
                            	  2158: 							* else data type was numeric
00:000013FA 6500F59A        	  2159: 	BCS		LAB_TMER			* if required type is string do type mismatch
                            	  2160: 							* error
                            	  2161: 
00:000013FE 4E75            	  2162: 	RTS
                            	  2163: 							* data type was string, now check required type
                            	  2164: LAB_1ABA
00:00001400 6400F594        	  2165: 	BCC		LAB_TMER			* if required type is numeric do type mismatch
                            	  2166: 							* error
00:00001404 4E75            	  2167: 	RTS
                            	  2168: 
                            	  2169: * this routine evaluates any type of expression. first it pushes an end marker so
                            	  2170: * it knows when the expression has been evaluated, this is a precedence value of zero.
                            	  2171: * next the first value is evaluated, this can be an in line value, either numeric or
                            	  2172: * string, a variable or array element of any type, a function or even an expression
                            	  2173: * in parenthesis. this value is kept in FAC_1
                            	  2174: * after the value is evaluated a test is made on the next BASIC program byte, if it
                            	  2175: * is a comparrison operator i.e. "<", "=" or ">", then the corresponding bit is set
                            	  2176: * in the comparison evaluation flag. this test loops until no more comparrison operators
                            	  2177: * are found or more than one of any type is found. in the last case an error is generated
                            	  2178: 
                            	  2179: * evaluate expression
                            	  2180: 
                            	  2181: LAB_EVEX
00:00001406 1225            	  2182: 	move.b	-(a5),d1			* decrement BASIC execute pointer (faster)
                            	  2183: LAB_EVEZ
00:00001408 7200            	  2184: 	moveq		#0,d1				* clear precedence word
00:0000140A 601C            	  2185: 	BRA.s		LAB_1ACD			* enter loop
                            	  2186: 
                            	  2187: * get vector, set up operator then continue evaluation
                            	  2188: 
                            	  2189: LAB_1B43						*
00:0000140C 41FA1FA6        	  2190: 	lea		(LAB_OPPT,PC),a0		* point to operator vector table
00:00001410 30301002        	  2191: 	MOVE.w	2(a0,d1.w),d0		* get vector offset
00:00001414 48700000        	  2192: 	PEA		(a0,d0.w)			* push vector
                            	  2193: 
00:00001418 2F2B0590        	  2194: 	move.l	FAC1_m(a3),-(sp)		* push FAC1 mantissa
00:0000141C 3F2B0594        	  2195: 	MOVE.w	FAC1_e(a3),-(sp)		* push sign and exponent
00:00001420 1F2B05E3        	  2196: 	move.b	comp_f(a3),-(SP)		* push comparison evaluation flag
                            	  2197: 
00:00001424 32301000        	  2198: 	MOVE.w	(a0,d1.w),d1		* get precedence value
                            	  2199: LAB_1ACD
00:00001428 3F01            	  2200: 	MOVE.w	d1,-(sp)			* push precedence value
00:0000142A 610000EA        	  2201: 	BSR		LAB_GVAL			* get value from line
00:0000142E 177C000005E3    	  2202: 	move.b	#$00,comp_f(a3)		* clear compare function flag
                            	  2203: LAB_1ADB
00:00001434 61000136        	  2204: 	BSR		LAB_GBYT			* scan memory
                            	  2205: LAB_1ADE
00:00001438 903C00BB        	  2206: 	SUB.b		#TK_GT,d0			* subtract token for > (lowest compare function)
00:0000143C 652A            	  2207: 	BCS.s		LAB_1AFA			* branch if < TK_GT
                            	  2208: 
00:0000143E B03C0003        	  2209: 	CMP.b		#$03,d0			* compare with ">" to "<" tokens
00:00001442 650A            	  2210: 	BCS.s		LAB_1AE0			* branch if <= TK_SGN (is compare function)
                            	  2211: 
00:00001444 4A2B05E3        	  2212: 	TST.b		comp_f(a3)			* test compare function flag
00:00001448 6666            	  2213: 	BNE.s		LAB_1B2A			* branch if compare function
                            	  2214: 
00:0000144A 6000008C        	  2215: 	BRA		LAB_1B78			* go do functions
                            	  2216: 
                            	  2217: 							* was token for > = or < (d0 = 0, 1 or 2)
                            	  2218: LAB_1AE0
00:0000144E 7201            	  2219: 	moveq		#1,d1				* set to 0000 0001
00:00001450 E121            	  2220: 	ASL.b		d0,d1				* 1 if >, 2 if =, 4 if <
00:00001452 102B05E3        	  2221: 	move.b	comp_f(a3),d0		* copy old compare function flag
00:00001456 B32B05E3        	  2222: 	EOR.b		d1,comp_f(a3)		* EOR in this compare function bit
00:0000145A B02B05E3        	  2223: 	CMP.b		comp_f(a3),d0		* compare old with new compare function flag
00:0000145E 6400F562        	  2224: 	BCC		LAB_SNER			* if new <= old comp_f do syntax error and warm
                            	  2225: 							* start, there was more than one <, = or >
00:00001462 61000106        	  2226: 	BSR		LAB_IGBY			* increment & scan memory
00:00001466 60D0            	  2227: 	BRA.s		LAB_1ADE			* go do next character
                            	  2228: 
                            	  2229: 							* token is < ">" or > "<" tokens
                            	  2230: LAB_1AFA
00:00001468 4A2B05E3        	  2231: 	TST.b		comp_f(a3)			* test compare function flag
00:0000146C 6642            	  2232: 	BNE.s		LAB_1B2A			* branch if compare function
                            	  2233: 
                            	  2234: 							* was < TK_GT so is operator or lower
00:0000146E D03C000A        	  2235: 	ADD.b	#(TK_GT-TK_PLUS),d0		* add # of operators (+ - * / ^ AND OR EOR)
00:00001472 64000064        	  2236: 	BCC		LAB_1B78			* branch if < + operator
                            	  2237: 
00:00001476 6608            	  2238: 	BNE.s		LAB_1B0B			* branch if not + token
                            	  2239: 
00:00001478 4A2B05B5        	  2240: 	TST.b		Dtypef(a3)			* test data type, $80=string, $40=integer,
                            	  2241: 							* $00=float
00:0000147C 6B00088A        	  2242: 	BMI		LAB_224D			* type is string & token was +
                            	  2243: 
                            	  2244: LAB_1B0B
00:00001480 7200            	  2245: 	moveq		#0,d1				* clear longword
00:00001482 D000            	  2246: 	ADD.b		d0,d0				* *2
00:00001484 D000            	  2247: 	ADD.b		d0,d0				* *4
00:00001486 1200            	  2248: 	move.b	d0,d1				* copy to index
                            	  2249: LAB_1B13
00:00001488 301F            	  2250: 	MOVE.w	(sp)+,d0			* pull previous precedence
00:0000148A 41FA1F28        	  2251: 	lea		(LAB_OPPT,PC),a0		* set pointer to operator table
00:0000148E B0701000        	  2252: 	CMP.w		(a0,d1.w),d0		* compare with this opperator precedence
00:00001492 6400004A        	  2253: 	BCC		LAB_1B7D			* branch if previous precedence (d0) >=
                            	  2254: 
00:00001496 6100FF58        	  2255: 	BSR		LAB_CTNM			* check if source is numeric, else type mismatch
                            	  2256: LAB_1B1C
00:0000149A 3F00            	  2257: 	MOVE.w	d0,-(sp)			* save precedence
                            	  2258: LAB_1B1D
00:0000149C 6100FF6E        	  2259: 	BSR		LAB_1B43			* get vector, set-up operator and continue
                            	  2260: 							* evaluation
00:000014A0 301F            	  2261: 	MOVE.w	(sp)+,d0			* restore precedence
00:000014A2 222B05D8        	  2262: 	move.l	prstk(a3),d1		* get stacked function pointer
00:000014A6 6A24            	  2263: 	BPL.s		LAB_1B3C			* branch if stacked values
                            	  2264: 
00:000014A8 3000            	  2265: 	MOVE.w	d0,d0				* copy precedence (set flags)
00:000014AA 6730            	  2266: 	BEQ.s		LAB_1B7B			* exit if done
                            	  2267: 
00:000014AC 6000003E        	  2268: 	BRA		LAB_1B86			* else pop FAC2 & return (do function)
                            	  2269: 
                            	  2270: 							* was compare function (< = >)
                            	  2271: LAB_1B2A
00:000014B0 102B05B5        	  2272: 	move.b	Dtypef(a3),d0		* get data type flag
00:000014B4 122B05E3        	  2273: 	move.b	comp_f(a3),d1		* get compare function flag
00:000014B8 D000            	  2274: 	ADD.b		d0,d0				* string bit flag into X bit
00:000014BA D301            	  2275: 	ADDX.b	d1,d1				* shift compare function flag
                            	  2276: 
00:000014BC 177C000005B5    	  2277: 	move.b	#0,Dtypef(a3)		* clear data type flag, $00=float
00:000014C2 174105E3        	  2278: 	move.b	d1,comp_f(a3)		* save new compare function flag
00:000014C6 1225            	  2279: 	move.b	-(a5),d1			* decrement BASIC execute pointer (faster)
00:000014C8 7230            	  2280: 	moveq		#(TK_LT-TK_PLUS)*4,d1	* set offset to last operator entry
00:000014CA 60BC            	  2281: 	BRA.s		LAB_1B13			* branch always
                            	  2282: 
                            	  2283: LAB_1B3C
00:000014CC 41FA1EE6        	  2284: 	lea		(LAB_OPPT,PC),a0		* point to function vector table
00:000014D0 B0701000        	  2285: 	CMP.w		(a0,d1.w),d0		* compare with this opperator precedence
00:000014D4 6416            	  2286: 	BCC.s		LAB_1B86			* branch if d0 >=, pop FAC2 & return
                            	  2287: 
00:000014D6 60C2            	  2288: 	BRA.s		LAB_1B1C			* branch always
                            	  2289: 
                            	  2290: * do functions
                            	  2291: 
                            	  2292: LAB_1B78
00:000014D8 72FF            	  2293: 	moveq		#-1,d1			* flag all done
00:000014DA 301F            	  2294: 	MOVE.w	(sp)+,d0			* pull precedence word
                            	  2295: LAB_1B7B
00:000014DC 6732            	  2296: 	BEQ.s		LAB_1B9D			* exit if done
                            	  2297: 
                            	  2298: LAB_1B7D
00:000014DE B07C0064        	  2299: 	CMP.w		#$64,d0			* compare previous precedence with $64
00:000014E2 6704            	  2300: 	BEQ.s		LAB_1B84			* branch if was $64 (< function can be string)
                            	  2301: 
00:000014E4 6100FF0A        	  2302: 	BSR		LAB_CTNM			* check if source is numeric, else type mismatch
                            	  2303: LAB_1B84
00:000014E8 274105D8        	  2304: 	move.l	d1,prstk(a3)		* save current operator index
                            	  2305: 
                            	  2306: 							* pop FAC2 & return
                            	  2307: LAB_1B86
00:000014EC 101F            	  2308: 	move.b	(sp)+,d0			* pop comparison evaluation flag
00:000014EE 1200            	  2309: 	move.b	d0,d1				* copy comparison evaluation flag
00:000014F0 E208            	  2310: 	LSR.b		#1,d0				* shift out comparison evaluation lowest bit
00:000014F2 174005E1        	  2311: 	move.b	d0,Cflag(a3)		* save comparison evaluation flag
00:000014F6 375F059C        	  2312: 	MOVE.w	(sp)+,FAC2_e(a3)		* pop exponent and sign
00:000014FA 275F0598        	  2313: 	move.l	(sp)+,FAC2_m(a3)		* pop mantissa
00:000014FE 176B059D059E    	  2314: 	move.b	FAC2_s(a3),FAC_sc(a3)	* copy FAC2 sign
00:00001504 102B0595        	  2315: 	move.b	FAC1_s(a3),d0		* get FAC1 sign
00:00001508 B12B059E        	  2316: 	EOR.b		d0,FAC_sc(a3)		* EOR FAC1 sign and set sign compare
                            	  2317: 
00:0000150C E209            	  2318: 	LSR.b		#1,d1				* type bit into X and C
00:0000150E 4E75            	  2319: 	RTS
                            	  2320: 
                            	  2321: LAB_1B9D
00:00001510 102B0594        	  2322: 	move.b	FAC1_e(a3),d0		* get FAC1 exponent
00:00001514 4E75            	  2323: 	RTS
                            	  2324: 
                            	  2325: * get value from line
                            	  2326: 
                            	  2327: LAB_GVAL
00:00001516 61000052        	  2328: 	BSR		LAB_IGBY			* increment & scan memory
00:0000151A 65001822        	  2329: 	BCS		LAB_2887			* if numeric get FAC1 from string & return
                            	  2330: 
00:0000151E 4A00            	  2331: 	TST.b		d0				* test byte
00:00001520 6B000084        	  2332: 	BMI		LAB_1BD0			* if -ve go test token values
                            	  2333: 
                            	  2334: 							* else it is either a string, number, variable
                            	  2335: 							* or (<expr>)
00:00001524 B03C0024        	  2336: 	CMP.b		#'$',d0			* compare with "$"
00:00001528 67001814        	  2337: 	BEQ		LAB_2887			* if "$" get hex number from string & return
                            	  2338: 
00:0000152C B03C0025        	  2339: 	CMP.b		#'%',d0			* else compare with "%"
00:00001530 6700180C        	  2340: 	BEQ		LAB_2887			* if "%" get binary number from string & return
                            	  2341: 
00:00001534 B03C002E        	  2342: 	CMP.b		#$2E,d0			* compare with "."
00:00001538 67001804        	  2343: 	BEQ		LAB_2887			* if so get FAC1 from string and return
                            	  2344: 							* (e.g. .123)
                            	  2345: 
                            	  2346: 							* wasn't a number so ...
00:0000153C B03C0022        	  2347: 	CMP.b		#$22,d0			* compare with "
00:00001540 660C            	  2348: 	BNE.s		LAB_1BF3			* if not open quote it must be a variable or
                            	  2349: 							* open bracket
                            	  2350: 
                            	  2351: 							* was open quote so get the enclosed string
                            	  2352: 
                            	  2353: * print "..." string to string stack
                            	  2354: 
                            	  2355: LAB_1BC1
00:00001542 101D            	  2356: 	move.b	(a5)+,d0			* increment BASIC execute pointer (past ")
                            	  2357: 							* fastest/shortest method
00:00001544 204D            	  2358: 	MOVEA.l	a5,a0				* copy basic execute pointer (string start)
00:00001546 61000640        	  2359: 	BSR		LAB_20AE			* print " terminated string to stack
00:0000154A 2A4A            	  2360: 	MOVEA.l	a2,a5				* restore BASIC execute pointer from temp
00:0000154C 4E75            	  2361: 	RTS
                            	  2362: 
                            	  2363: * get value from line .. continued
                            	  2364: 							* wasn't any sort of number so ...
                            	  2365: LAB_1BF3
00:0000154E B03C0028        	  2366: 	CMP.b		#'(',d0			* compare with "("
00:00001552 6638            	  2367: 	BNE.s		LAB_1C18			* if not "(" get (var) and return value in FAC1
                            	  2368: 							* and $ flag
                            	  2369: 
                            	  2370: * evaluate expression within parentheses
                            	  2371: 
                            	  2372: LAB_1BF7
00:00001554 6100FEB2        	  2373: 	BSR		LAB_EVEZ			* evaluate expression (no decrement)
                            	  2374: 
                            	  2375: * all the 'scan for' routines return the character after the sought character
                            	  2376: 
                            	  2377: * scan for ")" , else do syntax error, then warm start
                            	  2378: 
                            	  2379: LAB_1BFB
00:00001558 7029            	  2380: 	moveq		#$29,d0			* load d0 with ")"
00:0000155A 6006            	  2381: 	BRA.s		LAB_SCCA
                            	  2382: 
                            	  2383: * scan for "," and get byte, else do Syntax error then warm start
                            	  2384: 
                            	  2385: LAB_SCGB
00:0000155C 487A0976        	  2386: 	PEA		(LAB_GTBY,PC)		* return address is to get byte parameter
                            	  2387: 
                            	  2388: * scan for "," , else do syntax error, then warm start
                            	  2389: 
                            	  2390: LAB_1C01
00:00001560 702C            	  2391: 	moveq		#$2C,d0			* load d0 with ","
                            	  2392: 
                            	  2393: * scan for CHR$(d0) , else do syntax error, then warm start
                            	  2394: 
                            	  2395: LAB_SCCA
00:00001562 B01D            	  2396: 	CMP.b		(a5)+,d0			* check next byte is = d0
00:00001564 6706            	  2397: 	BEQ.s		LAB_GBYT			* if so go get next
                            	  2398: 
00:00001566 6000F45A        	  2399: 	BRA		LAB_SNER			* else do syntax error/warm start
                            	  2400: 
                            	  2401: * BASIC increment and scan memory routine
                            	  2402: 
                            	  2403: LAB_IGBY
00:0000156A 101D            	  2404: 	move.b	(a5)+,d0			* get byte & increment pointer
                            	  2405: 
                            	  2406: * scan memory routine, exit with Cb = 1 if numeric character
                            	  2407: * also skips any spaces encountered
                            	  2408: 
                            	  2409: LAB_GBYT
00:0000156C 1015            	  2410: 	move.b	(a5),d0			* get byte
                            	  2411: 
                            	  2412: LAB_TBYT
00:0000156E B03C0020        	  2413: 	CMP.b		#$20,d0			* compare with " "
00:00001572 67F6            	  2414: 	BEQ.s		LAB_IGBY			* if " " go do next
                            	  2415: 
                            	  2416: * test current BASIC byte, exit with Cb = 1 if numeric character
                            	  2417: 
00:00001574 B03C003A        	  2418: 	CMP.b		#$3A,d0			* compare with ":"
00:00001578 6406            	  2419: 	BCC.s		RTS_001			* exit if >= (not numeric, carry clear)
                            	  2420: 
00:0000157A 7CD0            	  2421: 	moveq		#$D0,d6			* set -"0"
00:0000157C D006            	  2422: 	ADD.b		d6,d0				* add -"0"
00:0000157E 9006            	  2423: 	SUB.b		d6,d0				* subtract -"0"
                            	  2424: RTS_001						* carry set if byte = "0"-"9"
00:00001580 4E75            	  2425: 	RTS
                            	  2426: 
                            	  2427: * set-up for - operator
                            	  2428: 
                            	  2429: LAB_1C11
00:00001582 7228            	  2430: 	moveq	#(TK_GT-TK_PLUS)*4,d1		* set offset from base to - operator
                            	  2431: LAB_1C13
00:00001584 4FEF0004        	  2432: 	lea		4(sp),sp			* dump GVAL return address
00:00001588 6000FF12        	  2433: 	BRA		LAB_1B1D			* continue evaluating expression
                            	  2434: 
                            	  2435: * variable name set-up
                            	  2436: * get (var), return value in FAC_1 & data type flag
                            	  2437: 
                            	  2438: LAB_1C18
00:0000158C 610001E0        	  2439: 	BSR		LAB_GVAR			* get variable address in a0
                            	  2440: LAB_1C19
00:00001590 4A2B05B5        	  2441: 	TST.b		Dtypef(a3)			* test data type, $80=string, $40=integer,
                            	  2442: 							* $00=float
00:00001594 67000DA0        	  2443: 	BEQ		LAB_UFAC			* if float unpack memory (a0) into FAC1 and
                            	  2444: 							* return
                            	  2445: 
00:00001598 6A06            	  2446: 	BPL.s		LAB_1C1A			* if integer unpack memory (a0) into FAC1
                            	  2447: 							* and return
                            	  2448: 
00:0000159A 27480590        	  2449: 	move.l	a0,FAC1_m(a3)		* else save descriptor pointer in FAC1
00:0000159E 4E75            	  2450: 	RTS
                            	  2451: 
                            	  2452: LAB_1C1A
00:000015A0 2010            	  2453: 	move.l	(a0),d0			* get integer value
00:000015A2 600004C2        	  2454: 	BRA		LAB_AYFC			* convert d0 to signed longword in FAC1 & return
                            	  2455: 
                            	  2456: * get value from line .. continued
                            	  2457: * do tokens
                            	  2458: 
                            	  2459: LAB_1BD0
00:000015A6 B03C00B2        	  2460: 	CMP.b		#TK_MINUS,d0		* compare with token for -
00:000015AA 67D6            	  2461: 	BEQ.s		LAB_1C11			* branch if - token (do set-up for - operator)
                            	  2462: 
                            	  2463: 							* wasn't -123 so ...
00:000015AC B03C00B1        	  2464: 	CMP.b		#TK_PLUS,d0			* compare with token for +
00:000015B0 6700FF64        	  2465: 	BEQ		LAB_GVAL			* branch if + token (+n = n so ignore leading +)
                            	  2466: 
00:000015B4 B03C00AD        	  2467: 	CMP.b		#TK_NOT,d0			* compare with token for NOT
00:000015B8 6606            	  2468: 	BNE.s		LAB_1BE7			* branch if not token for NOT
                            	  2469: 
                            	  2470: 							* was NOT token
00:000015BA 323C002C        	  2471: 	MOVE.w	#(TK_EQUAL-TK_PLUS)*4,d1	* offset to NOT function
00:000015BE 60C4            	  2472: 	BRA.s		LAB_1C13			* do set-up for function then execute
                            	  2473: 
                            	  2474: 							* wasn't +, - or NOT so ...
                            	  2475: LAB_1BE7
00:000015C0 B03C00AA        	  2476: 	CMP.b		#TK_FN,d0			* compare with token for FN
00:000015C4 67000526        	  2477: 	BEQ		LAB_201E			* if FN go evaluate FNx
                            	  2478: 
                            	  2479: 							* wasn't +, -, NOT or FN so ...
00:000015C8 903C00BE        	  2480: 	SUB.b		#TK_SGN,d0			* compare with token for SGN & normalise
00:000015CC 6500F3F4        	  2481: 	BCS		LAB_SNER			* if < SGN token then do syntax error
                            	  2482: 
                            	  2483: * get value from line .. continued
                            	  2484: * only functions left so set up function references
                            	  2485: 
                            	  2486: * new for V2.0+ this replaces a lot of IF .. THEN .. ELSEIF .. THEN .. that was needed
                            	  2487: * to process function calls. now the function vector is computed and pushed on the stack
                            	  2488: * and the preprocess offset is read. if the preprocess offset is non zero then the vector
                            	  2489: * is calculated and the routine called, if not this routine just does RTS. whichever
                            	  2490: * happens the RTS at the end of this routine, or the preprocess routine calls, the
                            	  2491: * function code
                            	  2492: 
                            	  2493: * this also removes some less than elegant code that was used to bypass type checking
                            	  2494: * for functions that returned strings
                            	  2495: 
00:000015D0 C07C007F        	  2496: 	AND.w		#$7F,d0			* mask byte
00:000015D4 D040            	  2497: 	ADD.w		d0,d0				* *2 (2 bytes per function offset)
                            	  2498: 
00:000015D6 41FA1D92        	  2499: 	lea		(LAB_FTBL,PC),a0		* pointer to functions vector table
00:000015DA 32300000        	  2500: 	MOVE.w	(a0,d0.w),d1		* get function vector offset
00:000015DE 48701000        	  2501: 	PEA		(a0,d1.w)			* push function vector
                            	  2502: 
00:000015E2 41FA1D3C        	  2503: 	lea		(LAB_FTPP,PC),a0		* pointer to functions preprocess vector table
00:000015E6 30300000        	  2504: 	MOVE.w	(a0,d0.w),d0		* get function preprocess vector offset
00:000015EA 6712            	  2505: 	BEQ.s		LAB_1C2A			* no preprocess vector so go do function
                            	  2506: 
00:000015EC 41F00000        	  2507: 	lea		(a0,d0.w),a0		* get function preprocess vector
00:000015F0 4ED0            	  2508: 	JMP		(a0)				* go do preprocess routine then function
                            	  2509: 
                            	  2510: * process string expression in parenthesis
                            	  2511: 
                            	  2512: LAB_PPFS
00:000015F2 6100FF60        	  2513: 	BSR		LAB_1BF7			* process expression in parenthesis
00:000015F6 4A2B05B5        	  2514: 	TST.b		Dtypef(a3)			* test data type
00:000015FA 6A00F39A        	  2515: 	BPL		LAB_TMER			* if numeric do Type missmatch Error/warm start
                            	  2516: 
                            	  2517: LAB_1C2A
00:000015FE 4E75            	  2518: 	RTS						* else do function
                            	  2519: 
                            	  2520: * process numeric expression in parenthesis
                            	  2521: 
                            	  2522: LAB_PPFN
00:00001600 6100FF52        	  2523: 	BSR		LAB_1BF7			* process expression in parenthesis
00:00001604 4A2B05B5        	  2524: 	TST.b		Dtypef(a3)			* test data type
00:00001608 6B00F38C        	  2525: 	BMI		LAB_TMER			* if string do Type missmatch Error/warm start
                            	  2526: 
00:0000160C 4E75            	  2527: 	RTS						* else do function
                            	  2528: 
                            	  2529: * set numeric data type and increment BASIC execute pointer
                            	  2530: 
                            	  2531: LAB_PPBI
00:0000160E 177C000005B5    	  2532: 	move.b	#$00,Dtypef(a3)		* clear data type flag, $00=float
00:00001614 101D            	  2533: 	move.b	(a5)+,d0			* get next BASIC byte
00:00001616 4E75            	  2534: 	RTS						* do function
                            	  2535: 
                            	  2536: * process string for LEFT$, RIGHT$ or MID$
                            	  2537: 
                            	  2538: LAB_LRMS
00:00001618 6100FDEE        	  2539: 	BSR		LAB_EVEZ			* evaluate (should be string) expression
00:0000161C 4A2B05B5        	  2540: 	TST.b		Dtypef(a3)			* test data type flag
00:00001620 6A00F374        	  2541: 	BPL		LAB_TMER			* if type is not string do type mismatch error
                            	  2542: 
00:00001624 141D            	  2543: 	move.b	(a5)+,d2			* get BASIC byte
00:00001626 B43C002C        	  2544: 	CMP.b		#',',d2			* compare with comma
00:0000162A 6600F396        	  2545: 	BNE		LAB_SNER			* if not "," go do syntax Error/warm start
                            	  2546: 
00:0000162E 2F2B0590        	  2547: 	move.l	FAC1_m(a3),-(sp)		* save descriptor pointer
00:00001632 610008B4        	  2548: 	BSR		LAB_GTWO			* get word parameter, result in d0 and Itemp
00:00001636 205F            	  2549: 	MOVEA.l	(sp)+,a0			* restore descriptor pointer
00:00001638 4E75            	  2550: 	RTS						* do function
                            	  2551: 
                            	  2552: * process numeric expression(s) for BIN$ or HEX$
                            	  2553: 
                            	  2554: LAB_BHSS
00:0000163A 6100FDCC        	  2555: 	BSR		LAB_EVEZ			* evaluate expression (no decrement)
00:0000163E 4A2B05B5        	  2556: 	TST.b		Dtypef(a3)			* test data type
00:00001642 6B00F352        	  2557: 	BMI		LAB_TMER			* if string do Type missmatch Error/warm start
                            	  2558: 
00:00001646 61000DE0        	  2559: 	BSR		LAB_2831			* convert FAC1 floating-to-fixed
                            	  2560: 							* result in d0 and Itemp
00:0000164A 7200            	  2561: 	moveq		#0,d1				* set default to no leading "0"s
00:0000164C 141D            	  2562: 	move.b	(a5)+,d2			* get BASIC byte
00:0000164E B43C002C        	  2563: 	CMP.b		#',',d2			* compare with comma
00:00001652 6600000E        	  2564: 	BNE		LAB_BHCB			* if not "," go check close bracket
                            	  2565: 
00:00001656 2F00            	  2566: 	move.l	d0,-(sp)			* copy number to stack
00:00001658 6100087A        	  2567: 	BSR		LAB_GTBY			* get byte value
00:0000165C 2200            	  2568: 	move.l	d0,d1				* copy leading 0s #
00:0000165E 201F            	  2569: 	move.l	(sp)+,d0			* restore number from stack
00:00001660 141D            	  2570: 	move.b	(a5)+,d2			* get BASIC byte
                            	  2571: LAB_BHCB
00:00001662 B43C0029        	  2572: 	CMP.b		#')',d2			* compare with close bracket
00:00001666 6600F35A        	  2573: 	BNE		LAB_SNER			* if not ")" do Syntax Error/warm start
                            	  2574: 
00:0000166A 4E75            	  2575: 	RTS						* go do function
                            	  2576: 
                            	  2577: * perform EOR
                            	  2578: 
                            	  2579: LAB_EOR
00:0000166C 6116            	  2580: 	BSR.s		GetFirst			* get two values for OR, AND or EOR
                            	  2581: 							* first in d0, and Itemp, second in d2
00:0000166E B580            	  2582: 	EOR.l		d2,d0				* EOR values
00:00001670 600003F4        	  2583: 	BRA		LAB_AYFC			* convert d0 to signed longword in FAC1 & RET
                            	  2584: 
                            	  2585: * perform OR
                            	  2586: 
                            	  2587: LAB_OR
00:00001674 610E            	  2588: 	BSR.s		GetFirst			* get two values for OR, AND or EOR
                            	  2589: 							* first in d0, and Itemp, second in d2
00:00001676 8082            	  2590: 	OR.l		d2,d0				* do OR
00:00001678 600003EC        	  2591: 	BRA		LAB_AYFC			* convert d0 to signed longword in FAC1 & RET
                            	  2592: 
                            	  2593: * perform AND
                            	  2594: 
                            	  2595: LAB_AND
00:0000167C 6106            	  2596: 	BSR.s		GetFirst			* get two values for OR, AND or EOR
                            	  2597: 							* first in d0, and Itemp, second in d2
00:0000167E C082            	  2598: 	AND.l		d2,d0				* do AND
00:00001680 600003E4        	  2599: 	BRA		LAB_AYFC			* convert d0 to signed longword in FAC1 & RET
                            	  2600: 
                            	  2601: * get two values for OR, AND, EOR
                            	  2602: * first in d0, second in d2
                            	  2603: 
                            	  2604: GetFirst
00:00001684 6100022C        	  2605: 	BSR		LAB_EVIR			* evaluate integer expression (no sign check)
                            	  2606: 							* result in d0 and Itemp
00:00001688 2400            	  2607: 	move.l	d0,d2				* copy second value
00:0000168A 61000D04        	  2608: 	BSR		LAB_279B			* copy FAC2 to FAC1, get first value in
                            	  2609: 							* expression
00:0000168E 60000222        	  2610: 	BRA		LAB_EVIR			* evaluate integer expression (no sign check)
                            	  2611: 							* result in d0 and Itemp & return
                            	  2612: 
                            	  2613: * perform NOT
                            	  2614: 
                            	  2615: LAB_EQUAL
00:00001692 6100021E        	  2616: 	BSR		LAB_EVIR			* evaluate integer expression (no sign check)
                            	  2617: 							* result in d0 and Itemp
00:00001696 4680            	  2618: 	NOT.l		d0				* bitwise invert
00:00001698 600003CC        	  2619: 	BRA		LAB_AYFC			* convert d0 to signed longword in FAC1 & RET
                            	  2620: 
                            	  2621: * perform comparisons
                            	  2622: * do < compare
                            	  2623: 
                            	  2624: LAB_LTHAN
00:0000169C 6100FD54        	  2625: 	BSR		LAB_CKTM			* type match check, set C for string
00:000016A0 6506            	  2626: 	BCS.s		LAB_1CAE			* branch if string
                            	  2627: 
                            	  2628: 							* do numeric < compare
00:000016A2 61000D58        	  2629: 	BSR		LAB_27FA			* compare FAC1 with FAC2
                            	  2630: 							* returns d0=+1 if FAC1 > FAC2
                            	  2631: 							* returns d0= 0 if FAC1 = FAC2
                            	  2632: 							* returns d0=-1 if FAC1 < FAC2
00:000016A6 6042            	  2633: 	BRA.s		LAB_1CF2			* process result
                            	  2634: 
                            	  2635: 							* do string < compare
                            	  2636: LAB_1CAE
00:000016A8 177C000005B5    	  2637: 	move.b	#$00,Dtypef(a3)		* clear data type, $80=string, $40=integer,
                            	  2638: 							* $00=float
00:000016AE 610006C4        	  2639: 	BSR		LAB_22B6			* pop string off descriptor stack, or from top
                            	  2640: 							* of string space returns d0 = length,
                            	  2641: 							* a0 = pointer
00:000016B2 2248            	  2642: 	MOVEA.l	a0,a1				* copy string 2 pointer
00:000016B4 2200            	  2643: 	move.l	d0,d1				* copy string 2 length
00:000016B6 206B0598        	  2644: 	MOVEA.l	FAC2_m(a3),a0		* get string 1 descriptor pointer
00:000016BA 610006BC        	  2645: 	BSR		LAB_22BA			* pop (a0) descriptor, returns with ..
                            	  2646: 							* d0 = length, a0 = pointer
00:000016BE 2400            	  2647: 	move.l	d0,d2				* copy length
00:000016C0 6604            	  2648: 	BNE.s		LAB_1CB5			* branch if not null string
                            	  2649: 
00:000016C2 4A81            	  2650: 	TST.l		d1				* test if string 2 is null also
00:000016C4 6724            	  2651: 	BEQ.s		LAB_1CF2			* if so do string 1 = string 2
                            	  2652: 
                            	  2653: LAB_1CB5
00:000016C6 9481            	  2654: 	SUB.l		d1,d2				* subtract string 2 length
00:000016C8 670C            	  2655: 	BEQ.s		LAB_1CD5			* branch if strings = length
                            	  2656: 
00:000016CA 6504            	  2657: 	BCS.s		LAB_1CD4			* branch if string 1 < string 2
                            	  2658: 
00:000016CC 70FF            	  2659: 	moveq		#-1,d0			* set for string 1 > string 2
00:000016CE 6008            	  2660: 	BRA.s		LAB_1CD6			* go do character comapare
                            	  2661: 
                            	  2662: LAB_1CD4
00:000016D0 2200            	  2663: 	move.l	d0,d1				* string 1 length is compare length
00:000016D2 7001            	  2664: 	moveq		#1,d0				* and set for string 1 < string 2
00:000016D4 6002            	  2665: 	BRA.s		LAB_1CD6			* go do character comapare
                            	  2666: 
                            	  2667: LAB_1CD5
00:000016D6 2002            	  2668: 	move.l	d2,d0				* set for string 1 = string 2
                            	  2669: LAB_1CD6
00:000016D8 5381            	  2670: 	SUBQ.l	#1,d1				* adjust length for DBcc loop
                            	  2671: 
                            	  2672: 							* d1 is length to compare, d0 is <=> for length
                            	  2673: 							* a0 is string 1 pointer, a1 is string 2 pointer
                            	  2674: LAB_1CE6
00:000016DA B308            	  2675: 	CMPM.b	(a0)+,(a1)+			* compare string bytes (1 with 2)
00:000016DC 56C9FFFC        	  2676: 	DBNE		d1,LAB_1CE6			* loop if same and not end yet
                            	  2677: 
00:000016E0 6708            	  2678: 	BEQ.s		LAB_1CF2			* if = to here, then go use length compare
                            	  2679: 
00:000016E2 6404            	  2680: 	BCC.s		LAB_1CDB			* else branch if string 1 > string 2
                            	  2681: 
00:000016E4 70FF            	  2682: 	moveq		#-1,d0			* else set for string 1 < string 2
00:000016E6 6002            	  2683: 	BRA.s		LAB_1CF2			* go set result
                            	  2684: 
                            	  2685: LAB_1CDB
00:000016E8 7001            	  2686: 	moveq		#1,d0				* and set for string 1 > string 2
                            	  2687: 
                            	  2688: LAB_1CF2
00:000016EA 5200            	  2689: 	ADDQ.b	#1,d0				* make result 0, 1 or 2
00:000016EC 1200            	  2690: 	move.b	d0,d1				* copy to d1
00:000016EE 7001            	  2691: 	moveq		#1,d0				* set d0 longword
00:000016F0 E338            	  2692: 	ROL.b		d1,d0				* make 1, 2 or 4 (result = flag bit)
00:000016F2 C02B05E1        	  2693: 	AND.b		Cflag(a3),d0		* AND with comparison evaluation flag
00:000016F6 67000CEC        	  2694: 	BEQ		LAB_27DB			* exit if not a wanted result (i.e. false)
                            	  2695: 
00:000016FA 70FF            	  2696: 	moveq		#-1,d0			* else set -1 (true)
00:000016FC 60000CE6        	  2697: 	BRA		LAB_27DB			* save d0 as integer & return
                            	  2698: 
                            	  2699: 
                            	  2700: LAB_1CFE
00:00001700 6100FE5E        	  2701: 	BSR		LAB_1C01			* scan for "," , else do syntax error/warm start
                            	  2702: 
                            	  2703: * perform DIM
                            	  2704: 
                            	  2705: LAB_DIM
00:00001704 72FF            	  2706: 	moveq		#-1,d1			* set "DIM" flag
00:00001706 616C            	  2707: 	BSR.s		LAB_1D10			* search for variable
00:00001708 6100FE62        	  2708: 	BSR		LAB_GBYT			* scan memory
00:0000170C 66F2            	  2709: 	BNE.s		LAB_1CFE			* loop and scan for "," if not null
                            	  2710: 
00:0000170E 4E75            	  2711: 	RTS
                            	  2712: 
                            	  2713: * perform << (left shift)
                            	  2714: 
                            	  2715: LAB_LSHIFT
00:00001710 612E            	  2716: 	BSR.s		GetPair			* get an integer and byte pair
                            	  2717: 							* byte is in d2, integer is in d0 and Itemp
00:00001712 6708            	  2718: 	BEQ.s		NoShift			* branch if byte zero
                            	  2719: 
00:00001714 B43C0020        	  2720: 	CMP.b		#$20,d2			* compare bit count with 32d
00:00001718 6420            	  2721: 	BCC.s		TooBig			* branch if >=
                            	  2722: 
00:0000171A E5A0            	  2723: 	ASL.l		d2,d0				* shift longword
                            	  2724: NoShift
00:0000171C 60000348        	  2725: 	BRA		LAB_AYFC			* convert d0 to signed longword in FAC1 & RET
                            	  2726: 
                            	  2727: * perform >> (right shift)
                            	  2728: 
                            	  2729: LAB_RSHIFT
00:00001720 611E            	  2730: 	BSR.s		GetPair			* get an integer and byte pair
                            	  2731: 							* byte is in d2, integer is in d0 and Itemp
00:00001722 67F8            	  2732: 	BEQ.s		NoShift			* branch if byte zero
                            	  2733: 
00:00001724 B43C0020        	  2734: 	CMP.b		#$20,d2			* compare bit count with 32d
00:00001728 650A            	  2735: 	BCS.s		Not2Big			* branch if >= (return shift)
                            	  2736: 
00:0000172A 4A80            	  2737: 	TST.l		d0				* test sign bit
00:0000172C 6A0C            	  2738: 	BPL.s		TooBig			* branch if +ve
                            	  2739: 
00:0000172E 70FF            	  2740: 	moveq		#-1,d0			* set longword
00:00001730 60000334        	  2741: 	BRA		LAB_AYFC			* convert d0 to longword in FAC1 & RET
                            	  2742: 
                            	  2743: Not2Big
00:00001734 E4A0            	  2744: 	ASR.l		d2,d0				* shift longword
00:00001736 6000032E        	  2745: 	BRA		LAB_AYFC			* convert d0 to longword in FAC1 & RET
                            	  2746: 
                            	  2747: TooBig
00:0000173A 7000            	  2748: 	moveq		#0,d0				* clear longword
00:0000173C 60000328        	  2749: 	BRA		LAB_AYFC			* convert d0 to longword in FAC1 & RET
                            	  2750: 
                            	  2751: * get an integer and byte pair
                            	  2752: * byte is in d2, integer is in d0 and Itemp
                            	  2753: 
                            	  2754: GetPair
00:00001740 61000796        	  2755: 	BSR		LAB_EVBY			* evaluate byte expression, result in d0 and
                            	  2756: 							* Itemp
00:00001744 1400            	  2757: 	move.b	d0,d2				* save it
00:00001746 61000C48        	  2758: 	BSR		LAB_279B			* copy FAC2 to FAC1, get first value in
                            	  2759: 							* expression
00:0000174A 61000166        	  2760: 	BSR		LAB_EVIR			* evaluate integer expression (no sign check)
                            	  2761: 							* result in d0 and Itemp
00:0000174E 4A02            	  2762: 	TST.b		d2				* test byte value
00:00001750 4E75            	  2763: 	RTS
                            	  2764: 
                            	  2765: * check alpha, return C=0 if<"A" or >"Z" or <"a" to "z">
                            	  2766: 
                            	  2767: LAB_CASC
00:00001752 B03C0061        	  2768: 	CMP.b		#$61,d0			* compare with "a"
00:00001756 6410            	  2769: 	BCC.s		LAB_1D83			* if >="a" go check =<"z"
                            	  2770: 
                            	  2771: * check alpha upper case, return C=0 if<"A" or >"Z"
                            	  2772: 
                            	  2773: LAB_CAUC
00:00001758 B03C0041        	  2774: 	CMP.b		#$41,d0			* compare with "A"
00:0000175C 6404            	  2775: 	BCC.s		LAB_1D8A			* if >="A" go check =<"Z"
                            	  2776: 
00:0000175E 8040            	  2777: 	OR		d0,d0				* make C=0
00:00001760 4E75            	  2778: 	RTS
                            	  2779: 
                            	  2780: LAB_1D8A
00:00001762 B03C005B        	  2781: 	CMP.b		#$5B,d0			* compare with "Z"+1
                            	  2782: 							* carry set if byte<="Z"
00:00001766 4E75            	  2783: 	RTS
                            	  2784: 
                            	  2785: LAB_1D83
00:00001768 B03C007B        	  2786: 	CMP.b		#$7B,d0			* compare with "z"+1
                            	  2787: 							* carry set if byte<="z"
00:0000176C 4E75            	  2788: 	RTS
                            	  2789: 
                            	  2790: * search for variable
                            	  2791: * DIM flag is in d1.b
                            	  2792: * return pointer to variable in Cvaral and a0
                            	  2793: * stet data type to variable type
                            	  2794: 
                            	  2795: LAB_GVAR
00:0000176E 7200            	  2796: 	moveq		#$00,d1			* set DIM flag = $00
00:00001770 6100FDFA        	  2797: 	BSR		LAB_GBYT			* scan memory (1st character)
                            	  2798: LAB_1D10
00:00001774 174105B4        	  2799: 	move.b	d1,Defdim(a3)		* save DIM flag
                            	  2800: 
                            	  2801: * search for FN name entry point
                            	  2802: 
                            	  2803: LAB_1D12
00:00001778 61D8            	  2804: 	BSR.s		LAB_CASC			* check byte, return C=0 if<"A" or >"Z"
00:0000177A 6400F246        	  2805: 	BCC		LAB_SNER			* if not syntax error, then warm start
                            	  2806: 
                            	  2807: 							* is variable name so ...
00:0000177E 7200            	  2808: 	moveq		#$0,d1			* set index for name byte
00:00001780 41EB046A        	  2809: 	lea		Varname(a3),a0		* pointer to variable name
00:00001784 2081            	  2810: 	move.l	d1,(a0)			* clear variable name
00:00001786 174105B5        	  2811: 	move.b	d1,Dtypef(a3)		* clear data type, $80=string, $40=integer,
                            	  2812: 							* $00=float
                            	  2813: 
                            	  2814: LAB_1D2D
00:0000178A B27C0004        	  2815: 	CMP.w		#$04,d1			* done all significant characters?
00:0000178E 6406            	  2816: 	BCC.s		LAB_1D2E			* if so go ignore any more
                            	  2817: 
00:00001790 11801000        	  2818: 	move.b	d0,(a0,d1.w)		* save character
00:00001794 5241            	  2819: 	ADDQ.w	#1,d1				* increment index
                            	  2820: LAB_1D2E
00:00001796 6100FDD2        	  2821: 	BSR		LAB_IGBY			* increment & scan memory (next character)
00:0000179A 65EE            	  2822: 	BCS.s		LAB_1D2D			* branch if character = "0"-"9" (ok)
                            	  2823: 
                            	  2824: 							* character wasn't "0" to "9" so ...
00:0000179C 61B4            	  2825: 	BSR.s		LAB_CASC			* check byte, return C=0 if<"A" or >"Z"
00:0000179E 65EA            	  2826: 	BCS.s		LAB_1D2D			* branch if = "A"-"Z" (ok)
                            	  2827: 
                            	  2828: 							* check if string variable
00:000017A0 B03C0024        	  2829: 	CMP.b		#'$',d0			* compare with "$"
00:000017A4 660C            	  2830: 	BNE.s		LAB_1D44			* branch if not string
                            	  2831: 
                            	  2832: 							* type is string
00:000017A6 002B0080046B    	  2833: 	OR.b		#$80,Varname+1(a3)	* set top bit of 2nd character, indicate string
00:000017AC 6100FDBC        	  2834: 	BSR		LAB_IGBY			* increment & scan memory
00:000017B0 6010            	  2835: 	BRA.s		LAB_1D45			* skip integer check
                            	  2836: 
                            	  2837: 							* check if integer variable
                            	  2838: LAB_1D44
00:000017B2 B03C0026        	  2839: 	CMP.b		#'&',d0			* compare with "&"
00:000017B6 660A            	  2840: 	BNE.s		LAB_1D45			* branch if not integer
                            	  2841: 
                            	  2842: 							* type is integer
00:000017B8 002B0080046C    	  2843: 	OR.b		#$80,Varname+2(a3)	* set top bit of 3rd character, indicate integer
00:000017BE 6100FDAA        	  2844: 	BSR		LAB_IGBY			* increment & scan memory
                            	  2845: 
                            	  2846: * after we have determined the variable type we need to determine
                            	  2847: * if it's an array of type
                            	  2848: 
                            	  2849: 							* gets here with character after var name in d0
                            	  2850: LAB_1D45
00:000017C2 4A2B05DF        	  2851: 	TST.b		Sufnxf(a3)			* test function name flag
00:000017C6 670E            	  2852: 	BEQ.s		LAB_1D48			* branch if not FN or FN variable
                            	  2853: 
00:000017C8 6A14            	  2854: 	BPL.s		LAB_1D49			* branch if FN variable
                            	  2855: 
                            	  2856: 							* else was FN name
00:000017CA 202B046A        	  2857: 	move.l	Varname(a3),d0		* get whole function name
00:000017CE 7208            	  2858: 	moveq		#8,d1				* set step to next function size -4
00:000017D0 41EB0432        	  2859: 	lea		Sfncl(a3),a0		* get pointer to start of functions
00:000017D4 601C            	  2860: 	BRA.s		LAB_1D4B			* go find function
                            	  2861: 
                            	  2862: LAB_1D48
00:000017D6 903C0028        	  2863: 	SUB.b		#'(',d0			* subtract "("
00:000017DA 670000FC        	  2864: 	BEQ		LAB_1E17			* if "(" go find, or make, array
                            	  2865: 
                            	  2866: * either find or create var
                            	  2867: * var name (1st four characters only!) is in Varname
                            	  2868: 
                            	  2869: 							* variable name wasn't var( .. so look for
                            	  2870: 							* plain variable
                            	  2871: LAB_1D49
00:000017DE 202B046A        	  2872: 	move.l	Varname(a3),d0		* get whole variable name
                            	  2873: LAB_1D4A
00:000017E2 7204            	  2874: 	moveq		#4,d1				* set step to next variable size -4
00:000017E4 41EB0436        	  2875: 	lea		Svarl(a3),a0		* get pointer to start of variables
                            	  2876: 
00:000017E8 08000017        	  2877: 	BTST.l	#23,d0			* test if string name
00:000017EC 6704            	  2878: 	BEQ.s		LAB_1D4B			* branch if not
                            	  2879: 
00:000017EE 5441            	  2880: 	ADDQ.w	#2,d1				* 10 bytes per string entry
00:000017F0 5848            	  2881: 	ADDQ.w	#(Sstrl-Svarl),a0		* move to string area
                            	  2882: 
                            	  2883: LAB_1D4B
00:000017F2 22680004        	  2884: 	MOVEA.l	4(a0),a1			* get end address
00:000017F6 2050            	  2885: 	MOVEA.l	(a0),a0			* get start address
00:000017F8 6006            	  2886: 	BRA.s		LAB_1D5E			* enter loop at exit check
                            	  2887: 
                            	  2888: LAB_1D5D
00:000017FA B098            	  2889: 	CMP.l		(a0)+,d0			* compare this variable with name
00:000017FC 6770            	  2890: 	BEQ.s		LAB_1DD7			* branch if match (found var)
                            	  2891: 
00:000017FE D1C1            	  2892: 	ADDA.l	d1,a0				* add offset to next variable
                            	  2893: LAB_1D5E
00:00001800 B1C9            	  2894: 	CMPA.l	a1,a0				* compare address with variable space end
00:00001802 66F6            	  2895: 	BNE.s		LAB_1D5D			* if not end go check next
                            	  2896: 
                            	  2897: 							* reached end of variable mem without match
                            	  2898: 							* ... so create new variable, possibly
00:00001804 0C9700001590    	  2899: 	CMPI.l	#LAB_1C19,(sp)		* compare return address with expected
00:0000180A 6700F172        	  2900: 	BEQ		LAB_UVER			* if RHS get (var) go do error or return null
                            	  2901: 
                            	  2902: * This will only branch if the call was from LAB_1C18 and is only called from
                            	  2903: * there if it is searching for a variable from the RHS of a LET a=b statement
                            	  2904: 
00:0000180E 082B000005DF    	  2905: 	BTST.b	#0,Sufnxf(a3)		* test function search flag
00:00001814 6600F170        	  2906: 	BNE		LAB_UFER			* if not doing DEF then go do undefined
                            	  2907: 							* function error
                            	  2908: 
                            	  2909: 							* else create new variable/function
                            	  2910: LAB_1D98
00:00001818 246B0442        	  2911: 	MOVEA.l	Earryl(a3),a2		* get end of block to move
00:0000181C 240A            	  2912: 	move.l	a2,d2				* copy end of block to move
00:0000181E 9489            	  2913: 	SUB.l		a1,d2				* calculate block to move size
                            	  2914: 
00:00001820 204A            	  2915: 	MOVEA.l	a2,a0				* copy end of block to move
00:00001822 5881            	  2916: 	ADDQ.l	#4,d1				* space for one variable/function + name
00:00001824 D5C1            	  2917: 	ADDA.l	d1,a2				* add space for one variable/function
00:00001826 274A0442        	  2918: 	move.l	a2,Earryl(a3)		* set new array mem end
00:0000182A E28A            	  2919: 	LSR.l		#1,d2				* /2 for word copy
00:0000182C 6712            	  2920: 	BEQ.s		LAB_1DAF			* skip move if zero length block
                            	  2921: 
00:0000182E 5382            	  2922: 	SUBQ.l	#1,d2				* -1 for DFB loop
00:00001830 4842            	  2923: 	SWAP		d2				* swap high word to low word
                            	  2924: LAB_1DAC
00:00001832 4842            	  2925: 	SWAP		d2				* swap high word to low word
                            	  2926: LAB_1DAE
00:00001834 3520            	  2927: 	MOVE.w	-(a0),-(a2)			* copy word
00:00001836 51CAFFFC        	  2928: 	DBF		d2,LAB_1DAE			* loop until done
                            	  2929: 
00:0000183A 4842            	  2930: 	SWAP		d2				* swap high word to low word
00:0000183C 51CAFFF4        	  2931: 	DBF		d2,LAB_1DAC			* decrement high count and loop until done
                            	  2932: 
                            	  2933: * get here after creating either a function, variable or string
                            	  2934: * if function set variables start, string start, array start
                            	  2935: * if variable set string start, array start
                            	  2936: * if string set array start
                            	  2937: 
                            	  2938: LAB_1DAF
00:00001840 4A2B05DF        	  2939: 	TST.b		Sufnxf(a3)			* was it function
00:00001844 6B08            	  2940: 	BMI.s		LAB_1DB0			* branch if was FN
                            	  2941: 
00:00001846 08000017        	  2942: 	BTST.l	#23,d0			* was it string
00:0000184A 660A            	  2943: 	BNE.s		LAB_1DB2			* branch if string
                            	  2944: 
00:0000184C 6004            	  2945: 	BRA.s		LAB_1DB1			* branch if was plain variable
                            	  2946: 
                            	  2947: LAB_1DB0
00:0000184E D3AB0436        	  2948: 	ADD.l		d1,Svarl(a3)		* set new variable memory start
                            	  2949: LAB_1DB1
00:00001852 D3AB043A        	  2950: 	ADD.l		d1,Sstrl(a3)		* set new start of strings
                            	  2951: LAB_1DB2
00:00001856 D3AB043E        	  2952: 	ADD.l		d1,Sarryl(a3)		* set new array memory start
00:0000185A 20C0            	  2953: 	move.l	d0,(a0)+			* save variable/function name
00:0000185C 20BC00000000    	  2954: 	move.l	#$00,(a0)			* initialise variable
00:00001862 08000017        	  2955: 	BTST.l	#23,d0			* was it string
00:00001866 6706            	  2956: 	BEQ.s		LAB_1DD7			* branch if not string
                            	  2957: 
00:00001868 317C00000004    	  2958: 	MOVE.w	#$00,4(a0)			* else initialise string length
                            	  2959: 
                            	  2960: 							* found a match for var ((Vrschl) = ptr)
                            	  2961: LAB_1DD7
00:0000186E 177C000005B5    	  2962: 	move.b	#$00,Dtypef(a3)		* clear data type
00:00001874 08000017        	  2963: 	BTST.l	#23,d0			* was it string
00:00001878 6708            	  2964: 	BEQ.s		LAB_1DD8			* branch if not string
                            	  2965: 
00:0000187A 177C008005B5    	  2966: 	move.b	#$80,Dtypef(a3)		* set data type = string
00:00001880 600C            	  2967: 	BRA.s		LAB_1DD9			* skip intger test
                            	  2968: 
                            	  2969: LAB_1DD8
00:00001882 0800000F        	  2970: 	BTST.l	#15,d0			* was it integer
00:00001886 6706            	  2971: 	BEQ.s		LAB_1DD9			* branch if not integer
                            	  2972: 
00:00001888 177C004005B5    	  2973: 	move.b	#$40,Dtypef(a3)		* set data type = integer
                            	  2974: LAB_1DD9
00:0000188E 177C000005DF    	  2975: 	move.b	#$00,Sufnxf(a3)		* clear FN flag byte
00:00001894 4E75            	  2976: 	RTS
                            	  2977: 
                            	  2978: * set-up array pointer, d0, to first element in array
                            	  2979: * set d0 to (a0)+2*(Dimcnt)+$0A
                            	  2980: 
                            	  2981: LAB_1DE6
00:00001896 7005            	  2982: 	moveq		#5,d0				* set d0 to 5 (*2 = 10, later)
00:00001898 D02B05DB        	  2983: 	ADD.b		Dimcnt(a3),d0		* add # of dimensions (1, 2 or 3)
00:0000189C D080            	  2984: 	ADD.l		d0,d0				* *2 (bytes per dimension size)
00:0000189E D088            	  2985: 	ADD.l		a0,d0				* add array start pointer
00:000018A0 4E75            	  2986: 	RTS
                            	  2987: 
                            	  2988: * evaluate unsigned integer expression
                            	  2989: 
                            	  2990: LAB_EVIN
00:000018A2 6100FCC6        	  2991: 	BSR		LAB_IGBY			* increment & scan memory
00:000018A6 6100FB46        	  2992: 	BSR		LAB_EVNM			* evaluate expression & check is numeric,
                            	  2993: 							* else do type mismatch
                            	  2994: 
                            	  2995: * evaluate positive integer expression, result in d0 and Itemp
                            	  2996: 
                            	  2997: LAB_EVPI
00:000018AA 4A2B0595        	  2998: 	TST.b		FAC1_s(a3)			* test FAC1 sign (b7)
00:000018AE 6B00F106        	  2999: 	BMI		LAB_FCER			* do function call error if -ve
                            	  3000: 
                            	  3001: * evaluate integer expression, no sign check
                            	  3002: * result in d0 and Itemp, exit with flags set correctly
                            	  3003: 
                            	  3004: LAB_EVIR
00:000018B2 0C2B00A00594    	  3005: 	CMPI.b	#$A0,FAC1_e(a3)		* compare exponent with exponent = 2^32 (n>2^31)
00:000018B8 65000B6E        	  3006: 	BCS		LAB_2831			* convert FAC1 floating-to-fixed
                            	  3007: 							* result in d0 and Itemp
00:000018BC 6600F0F8        	  3008: 	BNE		LAB_FCER			* if > do function call error, then warm start
                            	  3009: 
00:000018C0 4A2B0595        	  3010: 	TST.b		FAC1_s(a3)			* test sign of FAC1
00:000018C4 6A000B62        	  3011: 	BPL		LAB_2831			* if +ve then ok
                            	  3012: 
00:000018C8 202B0590        	  3013: 	move.l	FAC1_m(a3),d0		* get mantissa
00:000018CC 4480            	  3014: 	NEG.l		d0				* do -d0
00:000018CE 6800F0E6        	  3015: 	BVC		LAB_FCER			* if not $80000000 do FC error, then warm start
                            	  3016: 
00:000018D2 2740042A        	  3017: 	move.l	d0,Itemp(a3)		* else just set it
00:000018D6 4E75            	  3018: 	RTS
                            	  3019: 
                            	  3020: * find or make array
                            	  3021: 
                            	  3022: LAB_1E17
00:000018D8 3F2B05B4        	  3023: 	MOVE.w	Defdim(a3),-(sp)		* get DIM flag and data type flag (word in mem)
00:000018DC 7200            	  3024: 	moveq		#0,d1				* clear dimensions count
                            	  3025: 
                            	  3026: * now get the array dimension(s) and stack it (them) before the data type and DIM flag
                            	  3027: 
                            	  3028: LAB_1E1F
00:000018DE 3F01            	  3029: 	MOVE.w	d1,-(sp)			* save dimensions count
00:000018E0 2F2B046A        	  3030: 	move.l	Varname(a3),-(sp)		* save variable name
00:000018E4 61BC            	  3031: 	BSR.s		LAB_EVIN			* evaluate integer expression
                            	  3032: 
00:000018E6 4840            	  3033: 	SWAP		d0				* swap high word to low word
00:000018E8 4A40            	  3034: 	TST.w		d0				* test swapped high word
00:000018EA 6600F0BA        	  3035: 	BNE		LAB_ABER			* if too big do array bounds error
                            	  3036: 
00:000018EE 275F046A        	  3037: 	move.l	(sp)+,Varname(a3)		* restore variable name
00:000018F2 321F            	  3038: 	MOVE.w	(sp)+,d1			* restore dimensions count
00:000018F4 301F            	  3039: 	MOVE.w	(sp)+,d0			* restore DIM and data type flags
00:000018F6 3F2B042C        	  3040: 	MOVE.w	Itemp+2(a3),-(sp)		* stack this dimension size
00:000018FA 3F00            	  3041: 	MOVE.w	d0,-(sp)			* save DIM and data type flags
00:000018FC 5241            	  3042: 	ADDQ.w	#1,d1				* increment dimensions count
00:000018FE 6100FC6C        	  3043: 	BSR		LAB_GBYT			* scan memory
00:00001902 B03C002C        	  3044: 	CMP.b		#$2C,d0			* compare with ","
00:00001906 67D6            	  3045: 	BEQ.s		LAB_1E1F			* if found go do next dimension
                            	  3046: 
00:00001908 174105DB        	  3047: 	move.b	d1,Dimcnt(a3)		* store dimensions count
00:0000190C 6100FC4A        	  3048: 	BSR		LAB_1BFB			* scan for ")", else do syntax error/warm start
00:00001910 375F05B4        	  3049: 	MOVE.w	(sp)+,Defdim(a3)		* restore DIM and data type flags (word in mem)
00:00001914 206B043E        	  3050: 	MOVEA.l	Sarryl(a3),a0		* get array mem start
                            	  3051: 
                            	  3052: * now check to see if we are at the end of array memory (we would be if there were
                            	  3053: * no arrays).
                            	  3054: 
                            	  3055: LAB_1E5C
00:00001918 274805AC        	  3056: 	move.l	a0,Astrtl(a3)		* save as array start pointer
00:0000191C B1EB0442        	  3057: 	CMPA.l	Earryl(a3),a0		* compare with array mem end
00:00001920 672E            	  3058: 	BEQ.s		LAB_1EA1			* go build array if not found
                            	  3059: 
                            	  3060: 							* search for array
00:00001922 2010            	  3061: 	move.l	(a0),d0			* get this array name
00:00001924 B0AB046A        	  3062: 	CMP.l		Varname(a3),d0		* compare with array name
00:00001928 670A            	  3063: 	BEQ.s		LAB_1E8D			* array found so branch
                            	  3064: 
                            	  3065: 							* no match
00:0000192A 20680004        	  3066: 	MOVEA.l	4(a0),a0			* get this array size
00:0000192E D1EB05AC        	  3067: 	ADDA.l	Astrtl(a3),a0		* add to array start pointer
00:00001932 60E4            	  3068: 	BRA.s		LAB_1E5C			* go check next array
                            	  3069: 
                            	  3070: 							* found array, are we trying to dimension it?
                            	  3071: LAB_1E8D
00:00001934 4A2B05B4        	  3072: 	TST.b		Defdim(a3)			* are we trying to dimension it?
00:00001938 6600F068        	  3073: 	BNE		LAB_DDER			* if so do double dimension error/warm start
                            	  3074: 
                            	  3075: * found the array and we're not dimensioning it so we must find an element in it
                            	  3076: 
00:0000193C 6100FF58        	  3077: 	BSR		LAB_1DE6			* set data pointer, d0, to the first element
                            	  3078: 							* in the array
00:00001940 5048            	  3079: 	ADDQ.w	#8,a0				* index to dimension count
00:00001942 3018            	  3080: 	MOVE.w	(a0)+,d0			* get no of dimensions
00:00001944 B02B05DB        	  3081: 	CMP.b		Dimcnt(a3),d0		* compare with dimensions count
00:00001948 67000094        	  3082: 	BEQ		LAB_1F28			* found array so go get element
                            	  3083: 
00:0000194C 6000F028        	  3084: 	BRA		LAB_WDER			* else wrong so do "Wrong dimensions" error
                            	  3085: 
                            	  3086: 							* array not found, so build it
                            	  3087: LAB_1EA1
00:00001950 6100FF44        	  3088: 	BSR		LAB_1DE6			* set data pointer, d0, to the first element
                            	  3089: 							* in the array
00:00001954 202B046A        	  3090: 	move.l	Varname(a3),d0		* get array name
00:00001958 20C0            	  3091: 	move.l	d0,(a0)+			* save array name
00:0000195A 7204            	  3092: 	moveq		#4,d1				* set 4 bytes per element
00:0000195C 08000017        	  3093: 	BTST.l	#23,d0			* test if string array
00:00001960 6702            	  3094: 	BEQ.s		LAB_1EDF			* branch if not string
                            	  3095: 
00:00001962 7206            	  3096: 	moveq		#6,d1				* else 6 bytes per element
                            	  3097: LAB_1EDF
00:00001964 274105A8        	  3098: 	move.l	d1,Asptl(a3)		* set array data size (bytes per element)
00:00001968 122B05DB        	  3099: 	move.b	Dimcnt(a3),d1		* get dimensions count
00:0000196C 5848            	  3100: 	ADDQ.w	#4,a0				* skip the array size now (don't know it yet!)
00:0000196E 30C1            	  3101: 	MOVE.w	d1,(a0)+			* set array's dimensions count
                            	  3102: 
00:00001970 4A2B05B4        	  3103: 	TST.b		Defdim(a3)			* test default DIM flag
00:00001974 6700F004        	  3104: 	BEQ		LAB_UDER			* if default flag is clear then we are on the
                            	  3105: 							* LHS of = with no array so go do "Undimensioned
                            	  3106: 							* array" error.
                            	  3107: 							* now calculate the array data space size
                            	  3108: LAB_1EC0
                            	  3109: 
                            	  3110: * If you want arrays to dimension themselves by default then comment out the test
                            	  3111: * above and uncomment the next three code lines and the label LAB_1ED0
                            	  3112: 
                            	  3113: *	MOVE.w	#$0A,d1			* set default dimension value, allow 0 to 9
                            	  3114: *	TST.b		Defdim(a3)			* test default DIM flag
                            	  3115: *	BNE.s		LAB_1ED0			* branch if b6 of Defdim is clear
                            	  3116: 
00:00001978 321F            	  3117: 	MOVE.w	(sp)+,d1			* get dimension size
                            	  3118: *LAB_1ED0
00:0000197A 30C1            	  3119: 	MOVE.w	d1,(a0)+			* save to array header
00:0000197C 610000AE        	  3120: 	BSR		LAB_1F7C			* do this dimension size+1 * array size
                            	  3121: 							* (d1+1)*(Asptl), result in d0
00:00001980 274005A8        	  3122: 	move.l	d0,Asptl(a3)		* save array data size
00:00001984 532B05DB        	  3123: 	SUBQ.b	#1,Dimcnt(a3)		* decrement dimensions count
00:00001988 66EE            	  3124: 	BNE.s		LAB_1EC0			* loop while not = 0
                            	  3125: 
00:0000198A D1EB05A8        	  3126: 	ADDA.l	Asptl(a3),a0		* add size to first element address
00:0000198E 6500F01E        	  3127: 	BCS		LAB_OMER			* if overflow go do "Out of memory" error
                            	  3128: 
00:00001992 B1EB0446        	  3129: 	CMPA.l	Sstorl(a3),a0		* compare with bottom of string memory
00:00001996 650C            	  3130: 	BCS.s		LAB_1ED6			* branch if less (is ok)
                            	  3131: 
00:00001998 6100029A        	  3132: 	BSR		LAB_GARB			* do garbage collection routine
00:0000199C B1EB0446        	  3133: 	CMPA.l	Sstorl(a3),a0		* compare with bottom of string memory
00:000019A0 6400F00C        	  3134: 	BCC		LAB_OMER			* if Sstorl <= a0 do "Out of memory"
                            	  3135: 							* error then warm start
                            	  3136: 
                            	  3137: LAB_1ED6						* ok exit, carry set
00:000019A4 27480442        	  3138: 	move.l	a0,Earryl(a3)		* save array mem end
00:000019A8 7000            	  3139: 	moveq		#0,d0				* zero d0
00:000019AA 222B05A8        	  3140: 	move.l	Asptl(a3),d1		* get size in bytes
00:000019AE E289            	  3141: 	LSR.l		#1,d1				* /2 for word fill (may be odd # words)
00:000019B0 5341            	  3142: 	SUBQ.w	#1,d1				* adjust for DBF loop
                            	  3143: LAB_1ED8
00:000019B2 3100            	  3144: 	MOVE.w	d0,-(a0)			* decrement pointer and clear word
00:000019B4 51C9FFFC        	  3145: 	DBF		d1,LAB_1ED8			* decrement & loop until low word done
                            	  3146: 
00:000019B8 4841            	  3147: 	SWAP		d1				* swap words
00:000019BA 4A41            	  3148: 	TST.w		d1				* test high word
00:000019BC 6706            	  3149: 	BEQ.s		LAB_1F07			* exit if done
                            	  3150: 
00:000019BE 5341            	  3151: 	SUBQ.w	#1,d1				* decrement low (high) word
00:000019C0 4841            	  3152: 	SWAP		d1				* swap back
00:000019C2 60EE            	  3153: 	BRA.s		LAB_1ED8			* go do a whole block
                            	  3154: 
                            	  3155: * now we need to calculate the array size by doing Earryl - Astrtl
                            	  3156: 
                            	  3157: LAB_1F07
00:000019C4 206B05AC        	  3158: 	MOVEA.l	Astrtl(a3),a0		* get for calculation and as pointer
00:000019C8 202B0442        	  3159: 	move.l	Earryl(a3),d0		* get array memory end
00:000019CC 9088            	  3160: 	SUB.l		a0,d0				* calculate array size
00:000019CE 21400004        	  3161: 	move.l	d0,4(a0)			* save size to array
00:000019D2 4A2B05B4        	  3162: 	TST.b		Defdim(a3)			* test default DIM flag
00:000019D6 6652            	  3163: 	BNE.s		RTS_011			* exit (RET) if this was a DIM command
                            	  3164: 
                            	  3165: 							* else, find element
00:000019D8 5048            	  3166: 	ADDQ.w	#8,a0				* index to dimension count
00:000019DA 375805DB        	  3167: 	MOVE.w	(a0)+,Dimcnt(a3)		* get array's dimension count
                            	  3168: 
                            	  3169: * we have found, or built, the array. now we need to find the element
                            	  3170: 
                            	  3171: LAB_1F28
00:000019DE 7000            	  3172: 	moveq		#0,d0				* clear first result
00:000019E0 274005A8        	  3173: 	move.l	d0,Asptl(a3)		* clear array data pointer
                            	  3174: 
                            	  3175: * compare nth dimension bound (a0) with nth index (sp)+
                            	  3176: * if greater do array bounds error
                            	  3177: 
                            	  3178: LAB_1F2C
00:000019E4 3218            	  3179: 	MOVE.w	(a0)+,d1			* get nth dimension bound
00:000019E6 B257            	  3180: 	CMP.w		(sp),d1			* compare nth index with nth dimension bound
00:000019E8 6500EFBC        	  3181: 	BCS		LAB_ABER			* if d1 less or = do array bounds error
                            	  3182: 
                            	  3183: * now do pointer = pointer * nth dimension + nth index
                            	  3184: 
00:000019EC 4A80            	  3185: 	TST.l		d0				* test pointer
00:000019EE 6702            	  3186: 	BEQ.s		LAB_1F5A			* skip multiply if last result = null
                            	  3187: 
00:000019F0 613A            	  3188: 	BSR.s		LAB_1F7C			* do this dimension size+1 * array size
                            	  3189: LAB_1F5A
00:000019F2 7200            	  3190: 	moveq		#0,d1				* clear longword
00:000019F4 321F            	  3191: 	MOVE.w	(sp)+,d1			* get nth dimension index
00:000019F6 D081            	  3192: 	ADD.l		d1,d0				* add index to size
00:000019F8 274005A8        	  3193: 	move.l	d0,Asptl(a3)		* save array data pointer
                            	  3194: 
00:000019FC 532B05DB        	  3195: 	SUBQ.b	#1,Dimcnt(a3)		* decrement dimensions count
00:00001A00 66E2            	  3196: 	BNE.s		LAB_1F2C			* loop if dimensions still to do
                            	  3197: 
00:00001A02 177C000005B5    	  3198: 	move.b	#0,Dtypef(a3)		* set data type to float
00:00001A08 7203            	  3199: 	moveq		#3,d1				* set for numeric array
00:00001A0A 4A2B046B        	  3200: 	TST.b		Varname+1(a3)		* test if string array
00:00001A0E 6A0A            	  3201: 	BPL.s		LAB_1F6A			* branch if not string
                            	  3202: 
00:00001A10 7205            	  3203: 	moveq		#5,d1				* else set for string array
00:00001A12 177C008005B5    	  3204: 	move.b	#$80,Dtypef(a3)		* and set data type to string
00:00001A18 600C            	  3205: 	BRA.s		LAB_1F6B			* skip integer test
                            	  3206: 
                            	  3207: LAB_1F6A
00:00001A1A 4A2B046C        	  3208: 	TST.b		Varname+2(a3)		* test if integer array
00:00001A1E 6A06            	  3209: 	BPL.s		LAB_1F6B			* branch if not integer
                            	  3210: 
00:00001A20 177C004005B5    	  3211: 	move.b	#$40,Dtypef(a3)		* else set data type to integer
                            	  3212: LAB_1F6B
00:00001A26 6104            	  3213: 	BSR.s		LAB_1F7C			* do element size (d1) * array size (Asptl)
00:00001A28 D1C0            	  3214: 	ADDA.l	d0,a0				* add array data start pointer
                            	  3215: RTS_011
00:00001A2A 4E75            	  3216: 	RTS
                            	  3217: 
                            	  3218: * do this dimension size (d1) * array data size (Asptl)
                            	  3219: 
                            	  3220: * do a 16 x 32 bit multiply
                            	  3221: * d1 holds the 16 bit multiplier
                            	  3222: * Asptl holds the 32 bit multiplicand
                            	  3223: 
                            	  3224: * d0	bbbb  bbbb
                            	  3225: * d1	0000  aaaa
                            	  3226: *	----------
                            	  3227: * d0	rrrr  rrrr
                            	  3228: 
                            	  3229: LAB_1F7C
00:00001A2C 202B05A8        	  3230: 	move.l	Asptl(a3),d0		* get result
00:00001A30 2400            	  3231: 	move.l	d0,d2				* copy it
00:00001A32 4842            	  3232: 	SWAP		d2				* shift high word to low word
00:00001A34 C0C1            	  3233: 	MULU.w	d1,d0				* d1 * low word = low result
00:00001A36 C4C1            	  3234: 	MULU.w	d1,d2				* d1 * high word = high result
00:00001A38 4842            	  3235: 	SWAP		d2				* align words for test
00:00001A3A 4A42            	  3236: 	TST.w		d2				* must be zero
00:00001A3C 6600EF70        	  3237: 	BNE		LAB_OMER			* if overflow go do "Out of memory" error
                            	  3238: 
00:00001A40 D082            	  3239: 	ADD.l		d2,d0				* calculate result
00:00001A42 6500EF6A        	  3240: 	BCS		LAB_OMER			* if overflow go do "Out of memory" error
                            	  3241: 
00:00001A46 D0AB05A8        	  3242: 	ADD.l		Asptl(a3),d0		* add original
00:00001A4A 6500EF62        	  3243: 	BCS		LAB_OMER			* if overflow go do "Out of memory" error
                            	  3244: 
00:00001A4E 4E75            	  3245: 	RTS
                            	  3246: 
                            	  3247: * perform FRE()
                            	  3248: 
                            	  3249: LAB_FRE
00:00001A50 4A2B05B5        	  3250: 	TST.b		Dtypef(a3)			* test data type, $80=string, $40=integer,
                            	  3251: 							* $00=float
00:00001A54 6A04            	  3252: 	BPL.s		LAB_1FB4			* branch if numeric
                            	  3253: 
00:00001A56 6100031C        	  3254: 	BSR		LAB_22B6			* pop string off descriptor stack, or from
                            	  3255: 							* top of string space, returns d0 = length,
                            	  3256: 							* a0 = pointer
                            	  3257: 
                            	  3258: 							* FRE(n) was numeric so do this
                            	  3259: LAB_1FB4
00:00001A5A 610001D8        	  3260: 	BSR		LAB_GARB			* go do garbage collection
00:00001A5E 202B0446        	  3261: 	move.l	Sstorl(a3),d0		* get bottom of string space
00:00001A62 90AB0442        	  3262: 	SUB.l		Earryl(a3),d0		* subtract array mem end
                            	  3263: 
                            	  3264: * convert d0 to signed longword in FAC1
                            	  3265: 
                            	  3266: LAB_AYFC
00:00001A66 177C000005B5    	  3267: 	move.b	#$00,Dtypef(a3)		* clear data type, $80=string, $40=integer,
                            	  3268: 							* $00=float
00:00001A6C 377CA0000594    	  3269: 	MOVE.w	#$A000,FAC1_e(a3)		* set FAC1 exponent and clear sign (b7)
00:00001A72 27400590        	  3270: 	move.l	d0,FAC1_m(a3)		* save FAC1 mantissa
00:00001A76 6A000640        	  3271: 	BPL		LAB_24D0			* convert if +ve
                            	  3272: 
00:00001A7A 003C0001        	  3273: 	ORI.b		#1,CCR			* else set carry
00:00001A7E 60000638        	  3274: 	BRA		LAB_24D0			* do +/- (carry is sign) & normalise FAC1
                            	  3275: 
                            	  3276: * remember if the line length is zero (infinite line) then POS(n) will return
                            	  3277: * position MOD tabsize
                            	  3278: 
                            	  3279: * perform POS()
                            	  3280: 
                            	  3281: LAB_POS
00:00001A82 102B05E5        	  3282: 	move.b	TPos(a3),d0			* get terminal position
                            	  3283: 
                            	  3284: * convert d0 to unsigned byte in FAC1
                            	  3285: 
                            	  3286: LAB_1FD0
00:00001A86 C0BC000000FF    	  3287: 	AND.l		#$FF,d0			* clear high bits
00:00001A8C 60D8            	  3288: 	BRA.s		LAB_AYFC			* convert d0 to signed longword in FAC1 & RET
                            	  3289: 
                            	  3290: * check not Direct (used by DEF and INPUT)
                            	  3291: 
                            	  3292: LAB_CKRN
00:00001A8E 4A2B0452        	  3293: 	TST.b		Clinel(a3)			* test current line #
00:00001A92 6B00EF06        	  3294: 	BMI		LAB_IDER			* if -ve go do illegal direct error then warm
                            	  3295: 							* start
                            	  3296: 
00:00001A96 4E75            	  3297: 	RTS						* can continue so return
                            	  3298: 
                            	  3299: * perform DEF
                            	  3300: 
                            	  3301: LAB_DEF
00:00001A98 70AA            	  3302: 	moveq		#TK_FN-$100,d0		* get FN token
00:00001A9A 6100FAC6        	  3303: 	BSR		LAB_SCCA			* scan for CHR$(d0), else syntax error and
                            	  3304: 							* warm start
                            	  3305: 							* return character after d0
00:00001A9E 177C008005DF    	  3306: 	move.b	#$80,Sufnxf(a3)		* set FN flag bit
00:00001AA4 6100FCD2        	  3307: 	BSR		LAB_1D12			* get FN name
00:00001AA8 274805B0        	  3308: 	move.l	a0,func_l(a3)		* save function pointer
                            	  3309: 
00:00001AAC 61E0            	  3310: 	BSR.s		LAB_CKRN			* check not Direct (back here if ok)
00:00001AAE 0C1D0028        	  3311: 	CMP.b		#$28,(a5)+			* check next byte is "(" and increment
00:00001AB2 6600EF0E        	  3312: 	BNE		LAB_SNER			* else do syntax error/warm start
                            	  3313: 
00:00001AB6 177C007E05DF    	  3314: 	move.b	#$7E,Sufnxf(a3)		* set FN variable flag bits
00:00001ABC 6100FCB0        	  3315: 	BSR		LAB_GVAR			* get variable address in a0
00:00001AC0 7000            	  3316: 	moveq		#0,d0				* set zero to clear variable
00:00001AC2 20C0            	  3317: 	move.l	d0,(a0)+			* clear variable
00:00001AC4 4A2B05B5        	  3318: 	TST.b		Dtypef(a3)			* test data type
00:00001AC8 6A02            	  3319: 	BPL.s		LAB_DEFV			* branch if numeric variable
                            	  3320: 
00:00001ACA 3080            	  3321: 	MOVE.w	d0,(a0)			* else clear string length
                            	  3322: LAB_DEFV
00:00001ACC 6100FA8A        	  3323: 	BSR		LAB_1BFB			* scan for ")" , else do syntax error/warm start
00:00001AD0 70BC            	  3324: 	moveq		#TK_EQUAL-$100,d0		* = token
00:00001AD2 6100FA8E        	  3325: 	BSR		LAB_SCCA			* scan for CHR$(A), else syntax error/warm start
                            	  3326: 							* return character after d0
00:00001AD6 2F2B046A        	  3327: 	move.l	Varname(a3),-(sp)		* push current variable name
00:00001ADA 2F0D            	  3328: 	move.l	a5,-(sp)			* push BASIC execute pointer
00:00001ADC 6100F45E        	  3329: 	BSR		LAB_DATA			* go perform DATA (find end of DEF FN statement)
00:00001AE0 206B05B0        	  3330: 	MOVEA.l	func_l(a3),a0		* get pointer
00:00001AE4 209F            	  3331: 	move.l	(sp)+,(a0)			* save BASIC execute pointer to function
00:00001AE6 215F0004        	  3332: 	move.l	(sp)+,4(a0)			* save current variable name to function
00:00001AEA 4E75            	  3333: 	RTS
                            	  3334: 
                            	  3335: * evaluate FNx
                            	  3336: 
                            	  3337: LAB_201E
00:00001AEC 177C008105DF    	  3338: 	move.b	#$81,Sufnxf(a3)		* set FN flag (find not create)
00:00001AF2 6100FA76        	  3339: 	BSR		LAB_IGBY			* increment & scan memory
00:00001AF6 6100FC80        	  3340: 	BSR		LAB_1D12			* get FN name
00:00001AFA 1F2B05B5        	  3341: 	move.b	Dtypef(a3),-(sp)		* push data type flag (function type)
00:00001AFE 2F08            	  3342: 	move.l	a0,-(sp)			* push function pointer
00:00001B00 0C150028        	  3343: 	CMP.b		#$28,(a5)			* check next byte is "(", no increment
00:00001B04 6600EEBC        	  3344: 	BNE		LAB_SNER			* else do syntax error/warm start
                            	  3345: 
00:00001B08 6100FA4A        	  3346: 	BSR		LAB_1BF7			* evaluate expression within parentheses
00:00001B0C 205F            	  3347: 	MOVEA.l	(sp)+,a0			* pop function pointer
00:00001B0E 274805B0        	  3348: 	move.l	a0,func_l(a3)		* set function pointer
00:00001B12 1F2B05B5        	  3349: 	move.b	Dtypef(a3),-(sp)		* push data type flag (function expression type)
                            	  3350: 
00:00001B16 20280004        	  3351: 	move.l	4(a0),d0			* get function variable name
00:00001B1A 6100FCC6        	  3352: 	BSR		LAB_1D4A			* go find function variable (already created)
                            	  3353: 
                            	  3354: 							* now check type match for variable
00:00001B1E 101F            	  3355: 	move.b	(sp)+,d0			* pop data type flag (function expression type)
00:00001B20 E318            	  3356: 	ROL.b		#1,d0				* set carry if type = string
00:00001B22 6100F8CE        	  3357: 	BSR		LAB_CKTM			* type match check, set C for string
                            	  3358: 
                            	  3359: 							* now stack the function variable value before
                            	  3360: 							* use
00:00001B26 6712            	  3361: 	BEQ.s		LAB_2043			* branch if not string
                            	  3362: 
00:00001B28 43EB0476        	  3363: 	lea		des_sk_e(a3),a1		* get string stack pointer max+1
00:00001B2C B9C9            	  3364: 	CMPA.l	a1,a4				* compare string stack pointer with max+1
00:00001B2E 6700EE5E        	  3365: 	BEQ		LAB_SCER			* if no space on the stack go do string too
                            	  3366: 							* complex error
                            	  3367: 
00:00001B32 39280004        	  3368: 	MOVE.w	4(a0),-(a4)			* string length on descriptor stack
00:00001B36 2910            	  3369: 	move.l	(a0),-(a4)			* string address on stack
00:00001B38 6002            	  3370: 	BRA.s		LAB_204S			* skip var push
                            	  3371: 
                            	  3372: LAB_2043
00:00001B3A 2F10            	  3373: 	move.l	(a0),-(sp)			* push variable
                            	  3374: LAB_204S
00:00001B3C 2F08            	  3375: 	move.l	a0,-(sp)			* push variable address
00:00001B3E 1F2B05B5        	  3376: 	move.b	Dtypef(a3),-(sp)		* push variable data type
                            	  3377: 
00:00001B42 6132            	  3378: 	BSR.s		LAB_2045			* pack function expression value into (a0)
                            	  3379: 							* (function variable)
00:00001B44 2F0D            	  3380: 	move.l	a5,-(sp)			* push BASIC execute pointer
00:00001B46 206B05B0        	  3381: 	MOVEA.l	func_l(a3),a0		* get function pointer
00:00001B4A 2A50            	  3382: 	MOVEA.l	(a0),a5			* save function execute ptr as BASIC execute ptr
00:00001B4C 6100F8B8        	  3383: 	BSR		LAB_EVEX			* evaluate expression
00:00001B50 6100FA1A        	  3384: 	BSR		LAB_GBYT			* scan memory
00:00001B54 6600EE6C        	  3385: 	BNE		LAB_SNER			* if not [EOL] or [EOS] do syntax error and
                            	  3386: 							* warm start
                            	  3387: 
00:00001B58 2A5F            	  3388: 	move.l	(sp)+,a5			* restore BASIC execute pointer
                            	  3389: 
                            	  3390: * restore variable from stack and test data type
                            	  3391: 
00:00001B5A 101F            	  3392: 	move.b	(sp)+,d0			* pull variable data type
00:00001B5C 205F            	  3393: 	MOVEA.l	(sp)+,a0			* pull variable address
00:00001B5E 4A00            	  3394: 	TST.b		d0				* test variable data type
00:00001B60 6A08            	  3395: 	BPL.s		LAB_204T			* branch if not string
                            	  3396: 
00:00001B62 209C            	  3397: 	move.l	(a4)+,(a0)			* string address from descriptor stack
00:00001B64 315C0004        	  3398: 	MOVE.w	(a4)+,4(a0)			* string length from descriptor stack
00:00001B68 6002            	  3399: 	BRA.s		LAB_2044			* skip variable pull
                            	  3400: 
                            	  3401: LAB_204T
00:00001B6A 209F            	  3402: 	move.l	(sp)+,(a0)			* restore variable from stack
                            	  3403: LAB_2044
00:00001B6C 101F            	  3404: 	move.b	(sp)+,d0			* pop data type flag (function type)
00:00001B6E E318            	  3405: 	ROL.b		#1,d0				* set carry if type = string
00:00001B70 6100F880        	  3406: 	BSR		LAB_CKTM			* type match check, set C for string
00:00001B74 4E75            	  3407: 	RTS
                            	  3408: 
                            	  3409: LAB_2045
00:00001B76 4A2B05B5        	  3410: 	TST.b		Dtypef(a3)			* test data type
00:00001B7A 6A0007EE        	  3411: 	BPL		LAB_2778			* if numeric pack FAC1 into variable (a0)
                            	  3412: 							* and return
                            	  3413: 
00:00001B7E 2448            	  3414: 	MOVEA.l	a0,a2				* copy variable pointer
00:00001B80 6000F508        	  3415: 	BRA		LAB_17D6			* go do string LET & return
                            	  3416: 
                            	  3417: 
                            	  3418: * perform STR$()
                            	  3419: 
                            	  3420: LAB_STRS
00:00001B84 6100094C        	  3421: 	BSR		LAB_2970			* convert FAC1 to string
                            	  3422: 
                            	  3423: * scan, set up string
                            	  3424: * print " terminated string to FAC1 stack
                            	  3425: 
                            	  3426: LAB_20AE
00:00001B88 7422            	  3427: 	moveq		#$22,d2			* set Srchc character (terminator 1)
00:00001B8A 3602            	  3428: 	MOVE.w	d2,d3				* set Asrch character (terminator 2)
                            	  3429: 
                            	  3430: * print d2/d3 terminated string to FAC1 stack
                            	  3431: * d2 = Srchc, d3 = Asrch, a0 is source
                            	  3432: * a6 is temp
                            	  3433: 
                            	  3434: LAB_20B4
00:00001B8C 7200            	  3435: 	moveq		#0,d1				* clear longword
00:00001B8E 5341            	  3436: 	SUBQ.w	#1,d1				* set length to -1
00:00001B90 2448            	  3437: 	MOVEA.l	a0,a2				* copy start to calculate end
                            	  3438: LAB_20BE
00:00001B92 5241            	  3439: 	ADDQ.w	#1,d1				* increment length
00:00001B94 10301000        	  3440: 	move.b	(a0,d1.w),d0		* get byte from string
00:00001B98 6710            	  3441: 	BEQ.s		LAB_20D0			* exit loop if null byte [EOS]
                            	  3442: 
00:00001B9A B002            	  3443: 	CMP.b		d2,d0				* compare with search character (terminator 1)
00:00001B9C 6704            	  3444: 	BEQ.s		LAB_20CB			* branch if terminator
                            	  3445: 
00:00001B9E B003            	  3446: 	CMP.b		d3,d0				* compare with terminator 2
00:00001BA0 66F0            	  3447: 	BNE.s		LAB_20BE			* loop if not terminator 2 (or null string)
                            	  3448: 
                            	  3449: LAB_20CB
00:00001BA2 B03C0022        	  3450: 	CMP.b		#$22,d0			* compare with "
00:00001BA6 6602            	  3451: 	BNE.s		LAB_20D0			* branch if not "
                            	  3452: 
00:00001BA8 524A            	  3453: 	ADDQ.w	#1,a2				* else increment string start (skip " at end)
                            	  3454: LAB_20D0
00:00001BAA D5C1            	  3455: 	ADDA.l	d1,a2				* add longowrd length to make string end+1
                            	  3456: 
00:00001BAC B1CB            	  3457: 	CMPA.l	a3,a0				* is string in ram
00:00001BAE 651E            	  3458: 	BCS.s		LAB_RTST			* if not go push descriptor on stack & exit
                            	  3459: 							* (could be message string from ROM)
                            	  3460: 
00:00001BB0 B1EB042E        	  3461: 	CMPA.l	Smeml(a3),a0		* is string in utility ram
00:00001BB4 6418            	  3462: 	BCC.s		LAB_RTST			* if not go push descriptor on stack & exit
                            	  3463: 							* (is in string or program space)
                            	  3464: 
                            	  3465: 							* (else) copy string to string memory
                            	  3466: LAB_20C9
00:00001BB6 2248            	  3467: 	MOVEA.l	a0,a1				* copy descriptor pointer
00:00001BB8 2001            	  3468: 	move.l	d1,d0				* copy longword length
00:00001BBA 6604            	  3469: 	BNE.s		LAB_20D8			* branch if not null string
                            	  3470: 
00:00001BBC 2041            	  3471: 	MOVEA.l	d1,a0				* make null pointer
00:00001BBE 600E            	  3472: 	BRA.s		LAB_RTST			* go push descriptor on stack & exit
                            	  3473: 
                            	  3474: LAB_20D8
00:00001BC0 6126            	  3475: 	BSR.s		LAB_2115			* make string space d1 bytes long
00:00001BC2 D1C1            	  3476: 	ADDA.l	d1,a0				* new string end
00:00001BC4 D3C1            	  3477: 	ADDA.l	d1,a1				* old string end
00:00001BC6 5340            	  3478: 	SUBQ.w	#1,d0				* -1 for DBF loop
                            	  3479: LAB_20E0
00:00001BC8 1121            	  3480: 	move.b	-(a1),-(a0)			* copy byte (source can be odd aligned)
00:00001BCA 51C8FFFC        	  3481: 	DBF		d0,LAB_20E0			* loop until done
                            	  3482: 
                            	  3483: 
                            	  3484: * check for space on descriptor stack then ...
                            	  3485: * put string address and length on descriptor stack & update stack pointers
                            	  3486: * start is in a0, length is in d1
                            	  3487: 
                            	  3488: LAB_RTST
00:00001BCE 43EB0476        	  3489: 	lea		des_sk_e(a3),a1		* get string stack pointer max+1
00:00001BD2 B9C9            	  3490: 	CMPA.l	a1,a4				* compare string stack pointer with max+1
00:00001BD4 6700EDB8        	  3491: 	BEQ		LAB_SCER			* if no space on string stack ..
                            	  3492: 							* .. go do 'string too complex' error
                            	  3493: 
                            	  3494: 							* push string & update pointers
00:00001BD8 3901            	  3495: 	MOVE.w	d1,-(a4)			* string length on descriptor stack
00:00001BDA 2908            	  3496: 	move.l	a0,-(a4)			* string address on stack
00:00001BDC 274C0590        	  3497: 	move.l	a4,FAC1_m(a3)		* string descriptor pointer in FAC1
00:00001BE0 177C008005B5    	  3498: 	move.b	#$80,Dtypef(a3)		* save data type flag, $80=string
00:00001BE6 4E75            	  3499: 	RTS
                            	  3500: 
                            	  3501: * build descriptor a0/d1
                            	  3502: * make space in string memory for string d1.w long
                            	  3503: * return pointer in a0/Sutill
                            	  3504: 
                            	  3505: LAB_2115
00:00001BE8 4A41            	  3506: 	TST.w		d1				* test length
00:00001BEA 672E            	  3507: 	BEQ.s		LAB_2128			* branch if user wants null string
                            	  3508: 
                            	  3509: 							* make space for string d1 long
00:00001BEC 2F00            	  3510: 	move.l	d0,-(sp)			* save d0
00:00001BEE 7000            	  3511: 	moveq		#0,d0				* clear longword
00:00001BF0 174005DE        	  3512: 	move.b	d0,Gclctd(a3)		* clear garbage collected flag (b7)
00:00001BF4 7001            	  3513: 	moveq		#1,d0				* +1 to possibly round up
00:00001BF6 C041            	  3514: 	AND.w		d1,d0				* mask odd bit
00:00001BF8 D041            	  3515: 	ADD.w		d1,d0				* ensure d0 is even length
00:00001BFA 6404            	  3516: 	BCC.s		LAB_2117			* branch if no overflow
                            	  3517: 
00:00001BFC 7001            	  3518: 	moveq		#1,d0				* set to allocate 65536 bytes
00:00001BFE 4840            	  3519: 	SWAP		d0				* makes $00010000
                            	  3520: LAB_2117
00:00001C00 206B0446        	  3521: 	MOVEA.l	Sstorl(a3),a0		* get bottom of string space
00:00001C04 91C0            	  3522: 	SUBA.l	d0,a0				* subtract string length
00:00001C06 B1EB0442        	  3523: 	CMPA.l	Earryl(a3),a0		* compare with top of array space
00:00001C0A 6512            	  3524: 	BCS.s		LAB_2137			* possibly do out of memory error if less
                            	  3525: 
00:00001C0C 27480446        	  3526: 	move.l	a0,Sstorl(a3)		* save bottom of string space
00:00001C10 2748044E        	  3527: 	move.l	a0,Sutill(a3)		* save string utility pointer
00:00001C14 201F            	  3528: 	move.l	(sp)+,d0			* restore d0
00:00001C16 4A41            	  3529: 	TST.w		d1				* set flags on length
00:00001C18 4E75            	  3530: 	RTS
                            	  3531: 
                            	  3532: LAB_2128
00:00001C1A 3041            	  3533: 	MOVEA.w	d1,a0				* make null pointer
00:00001C1C 4E75            	  3534: 	RTS
                            	  3535: 
                            	  3536: LAB_2137
00:00001C1E 4A2B05DE        	  3537: 	TST.b		Gclctd(a3)			* get garbage collected flag
00:00001C22 6B00ED8A        	  3538: 	BMI		LAB_OMER			* do "Out of memory" error, then warm start
                            	  3539: 
00:00001C26 2F09            	  3540: 	move.l	a1,-(sp)			* save a1
00:00001C28 610A            	  3541: 	BSR.s		LAB_GARB			* else go do garbage collection
00:00001C2A 225F            	  3542: 	MOVEA.l	(sp)+,a1			* restore a1
00:00001C2C 177C008005DE    	  3543: 	move.b	#$80,Gclctd(a3)		* set garbage collected flag
00:00001C32 60CC            	  3544: 	BRA.s		LAB_2117			* go try again
                            	  3545: 
                            	  3546: * garbage collection routine
                            	  3547: 
                            	  3548: LAB_GARB
00:00001C34 48E7E0E0        	  3549: 	movem.l	d0-d2/a0-a2,-(sp)		* save registers
00:00001C38 276B044A0446    	  3550: 	move.l	Ememl(a3),Sstorl(a3)	* start with no strings
                            	  3551: 
                            	  3552: 							* re-run routine from last ending
                            	  3553: LAB_214B
00:00001C3E 222B0442        	  3554: 	move.l	Earryl(a3),d1		* set highest uncollected string so far
00:00001C42 7000            	  3555: 	moveq		#0,d0				* clear longword
00:00001C44 2240            	  3556: 	MOVEA.l	d0,a1				* clear string to move pointer
00:00001C46 206B043A        	  3557: 	MOVEA.l	Sstrl(a3),a0		* set pointer to start of strings
00:00001C4A 41E80004        	  3558: 	lea		4(a0),a0			* index to string pointer
00:00001C4E 246B043E        	  3559: 	MOVEA.l	Sarryl(a3),a2		* set end pointer to start of arrays (end of
                            	  3560: 							* strings)
00:00001C52 6008            	  3561: 	BRA.s		LAB_2176			* branch into loop at end loop test
                            	  3562: 
                            	  3563: LAB_2161
00:00001C54 61000084        	  3564: 	BSR		LAB_2206			* test and set if this is the highest string
00:00001C58 41E8000A        	  3565: 	lea		10(a0),a0			* increment to next string
                            	  3566: LAB_2176
00:00001C5C B1CA            	  3567: 	CMPA.l	a2,a0				* compare end of area with pointer
00:00001C5E 65F4            	  3568: 	BCS.s		LAB_2161			* go do next if not at end
                            	  3569: 
                            	  3570: * done strings, now do arrays.
                            	  3571: 
00:00001C60 41E8FFFC        	  3572: 	lea		-4(a0),a0			* decrement pointer to start of arrays
00:00001C64 246B0442        	  3573: 	MOVEA.l	Earryl(a3),a2		* set end pointer to end of arrays
00:00001C68 6024            	  3574: 	BRA.s		LAB_218F			* branch into loop at end loop test
                            	  3575: 
                            	  3576: LAB_217E
00:00001C6A 24280004        	  3577: 	move.l	4(a0),d2			* get array size
00:00001C6E D488            	  3578: 	ADD.l		a0,d2				* makes start of next array
                            	  3579: 
00:00001C70 2010            	  3580: 	move.l	(a0),d0			* get array name
00:00001C72 08000017        	  3581: 	BTST		#23,d0			* test string flag
00:00001C76 6714            	  3582: 	BEQ.s		LAB_218B			* branch if not string
                            	  3583: 
00:00001C78 30280008        	  3584: 	MOVE.w	8(a0),d0			* get # of dimensions
00:00001C7C D040            	  3585: 	ADD.w		d0,d0				* *2
00:00001C7E D0C0            	  3586: 	ADDA.w	d0,a0				* add to skip dimension size(s)
00:00001C80 41E8000A        	  3587: 	lea		10(a0),a0			* increment to first element
                            	  3588: LAB_2183
00:00001C84 6154            	  3589: 	BSR.s		LAB_2206			* test and set if this is the highest string
00:00001C86 5C48            	  3590: 	ADDQ.w	#6,a0				* increment to next element
00:00001C88 B1C2            	  3591: 	CMPA.l	d2,a0				* compare with start of next array
00:00001C8A 66F8            	  3592: 	BNE.s		LAB_2183			* go do next if not at end of array
                            	  3593: 
                            	  3594: LAB_218B
00:00001C8C 2042            	  3595: 	MOVEA.l	d2,a0				* pointer to next array
                            	  3596: LAB_218F
00:00001C8E B5C8            	  3597: 	CMPA.l	a0,a2				* compare pointer with array end
00:00001C90 66D8            	  3598: 	BNE.s		LAB_217E			* go do next if not at end
                            	  3599: 
                            	  3600: * done arrays and variables, now just the descriptor stack to do
                            	  3601: 
00:00001C92 204C            	  3602: 	MOVEA.l	a4,a0				* get descriptor stack pointer
00:00001C94 45EB048E        	  3603: 	lea		des_sk(a3),a2		* set end pointer to end of stack
00:00001C98 6006            	  3604: 	BRA.s		LAB_21C4			* branch into loop at end loop test
                            	  3605: 
                            	  3606: LAB_21C2
00:00001C9A 613E            	  3607: 	BSR.s		LAB_2206			* test and set if this is the highest string
00:00001C9C 41E80006        	  3608: 	lea		6(a0),a0			* increment to next string
                            	  3609: LAB_21C4
00:00001CA0 B5C8            	  3610: 	CMPA.l	a0,a2				* compare pointer with stack end
00:00001CA2 66F6            	  3611: 	BNE.s		LAB_21C2			* go do next if not at end
                            	  3612: 
                            	  3613: * descriptor search complete, now either exit or set-up and move string
                            	  3614: 
00:00001CA4 2009            	  3615: 	move.l	a1,d0				* set the flags (a1 is move string)
00:00001CA6 672C            	  3616: 	BEQ.s		LAB_21D1			* go tidy up and exit if no move
                            	  3617: 
00:00001CA8 2051            	  3618: 	MOVEA.l	(a1),a0			* a0 is now string start
00:00001CAA 7200            	  3619: 	moveq		#0,d1				* clear d1
00:00001CAC 32290004        	  3620: 	MOVE.w	4(a1),d1			* d1 is string length
00:00001CB0 5281            	  3621: 	ADDQ.l	#1,d1				* +1
00:00001CB2 C23C00FE        	  3622: 	AND.b		#$FE,d1			* make even length
00:00001CB6 D1C1            	  3623: 	ADDA.l	d1,a0				* pointer is now to string end+1
00:00001CB8 246B0446        	  3624: 	MOVEA.l	Sstorl(a3),a2		* is destination end+1
00:00001CBC B1CA            	  3625: 	CMPA.l	a2,a0				* does the string need moving
00:00001CBE 670C            	  3626: 	BEQ.s		LAB_2240			* branch if not
                            	  3627: 
00:00001CC0 E289            	  3628: 	LSR.l		#1,d1				* word move so do /2
00:00001CC2 5341            	  3629: 	SUBQ.w	#1,d1				* -1 for DBF loop
                            	  3630: LAB_2216
00:00001CC4 3520            	  3631: 	MOVE.w	-(a0),-(a2)			* copy word
00:00001CC6 51C9FFFC        	  3632: 	DBF		d1,LAB_2216			* loop until done
                            	  3633: 
00:00001CCA 228A            	  3634: 	move.l	a2,(a1)			* save new string start
                            	  3635: LAB_2240
00:00001CCC 27510446        	  3636: 	move.l	(a1),Sstorl(a3)		* string start is new string mem start
00:00001CD0 6000FF6C        	  3637: 	BRA		LAB_214B			* re-run routine from last ending
                            	  3638: 							* (but don't collect this string)
                            	  3639: 
                            	  3640: LAB_21D1
00:00001CD4 4CDF0707        	  3641: 	movem.l	(sp)+,d0-d2/a0-a2		* restore registers
00:00001CD8 4E75            	  3642: 	RTS
                            	  3643: 
                            	  3644: * test and set if this is the highest string
                            	  3645: 
                            	  3646: LAB_2206
00:00001CDA 2010            	  3647: 	move.l	(a0),d0			* get this string pointer
00:00001CDC 6728            	  3648: 	BEQ.s		RTS_012			* exit if null string
                            	  3649: 
00:00001CDE B280            	  3650: 	CMP.l		d0,d1				* compare with highest uncollected string so far
00:00001CE0 6424            	  3651: 	BCC.s		RTS_012			* exit if <= with highest so far
                            	  3652: 
00:00001CE2 B0AB0446        	  3653: 	CMP.l		Sstorl(a3),d0		* compare with bottom of string space
00:00001CE6 641E            	  3654: 	BCC.s		RTS_012			* exit if >= bottom of string space
                            	  3655: 
00:00001CE8 70FF            	  3656: 	moveq		#-1,d0			* d0 = $FFFFFFFF
00:00001CEA 30280004        	  3657: 	MOVE.w	4(a0),d0			* d0 is string length
00:00001CEE 4440            	  3658: 	NEG.w		d0				* make -ve
00:00001CF0 C03C00FE        	  3659: 	AND.b		#$FE,d0			* make -ve even length
00:00001CF4 D0AB0446        	  3660: 	ADD.l		Sstorl(a3),d0		* add string store to -ve length
00:00001CF8 B090            	  3661: 	CMP.l		(a0),d0			* compare with string address
00:00001CFA 6706            	  3662: 	BEQ.s		LAB_2212			* if = go move string store pointer down
                            	  3663: 
00:00001CFC 2210            	  3664: 	move.l	(a0),d1			* highest = current
00:00001CFE 2248            	  3665: 	MOVEA.l	a0,a1				* string to move = current
00:00001D00 4E75            	  3666: 	RTS
                            	  3667: 
                            	  3668: LAB_2212
00:00001D02 27400446        	  3669: 	move.l	d0,Sstorl(a3)		* set new string store start
                            	  3670: RTS_012
00:00001D06 4E75            	  3671: 	RTS
                            	  3672: 
                            	  3673: * concatenate
                            	  3674: * add strings, string descriptor 1 is in FAC1_m, string 2 is in line
                            	  3675: 
                            	  3676: LAB_224D
00:00001D08 2F2B0590        	  3677: 	move.l	FAC1_m(a3),-(sp)		* stack descriptor pointer for string 1
                            	  3678: 
00:00001D0C 6100F808        	  3679: 	BSR		LAB_GVAL			* get value from line
00:00001D10 4A2B05B5        	  3680: 	TST.b		Dtypef(a3)			* test data type flag
00:00001D14 6A00EC80        	  3681: 	BPL		LAB_TMER			* if type is not string do type mismatch error
                            	  3682: 
00:00001D18 2057            	  3683: 	MOVEA.l	(sp),a0			* copy descriptor pointer 1
00:00001D1A 226B0590        	  3684: 	MOVEA.l	FAC1_m(a3),a1		* copy descriptor pointer 2
00:00001D1E 32280004        	  3685: 	MOVE.w	4(a0),d1			* get length 1
00:00001D22 D2690004        	  3686: 	ADD.w		4(a1),d1			* add length 2
00:00001D26 6500EC6A        	  3687: 	BCS		LAB_SLER			* if overflow go do 'string too long' error
                            	  3688: 
00:00001D2A 6100FEBC        	  3689: 	BSR		LAB_2115			* make space d1 bytes long
00:00001D2E 27480598        	  3690: 	move.l	a0,FAC2_m(a3)		* save new string start pointer
00:00001D32 2057            	  3691: 	MOVEA.l	(sp),a0			* copy descriptor pointer 1 from stack
00:00001D34 30280004        	  3692: 	MOVE.w	4(a0),d0			* get length
00:00001D38 2050            	  3693: 	MOVEA.l	(a0),a0			* get string pointer
00:00001D3A 611E            	  3694: 	BSR.s		LAB_229E			* copy string d0 bytes long from a0 to Sutill
                            	  3695: 							* return with a0 = pointer, d1 = length
                            	  3696: 
00:00001D3C 206B0590        	  3697: 	MOVEA.l	FAC1_m(a3),a0		* get descriptor pointer for string 2
00:00001D40 6136            	  3698: 	BSR.s		LAB_22BA			* pop (a0) descriptor, returns with ..
                            	  3699: 							* a0 = pointer, d0 = length
00:00001D42 6116            	  3700: 	BSR.s		LAB_229E			* copy string d0 bytes long from a0 to Sutill
                            	  3701: 							* return with a0 = pointer, d1 = length
                            	  3702: 
00:00001D44 205F            	  3703: 	MOVEA.l	(sp)+,a0			* get descriptor pointer for string 1
00:00001D46 6130            	  3704: 	BSR.s		LAB_22BA			* pop (a0) descriptor, returns with ..
                            	  3705: 							* d0 = length, a0 = pointer
                            	  3706: 
00:00001D48 206B0598        	  3707: 	MOVEA.l	FAC2_m(a3),a0		* retreive result string pointer
00:00001D4C 222B044E        	  3708: 	move.l	Sutill(a3),d1		* copy end
00:00001D50 9288            	  3709: 	SUB.l		a0,d1				* subtract start = length
00:00001D52 6100FE7A        	  3710: 	BSR		LAB_RTST			* push string on descriptor stack
                            	  3711: 							* a0 = pointer, d1 = length
00:00001D56 6000F6DC        	  3712: 	BRA		LAB_1ADB			* continue evaluation
                            	  3713: 
                            	  3714: * copy string d0 bytes long from a0 to Sutill
                            	  3715: * return with a0 = pointer, d1 = length
                            	  3716: 
                            	  3717: LAB_229E
00:00001D5A 3200            	  3718: 	MOVE.w	d0,d1				* copy and check length
00:00001D5C 6714            	  3719: 	BEQ.s		RTS_013			* skip copy if null
                            	  3720: 
00:00001D5E 226B044E        	  3721: 	MOVEA.l	Sutill(a3),a1		* get destination pointer
00:00001D62 2F09            	  3722: 	move.l	a1,-(sp)			* save destination string pointer
00:00001D64 5340            	  3723: 	SUBQ.w	#1,d0				* subtract for DBF loop
                            	  3724: LAB_22A0
00:00001D66 12D8            	  3725: 	move.b	(a0)+,(a1)+			* copy byte
00:00001D68 51C8FFFC        	  3726: 	DBF		d0,LAB_22A0			* loop if not done
                            	  3727: 
00:00001D6C 2749044E        	  3728: 	move.l	a1,Sutill(a3)		* update Sutill to end of copied string
00:00001D70 205F            	  3729: 	MOVEA.l	(sp)+,a0			* restore destination string pointer
                            	  3730: RTS_013
00:00001D72 4E75            	  3731: 	RTS
                            	  3732: 
                            	  3733: * pop string off descriptor stack, or from top of string space
                            	  3734: * returns with d0 = length, a0 = pointer
                            	  3735: 
                            	  3736: LAB_22B6
00:00001D74 206B0590        	  3737: 	MOVEA.l	FAC1_m(a3),a0		* get descriptor pointer
                            	  3738: 
                            	  3739: * pop (a0) descriptor off stack or from string space
                            	  3740: * returns with d0 = length, a0 = pointer
                            	  3741: 
                            	  3742: LAB_22BA
00:00001D78 48E74040        	  3743: 	movem.l	a1/d1,-(sp)			* save other regs
00:00001D7C B9C8            	  3744: 	CMPA.l	a0,a4				* is string on the descriptor stack
00:00001D7E 6602            	  3745: 	BNE.s		LAB_22BD			* skip pop if not
                            	  3746: 
00:00001D80 5C4C            	  3747: 	ADDQ.w	#$06,a4			* else update stack pointer
                            	  3748: LAB_22BD
00:00001D82 7000            	  3749: 	moveq		#0,d0				* clear string length longword
00:00001D84 2258            	  3750: 	MOVEA.l	(a0)+,a1			* get string address
00:00001D86 3018            	  3751: 	MOVE.w	(a0)+,d0			* get string length
                            	  3752: 
00:00001D88 B9C8            	  3753: 	CMPA.l	a0,a4				* was it on the descriptor stack
00:00001D8A 6610            	  3754: 	BNE.s		LAB_22E6			* branch if it wasn't
                            	  3755: 
00:00001D8C B3EB0446        	  3756: 	CMPA.l	Sstorl(a3),a1		* compare string address with bottom of string
                            	  3757: 							* space
00:00001D90 660A            	  3758: 	BNE.s		LAB_22E6			* branch if <>
                            	  3759: 
00:00001D92 7201            	  3760: 	moveq		#1,d1				* mask for odd bit
00:00001D94 C240            	  3761: 	AND.w		d0,d1				* AND length
00:00001D96 D280            	  3762: 	ADD.l		d0,d1				* make it fit word aligned length
                            	  3763: 
00:00001D98 D3AB0446        	  3764: 	ADD.l		d1,Sstorl(a3)		* add to bottom of string space
                            	  3765: LAB_22E6
00:00001D9C 2049            	  3766: 	MOVEA.l	a1,a0				* copy to a0
00:00001D9E 4CDF0202        	  3767: 	movem.l	(sp)+,a1/d1			* restore other regs
00:00001DA2 4A40            	  3768: 	TST.w		d0				* set flags on length
00:00001DA4 4E75            	  3769: 	RTS
                            	  3770: 
                            	  3771: * perform CHR$()
                            	  3772: 
                            	  3773: LAB_CHRS
00:00001DA6 61000130        	  3774: 	BSR		LAB_EVBY			* evaluate byte expression, result in d0 and
                            	  3775: 							* Itemp
00:00001DAA 7201            	  3776: 	moveq		#1,d1				* string is single byte
00:00001DAC 6100FE3A        	  3777: 	BSR		LAB_2115			* make string space d1 bytes long
                            	  3778: 							* return a0/Sutill = pointer, others unchanged
00:00001DB0 1080            	  3779: 	move.b	d0,(a0)			* save byte in string (byte IS string!)
00:00001DB2 6000FE1A        	  3780: 	BRA		LAB_RTST			* push string on descriptor stack
                            	  3781: 							* a0 = pointer, d1 = length
                            	  3782: 
                            	  3783: * perform LEFT$()
                            	  3784: 
                            	  3785: * enter with a0 is descriptor, d0 & Itemp is word 1
                            	  3786: 
                            	  3787: LAB_LEFT
00:00001DB6 C141            	  3788: 	EXG		d0,d1				* word in d1
00:00001DB8 6100F79E        	  3789: 	BSR		LAB_1BFB			* scan for ")" , else do syntax error/warm start
                            	  3790: 
00:00001DBC 4A81            	  3791: 	TST.l		d1				* test returned length
00:00001DBE 6722            	  3792: 	BEQ.s		LAB_231C			* branch if null return
                            	  3793: 
00:00001DC0 7000            	  3794: 	moveq		#0,d0				* clear start offset
00:00001DC2 B2680004        	  3795: 	CMP.w		4(a0),d1			* compare word parameter with string length
00:00001DC6 651A            	  3796: 	BCS.s		LAB_231C			* branch if string length > word parameter
                            	  3797: 
00:00001DC8 6014            	  3798: 	BRA.s		LAB_2317			* go copy whole string
                            	  3799: 
                            	  3800: * perform RIGHT$()
                            	  3801: 
                            	  3802: * enter with a0 is descriptor, d0 & Itemp is word 1
                            	  3803: 
                            	  3804: LAB_RIGHT
00:00001DCA C141            	  3805: 	EXG		d0,d1				* word in d1
00:00001DCC 6100F78A        	  3806: 	BSR		LAB_1BFB			* scan for ")" , else do syntax error/warm start
                            	  3807: 
00:00001DD0 4A81            	  3808: 	TST.l		d1				* test returned length
00:00001DD2 670E            	  3809: 	BEQ.s		LAB_231C			* branch if null return
                            	  3810: 
00:00001DD4 30280004        	  3811: 	MOVE.w	4(a0),d0			* get string length
00:00001DD8 9081            	  3812: 	SUB.l		d1,d0				* subtract word
00:00001DDA 6406            	  3813: 	BCC.s		LAB_231C			* branch if string length > word parameter
                            	  3814: 
                            	  3815: 							* else copy whole string
                            	  3816: LAB_2316
00:00001DDC 7000            	  3817: 	moveq		#0,d0				* clear start offset
                            	  3818: LAB_2317
00:00001DDE 32280004        	  3819: 	MOVE.w	4(a0),d1			* else make parameter = length
                            	  3820: 
                            	  3821: * get here with ...
                            	  3822: *   a0 - points to descriptor
                            	  3823: *   d0 - is offset from string start
                            	  3824: *   d1 - is required string length
                            	  3825: 
                            	  3826: LAB_231C
00:00001DE2 2248            	  3827: 	MOVEA.l	a0,a1				* save string descriptor pointer
00:00001DE4 6100FE02        	  3828: 	BSR		LAB_2115			* make string space d1 bytes long
                            	  3829: 							* return a0/Sutill = pointer, others unchanged
00:00001DE8 2049            	  3830: 	MOVEA.l	a1,a0				* restore string descriptor pointer
00:00001DEA 2F00            	  3831: 	move.l	d0,-(sp)			* save start offset (longword)
00:00001DEC 618A            	  3832: 	BSR.s		LAB_22BA			* pop (a0) descriptor, returns with ..
                            	  3833: 							* d0 = length, a0 = pointer
00:00001DEE D1DF            	  3834: 	ADDA.l	(sp)+,a0			* adjust pointer to start of wanted string
00:00001DF0 3001            	  3835: 	MOVE.w	d1,d0				* length to d0
00:00001DF2 6100FF66        	  3836: 	BSR		LAB_229E			* store string d0 bytes long from (a0) to
                            	  3837: 							* (Sutill) return with a0 = pointer,
                            	  3838: 							* d1 = length
00:00001DF6 6000FDD6        	  3839: 	BRA		LAB_RTST			* push string on descriptor stack
                            	  3840: 							* a0 = pointer, d1 = length
                            	  3841: 
                            	  3842: * perform MID$()
                            	  3843: 
                            	  3844: * enter with a0 is descriptor, d0 & Itemp is word 1
                            	  3845: 
                            	  3846: LAB_MIDS
00:00001DFA 7E00            	  3847: 	moveq		#0,d7				* clear longword
00:00001DFC 5347            	  3848: 	SUBQ.w	#1,d7				* set default length = 65535
00:00001DFE 2F00            	  3849: 	move.l	d0,-(sp)			* save word 1
00:00001E00 6100F76A        	  3850: 	BSR		LAB_GBYT			* scan memory
00:00001E04 B03C002C        	  3851: 	CMP.b		#',',d0			* was it ","
00:00001E08 660C            	  3852: 	BNE.s		LAB_2358			* branch if not "," (skip second byte get)
                            	  3853: 
00:00001E0A 101D            	  3854: 	move.b	(a5)+,d0			* increment pointer past ","
00:00001E0C 2F08            	  3855: 	move.l	a0,-(sp)			* save descriptor pointer
00:00001E0E 610000D8        	  3856: 	BSR		LAB_GTWO			* get word parameter, result in d0 and Itemp
00:00001E12 205F            	  3857: 	MOVEA.l	(sp)+,a0			* restore descriptor pointer
00:00001E14 2E00            	  3858: 	move.l	d0,d7				* copy length
                            	  3859: LAB_2358
00:00001E16 6100F740        	  3860: 	BSR		LAB_1BFB			* scan for ")", else do syntax error then warm
                            	  3861: 							* start
00:00001E1A 201F            	  3862: 	move.l	(sp)+,d0			* restore word 1
00:00001E1C 7200            	  3863: 	moveq		#0,d1				* null length
00:00001E1E 5380            	  3864: 	SUBQ.l	#1,d0				* decrement start index (word 1)
00:00001E20 6B00EB94        	  3865: 	BMI		LAB_FCER			* if was null do function call error then warm
                            	  3866: 							* start
                            	  3867: 
00:00001E24 B0680004        	  3868: 	CMP.w		4(a0),d0			* compare string length with start index
00:00001E28 64B8            	  3869: 	BCC.s		LAB_231C			* if start not in string do null string (d1=0)
                            	  3870: 
00:00001E2A 2207            	  3871: 	move.l	d7,d1				* get length back
00:00001E2C DE40            	  3872: 	ADD.w		d0,d7				* d7 now = MID$() end
00:00001E2E 6506            	  3873: 	BCS.s		LAB_2368			* already too long so do RIGHT$ equivalent
                            	  3874: 
00:00001E30 BE680004        	  3875: 	CMP.w		4(a0),d7			* compare string length with start index+length
00:00001E34 65AC            	  3876: 	BCS.s		LAB_231C			* if end in string go do string
                            	  3877: 
                            	  3878: LAB_2368
00:00001E36 32280004        	  3879: 	MOVE.w	4(a0),d1			* get string length
00:00001E3A 9240            	  3880: 	SUB.w		d0,d1				* subtract start offset
00:00001E3C 60A4            	  3881: 	BRA.s		LAB_231C			* go do string (effectively RIGHT$)
                            	  3882: 
                            	  3883: * perform LCASE$()
                            	  3884: 
                            	  3885: LAB_LCASE
00:00001E3E 6100FF34        	  3886: 	BSR		LAB_22B6			* pop string off descriptor stack or from memory
                            	  3887: 							* returns with d0 = length, a0 = pointer
00:00001E42 6758            	  3888: 	BEQ.s		NoString			* branch if null string
                            	  3889: 
                            	  3890: 							* else copy and change string
00:00001E44 2200            	  3891: 	move.l	d0,d1				* copy string length
00:00001E46 2248            	  3892: 	MOVEA.l	a0,a1				* copy string address
00:00001E48 6100FD9E        	  3893: 	BSR		LAB_2115			* make string space d1 bytes long
00:00001E4C D1C1            	  3894: 	ADDA.l	d1,a0				* new string end
00:00001E4E D3C1            	  3895: 	ADDA.l	d1,a1				* old string end
00:00001E50 3401            	  3896: 	MOVE.w	d1,d2				* copy length for loop
00:00001E52 5342            	  3897: 	SUBQ.w	#1,d2				* -1 for DBF loop
                            	  3898: LC_loop
00:00001E54 1021            	  3899: 	move.b	-(a1),d0			* get byte from string
                            	  3900: 
00:00001E56 B03C005B        	  3901: 	CMP.b		#$5B,d0			* compare with "Z"+1
00:00001E5A 640A            	  3902: 	BCC.s		NoUcase			* if > "Z" skip change
                            	  3903: 
00:00001E5C B03C0041        	  3904: 	CMP.b		#$41,d0			* compare with "A"
00:00001E60 6504            	  3905: 	BCS.s		NoUcase			* if < "A" skip change
                            	  3906: 
00:00001E62 00000020        	  3907: 	ORI.b		#$20,d0			* convert upper case to lower case
                            	  3908: NoUcase
00:00001E66 1100            	  3909: 	move.b	d0,-(a0)			* copy upper case byte back to string
00:00001E68 51CAFFEA        	  3910: 	DBF		d2,LC_loop			* decrement and loop if not all done
                            	  3911: 
00:00001E6C 602E            	  3912: 	BRA.s		NoString			* tidy up & exit (branch always)
                            	  3913: 
                            	  3914: * perform UCASE$()
                            	  3915: 
                            	  3916: LAB_UCASE
00:00001E6E 6100FF04        	  3917: 	BSR		LAB_22B6			* pop string off descriptor stack or from memory
                            	  3918: 							* returns with d0 = length, a0 = pointer
00:00001E72 6728            	  3919: 	BEQ.s		NoString			* branch if null string
                            	  3920: 
                            	  3921: 							* else copy and change string
00:00001E74 2200            	  3922: 	move.l	d0,d1				* copy string length
00:00001E76 2248            	  3923: 	MOVEA.l	a0,a1				* copy string address
00:00001E78 6100FD6E        	  3924: 	BSR		LAB_2115			* make string space d1 bytes long
00:00001E7C D1C1            	  3925: 	ADDA.l	d1,a0				* new string end
00:00001E7E D3C1            	  3926: 	ADDA.l	d1,a1				* old string end
00:00001E80 3401            	  3927: 	MOVE.w	d1,d2				* copy length for loop
00:00001E82 5342            	  3928: 	SUBQ.w	#1,d2				* -1 for DBF loop
                            	  3929: UC_loop
00:00001E84 1021            	  3930: 	move.b	-(a1),d0			* get byte from string
                            	  3931: 
00:00001E86 B03C0061        	  3932: 	CMP.b		#$61,d0			* compare with "a"
00:00001E8A 650A            	  3933: 	BCS.s		NoLcase			* if < "a" skip change
                            	  3934: 
00:00001E8C B03C007B        	  3935: 	CMP.b		#$7B,d0			* compare with "z"+1
00:00001E90 6404            	  3936: 	BCC.s		NoLcase			* if > "z" skip change
                            	  3937: 
00:00001E92 020000DF        	  3938: 	ANDI.b	#$DF,d0			* convert lower case to upper case
                            	  3939: NoLcase
00:00001E96 1100            	  3940: 	move.b	d0,-(a0)			* copy upper case byte back to string
00:00001E98 51CAFFEA        	  3941: 	DBF		d2,UC_loop			* decrement and loop if not all done
                            	  3942: 
                            	  3943: NoString
00:00001E9C 6000FD30        	  3944: 	BRA		LAB_RTST			* push string on descriptor stack
                            	  3945: 							* a0 = pointer, d1 = length
                            	  3946: 
                            	  3947: * perform SADD()
                            	  3948: 
                            	  3949: LAB_SADD
00:00001EA0 101D            	  3950: 	move.b	(a5)+,d0			* increment pointer
00:00001EA2 6100F8CA        	  3951: 	BSR		LAB_GVAR			* get variable address in a0
00:00001EA6 6100F6B0        	  3952: 	BSR		LAB_1BFB			* scan for ")" , else do syntax error/warm start
00:00001EAA 4A2B05B5        	  3953: 	TST.b		Dtypef(a3)			* test data type flag
00:00001EAE 6A00EAE6        	  3954: 	BPL		LAB_TMER			* if numeric do Type missmatch Error
                            	  3955: 
00:00001EB2 2010            	  3956: 	move.l	(a0),d0			* get string address
00:00001EB4 6000FBB0        	  3957: 	BRA		LAB_AYFC			* convert d0 to signed longword in FAC1 & return
                            	  3958: 
                            	  3959: * perform LEN()
                            	  3960: 
                            	  3961: LAB_LENS
00:00001EB8 487AFBAC        	  3962: 	PEA		(LAB_AYFC,PC)		* set return address to convert d0 to signed
                            	  3963: 							* longword in FAC1
00:00001EBC 6000FEB6        	  3964: 	BRA		LAB_22B6			* pop string off descriptor stack or from memory
                            	  3965: 							* returns with d0 = length, a0 = pointer
                            	  3966: 
                            	  3967: * perform ASC()
                            	  3968: 
                            	  3969: LAB_ASC
00:00001EC0 6100FEB2        	  3970: 	BSR		LAB_22B6			* pop string off descriptor stack or from memory
                            	  3971: 							* returns with d0 = length, a0 = pointer
00:00001EC4 4A40            	  3972: 	TST.w		d0				* test length
00:00001EC6 6700EAEE        	  3973: 	BEQ		LAB_FCER			* if null do function call error then warm start
                            	  3974: 
00:00001ECA 1010            	  3975: 	move.b	(a0),d0			* get first character byte
00:00001ECC 6000FBB8        	  3976: 	BRA		LAB_1FD0			* convert d0 to unsigned byte in FAC1 & return
                            	  3977: 
                            	  3978: * increment and get byte, result in d0 and Itemp
                            	  3979: 
                            	  3980: LAB_SGBY
00:00001ED0 6100F698        	  3981: 	BSR		LAB_IGBY			* increment & scan memory
                            	  3982: 
                            	  3983: * get byte parameter, result in d0 and Itemp
                            	  3984: 
                            	  3985: LAB_GTBY
00:00001ED4 6100F518        	  3986: 	BSR		LAB_EVNM			* evaluate expression & check is numeric,
                            	  3987: 							* else do type mismatch
                            	  3988: 
                            	  3989: * evaluate byte expression, result in d0 and Itemp
                            	  3990: 
                            	  3991: LAB_EVBY
00:00001ED8 6100F9D0        	  3992: 	BSR		LAB_EVPI			* evaluate positive integer expression
                            	  3993: 							* result in d0 and Itemp
00:00001EDC 7280            	  3994: 	moveq		#$80,d1			* set mask/2
00:00001EDE D281            	  3995: 	ADD.l		d1,d1				* =$FFFFFF00
00:00001EE0 C280            	  3996: 	AND.l		d0,d1				* check top 24 bits
00:00001EE2 6600EAD2        	  3997: 	BNE		LAB_FCER			* if <> 0 do function call error/warm start
                            	  3998: 
00:00001EE6 4E75            	  3999: 	RTS
                            	  4000: 
                            	  4001: * get word parameter, result in d0 and Itemp
                            	  4002: 
                            	  4003: LAB_GTWO
00:00001EE8 6100F504        	  4004: 	BSR		LAB_EVNM			* evaluate expression & check is numeric,
                            	  4005: 							* else do type mismatch
00:00001EEC 6100F9BC        	  4006: 	BSR		LAB_EVPI			* evaluate positive integer expression
                            	  4007: 							* result in d0 and Itemp
00:00001EF0 4840            	  4008: 	SWAP		d0				* copy high word to low word
00:00001EF2 4A40            	  4009: 	TST.w		d0				* set flags
00:00001EF4 6600EAC0        	  4010: 	BNE		LAB_FCER			* if <> 0 do function call error/warm start
                            	  4011: 
00:00001EF8 4840            	  4012: 	SWAP		d0				* copy high word to low word
00:00001EFA 4E75            	  4013: 	RTS
                            	  4014: 
                            	  4015: * perform VAL()
                            	  4016: 
                            	  4017: LAB_VAL
00:00001EFC 6100FE76        	  4018: 	BSR		LAB_22B6			* pop string off descriptor stack or from memory
                            	  4019: 							* returns with d0 = length, a0 = pointer
00:00001F00 6722            	  4020: 	BEQ.s		LAB_VALZ			* string was null so set result = $00
                            	  4021: 							* clear FAC1 exponent & sign & return
                            	  4022: 
00:00001F02 2C4D            	  4023: 	MOVEA.l	a5,a6				* save BASIC execute pointer
00:00001F04 2A48            	  4024: 	MOVEA.l	a0,a5				* copy string pointer to execute pointer
00:00001F06 D1C0            	  4025: 	ADDA.l	d0,a0				* string end+1
00:00001F08 1010            	  4026: 	move.b	(a0),d0			* get byte from string+1
00:00001F0A 3F00            	  4027: 	MOVE.w	d0,-(sp)			* save it
00:00001F0C 2F08            	  4028: 	move.l	a0,-(sp)			* save address
00:00001F0E 10BC0000        	  4029: 	move.b	#0,(a0)			* null terminate string
00:00001F12 6100F658        	  4030: 	BSR		LAB_GBYT			* scan memory
00:00001F16 61000E26        	  4031: 	BSR		LAB_2887			* get FAC1 from string
00:00001F1A 205F            	  4032: 	MOVEA.l	(sp)+,a0			* restore pointer
00:00001F1C 301F            	  4033: 	MOVE.w	(sp)+,d0			* pop byte
00:00001F1E 1080            	  4034: 	move.b	d0,(a0)			* restore to memory
00:00001F20 2A4E            	  4035: 	MOVEA.l	a6,a5				* restore BASIC execute pointer
00:00001F22 4E75            	  4036: 	RTS
                            	  4037: 
                            	  4038: LAB_VALZ
00:00001F24 37400594        	  4039: 	MOVE.w	d0,FAC1_e(a3)		* clear FAC1 exponent & sign
00:00001F28 4E75            	  4040: 	RTS
                            	  4041: 
                            	  4042: * get two parameters for POKE or WAIT, first parameter in a0, second in d0
                            	  4043: 
                            	  4044: LAB_GADB
00:00001F2A 6100F4C2        	  4045: 	BSR		LAB_EVNM			* evaluate expression & check is numeric,
                            	  4046: 							* else do type mismatch
00:00001F2E 6100F982        	  4047: 	BSR		LAB_EVIR			* evaluate integer expression
                            	  4048: 							* (does FC error not OF error if out of range)
00:00001F32 2F00            	  4049: 	move.l	d0,-(sp)			* copy to stack
00:00001F34 6100F62A        	  4050: 	BSR		LAB_1C01			* scan for ",", else do syntax error/warm start
00:00001F38 619A            	  4051: 	BSR.s		LAB_GTBY			* get byte parameter, result in d0 and Itemp
00:00001F3A 205F            	  4052: 	MOVEA.l	(sp)+,a0			* pull address
00:00001F3C 4E75            	  4053: 	RTS
                            	  4054: 
                            	  4055: * get two parameters for DOKE or WAITW, first parameter in a0, second in d0
                            	  4056: 
                            	  4057: LAB_GADW
00:00001F3E 611E            	  4058: 	BSR.s		LAB_GEAD			* get even address for word/long memory actions
                            	  4059: 							* address returned in d0 and on the stack
00:00001F40 6100F61E        	  4060: 	BSR		LAB_1C01			* scan for "," , else do syntax error/warm start
00:00001F44 6100F4A8        	  4061: 	BSR		LAB_EVNM			* evaluate expression & check is numeric,
                            	  4062: 							* else do type mismatch
00:00001F48 6100F968        	  4063: 	BSR		LAB_EVIR			* evaluate integer expression
                            	  4064: 							* result in d0 and Itemp
00:00001F4C 4840            	  4065: 	SWAP		d0				* swap words
00:00001F4E 4A40            	  4066: 	TST.w		d0				* test high word
00:00001F50 6706            	  4067: 	BEQ.s		LAB_XGADW			* exit if null
                            	  4068: 
00:00001F52 5240            	  4069: 	ADDQ.w	#1,d0				* increment word
00:00001F54 6600EA60        	  4070: 	BNE		LAB_FCER			* if <> 0 do function call error/warm start
                            	  4071: 
                            	  4072: LAB_XGADW
00:00001F58 4840            	  4073: 	SWAP		d0				* swap words back
00:00001F5A 205F            	  4074: 	MOVEA.l	(sp)+,a0			* pull address
00:00001F5C 4E75            	  4075: 	RTS
                            	  4076: 
                            	  4077: * get even address (for word or longword memory actions)
                            	  4078: * address returned in d0 and on the stack
                            	  4079: * does address error if the address is odd
                            	  4080: 
                            	  4081: LAB_GEAD
00:00001F5E 6100F48E        	  4082: 	BSR		LAB_EVNM			* evaluate expression & check is numeric,
                            	  4083: 							* else do type mismatch
00:00001F62 6100F94E        	  4084: 	BSR		LAB_EVIR			* evaluate integer expression
                            	  4085: 							* (does FC error not OF error if out of range)
00:00001F66 08000000        	  4086: 	BTST		#0,d0				* test low bit of longword
00:00001F6A 6600EA06        	  4087: 	BNE		LAB_ADER			* if address is odd do address error/warm start
                            	  4088: 
00:00001F6E 2057            	  4089: 	MOVEA.l	(sp),a0			* copy return address
00:00001F70 2E80            	  4090: 	move.l	d0,(sp)			* even address on stack
00:00001F72 4ED0            	  4091: 	JMP		(a0)				* effectively RTS
                            	  4092: 
                            	  4093: * perform PEEK()
                            	  4094: 
                            	  4095: LAB_PEEK
00:00001F74 6100F93C        	  4096: 	BSR		LAB_EVIR			* evaluate integer expression
                            	  4097: 							* (does FC error not OF error if out of range)
00:00001F78 2040            	  4098: 	MOVEA.l	d0,a0				* copy to address register
00:00001F7A 1010            	  4099: 	move.b	(a0),d0			* get byte
00:00001F7C 6000FB08        	  4100: 	BRA		LAB_1FD0			* convert d0 to unsigned byte in FAC1 & return
                            	  4101: 
                            	  4102: * perform POKE
                            	  4103: 
                            	  4104: LAB_POKE
00:00001F80 61A8            	  4105: 	BSR.s		LAB_GADB			* get two parameters for POKE or WAIT
                            	  4106: 							* first parameter in a0, second in d0
00:00001F82 1080            	  4107: 	move.b	d0,(a0)			* put byte in memory
00:00001F84 4E75            	  4108: 	RTS
                            	  4109: 
                            	  4110: * perform DEEK()
                            	  4111: 
                            	  4112: LAB_DEEK
00:00001F86 6100F92A        	  4113: 	BSR		LAB_EVIR			* evaluate integer expression
                            	  4114: 							* (does FC error not OF error if out of range)
00:00001F8A E208            	  4115: 	LSR.b		#1,d0				* shift bit 0 to carry
00:00001F8C 6500E9E4        	  4116: 	BCS		LAB_ADER			* if address is odd do address error/warm start
                            	  4117: 
00:00001F90 D000            	  4118: 	ADD.b		d0,d0				* shift byte back
00:00001F92 C188            	  4119: 	EXG		d0,a0				* copy to address register
00:00001F94 7000            	  4120: 	moveq		#0,d0				* clear top bits
00:00001F96 3010            	  4121: 	MOVE.w	(a0),d0			* get word
00:00001F98 6000FACC        	  4122: 	BRA		LAB_AYFC			* convert d0 to signed longword in FAC1 & return
                            	  4123: 
                            	  4124: * perform LEEK()
                            	  4125: 
                            	  4126: LAB_LEEK
00:00001F9C 6100F914        	  4127: 	BSR		LAB_EVIR			* evaluate integer expression
                            	  4128: 							* (does FC error not OF error if out of range)
00:00001FA0 E208            	  4129: 	LSR.b		#1,d0				* shift bit 0 to carry
00:00001FA2 6500E9CE        	  4130: 	BCS		LAB_ADER			* if address is odd do address error/warm start
                            	  4131: 
00:00001FA6 D000            	  4132: 	ADD.b		d0,d0				* shift byte back
00:00001FA8 C188            	  4133: 	EXG		d0,a0				* copy to address register
00:00001FAA 2010            	  4134: 	move.l	(a0),d0			* get longword
00:00001FAC 6000FAB8        	  4135: 	BRA		LAB_AYFC			* convert d0 to signed longword in FAC1 & return
                            	  4136: 
                            	  4137: * perform DOKE
                            	  4138: 
                            	  4139: LAB_DOKE
00:00001FB0 618C            	  4140: 	BSR.s		LAB_GADW			* get two parameters for DOKE or WAIT
                            	  4141: 							* first parameter in a0, second in d0
00:00001FB2 3080            	  4142: 	MOVE.w	d0,(a0)			* put word in memory
00:00001FB4 4E75            	  4143: 	RTS
                            	  4144: 
                            	  4145: * perform LOKE
                            	  4146: 
                            	  4147: LAB_LOKE
00:00001FB6 61A6            	  4148: 	BSR.s		LAB_GEAD			* get even address for word/long memory actions
                            	  4149: 							* address returned in d0 and on the stack
00:00001FB8 6100F5A6        	  4150: 	BSR		LAB_1C01			* scan for "," , else do syntax error/warm start
00:00001FBC 6100F430        	  4151: 	BSR		LAB_EVNM			* evaluate expression & check is numeric,
                            	  4152: 							* else do type mismatch
00:00001FC0 6100F8F0        	  4153: 	BSR		LAB_EVIR			* evaluate integer value (no sign check)
00:00001FC4 205F            	  4154: 	MOVEA.l	(sp)+,a0			* pull address
00:00001FC6 2080            	  4155: 	move.l	d0,(a0)			* put longword in memory
                            	  4156: RTS_015
00:00001FC8 4E75            	  4157: 	RTS
                            	  4158: 
                            	  4159: * perform SWAP
                            	  4160: 
                            	  4161: LAB_SWAP
00:00001FCA 6100F7A2        	  4162: 	BSR		LAB_GVAR			* get variable address in a0
00:00001FCE 2448            	  4163: 	MOVEA.l	a0,a2				* copy address
00:00001FD0 162B05B5        	  4164: 	move.b	Dtypef(a3),d3		* get data type, $80=string, $40=inetger,
                            	  4165: 							* $00=float
                            	  4166: 
00:00001FD4 6100F58A        	  4167: 	BSR		LAB_1C01			* scan for "," , else do syntax error/warm start
00:00001FD8 6100F794        	  4168: 	BSR		LAB_GVAR			* get var2 address
                            	  4169: 							* return pointer to variable in Cvaral and a0
00:00001FDC B62B05B5        	  4170: 	CMP.b		Dtypef(a3),d3		* compare with var2 data type
00:00001FE0 6600E9B4        	  4171: 	BNE		LAB_TMER			* if not both the same type do "Type mismatch"
                            	  4172: 							* error then warm start
                            	  4173: 
00:00001FE4 2010            	  4174: 	move.l	(a0),d0			* get var2
00:00001FE6 20D2            	  4175: 	move.l	(a2),(a0)+			* copy var1 to var2
00:00001FE8 24C0            	  4176: 	move.l	d0,(a2)+			* save var2 to var1
                            	  4177: 
00:00001FEA 4A03            	  4178: 	TST.b		d3				* check data type
00:00001FEC 6ADA            	  4179: 	BPL.s		RTS_015			* exit if not string
                            	  4180: 
00:00001FEE 3010            	  4181: 	MOVE.w	(a0),d0			* get string 2 length
00:00001FF0 3092            	  4182: 	MOVE.w	(a2),(a0)			* copy string 1 length to string 2 length
00:00001FF2 3480            	  4183: 	MOVE.w	d0,(a2)			* save string 2 length to string 1 length
00:00001FF4 4E75            	  4184: 	RTS
                            	  4185: 
                            	  4186: * perform USR
                            	  4187: 
                            	  4188: LAB_USR
00:00001FF6 4EAB0406        	  4189: 	JSR		Usrjmp(a3)			* do user vector
00:00001FFA 6000F55C        	  4190: 	BRA		LAB_1BFB			* scan for ")" , else do syntax error/warm start
                            	  4191: 
                            	  4192: * perform LOAD
                            	  4193: 
                            	  4194: LAB_LOAD
00:00001FFE 4EEB0418        	  4195: 	JMP		V_LOAD(a3)			* do load vector
                            	  4196: 
                            	  4197: * perform SAVE
                            	  4198: 
                            	  4199: LAB_SAVE
00:00002002 4EEB041E        	  4200: 	JMP		V_SAVE(a3)			* do save vector
                            	  4201: 
                            	  4202: * perform CALL
                            	  4203: 
                            	  4204: LAB_CALL
00:00002006 487AF564        	  4205: 	PEA		(LAB_GBYT,PC)		* put return address on stack
00:0000200A 6100FF52        	  4206: 	BSR		LAB_GEAD			* get even address for word/long memory actions
                            	  4207: 							* address returned in d0 and on the stack
00:0000200E 4E75            	  4208: 	RTS						* effectively calls the routine
                            	  4209: 
                            	  4210: * if the called routine exits correctly then it will return via the get byte routine.
                            	  4211: * this will then get the next byte for the interpreter and return
                            	  4212: 
                            	  4213: * perform WAIT
                            	  4214: 
                            	  4215: LAB_WAIT
00:00002010 6100FF18        	  4216: 	BSR		LAB_GADB			* get two parameters for POKE or WAIT
                            	  4217: 							* first parameter in a0, second in d0
00:00002014 2F08            	  4218: 	move.l	a0,-(sp)			* save address
00:00002016 3F00            	  4219: 	MOVE.w	d0,-(sp)			* save byte
00:00002018 7400            	  4220: 	moveq		#0,d2				* clear mask
00:0000201A 6100F550        	  4221: 	BSR		LAB_GBYT			* scan memory
00:0000201E 6706            	  4222: 	BEQ.s		LAB_2441			* skip if no third argument
                            	  4223: 
00:00002020 6100F53A        	  4224: 	BSR		LAB_SCGB			* scan for "," & get byte,
                            	  4225: 							* else do syntax error/warm start
00:00002024 2400            	  4226: 	move.l	d0,d2				* copy mask
                            	  4227: LAB_2441
00:00002026 321F            	  4228: 	MOVE.w	(sp)+,d1			* get byte
00:00002028 205F            	  4229: 	MOVEA.l	(sp)+,a0			* get address
                            	  4230: LAB_2445
00:0000202A 1010            	  4231: 	move.b	(a0),d0			* read memory byte
00:0000202C B500            	  4232: 	EOR.b		d2,d0				* EOR with second argument (mask)
00:0000202E C001            	  4233: 	AND.b		d1,d0				* AND with first argument (byte)
00:00002030 67F8            	  4234: 	BEQ.s		LAB_2445			* loop if result is zero
                            	  4235: 
00:00002032 4E75            	  4236: 	RTS
                            	  4237: 
                            	  4238: * perform subtraction, FAC1 from FAC2
                            	  4239: 
                            	  4240: LAB_SUBTRACT
00:00002034 0A2B00800595    	  4241: 	EORI.b	#$80,FAC1_s(a3)		* complement FAC1 sign
00:0000203A 176B059D059E    	  4242: 	move.b	FAC2_s(a3),FAC_sc(a3)	* copy FAC2 sign byte
                            	  4243: 
00:00002040 102B0595        	  4244: 	move.b	FAC1_s(a3),d0		* get FAC1 sign byte
00:00002044 B12B059E        	  4245: 	EOR.b		d0,FAC_sc(a3)		* EOR with FAC2 sign
                            	  4246: 
                            	  4247: * add FAC2 to FAC1
                            	  4248: 
                            	  4249: LAB_ADD
00:00002048 102B0594        	  4250: 	move.b	FAC1_e(a3),d0		* get exponent
00:0000204C 67000342        	  4251: 	BEQ		LAB_279B			* FAC1 was zero so copy FAC2 to FAC1 & return
                            	  4252: 
                            	  4253: 							* FAC1 is non zero
00:00002050 41EB0598        	  4254: 	lea		FAC2_m(a3),a0		* set pointer1 to FAC2 mantissa
00:00002054 102B059C        	  4255: 	move.b	FAC2_e(a3),d0		* get FAC2 exponent
00:00002058 6746            	  4256: 	BEQ.s		RTS_016			* exit if zero
                            	  4257: 
00:0000205A 902B0594        	  4258: 	SUB.b		FAC1_e(a3),d0		* subtract FAC1 exponent
00:0000205E 6722            	  4259: 	BEQ.s		LAB_24A8			* branch if = (go add mantissa)
                            	  4260: 
00:00002060 650A            	  4261: 	BCS.s		LAB_249C			* branch if FAC2 < FAC1
                            	  4262: 
                            	  4263: 							* FAC2 > FAC1
00:00002062 376B059C0594    	  4264: 	MOVE.w	FAC2_e(a3),FAC1_e(a3)	* copy sign and exponent of FAC2
00:00002068 4400            	  4265: 	NEG.b		d0				* negate exponent difference (make diff -ve)
00:0000206A 5148            	  4266: 	SUBQ.w	#8,a0				* pointer1 to FAC1
                            	  4267: 
                            	  4268: LAB_249C
00:0000206C 4400            	  4269: 	NEG.b		d0				* negate exponent difference (make diff +ve)
00:0000206E 2F01            	  4270: 	move.l	d1,-(sp)			* save d1
00:00002070 B03C0020        	  4271: 	CMP.b		#32,d0			* compare exponent diff with 32
00:00002074 6D04            	  4272: 	BLT.s		LAB_2467			* branch if range >= 32
                            	  4273: 
00:00002076 7200            	  4274: 	moveq		#0,d1				* clear d1
00:00002078 6004            	  4275: 	BRA.s		LAB_2468			* go clear smaller mantissa
                            	  4276: 
                            	  4277: LAB_2467
00:0000207A 2210            	  4278: 	move.l	(a0),d1			* get FACx mantissa
00:0000207C E0A9            	  4279: 	LSR.l		d0,d1				* shift d0 times right
                            	  4280: LAB_2468
00:0000207E 2081            	  4281: 	move.l	d1,(a0)			* save it back
00:00002080 221F            	  4282: 	move.l	(sp)+,d1			* restore d1
                            	  4283: 
                            	  4284: 							* exponents are equal now do mantissa add or
                            	  4285: 							* subtract
                            	  4286: LAB_24A8
00:00002082 4A2B059E        	  4287: 	TST.b		FAC_sc(a3)			* test sign compare (FAC1 EOR FAC2)
00:00002086 6B1A            	  4288: 	BMI.s		LAB_24F8			* if <> go do subtract
                            	  4289: 
00:00002088 202B0598        	  4290: 	move.l	FAC2_m(a3),d0		* get FAC2 mantissa
00:0000208C D0AB0590        	  4291: 	ADD.l		FAC1_m(a3),d0		* add FAC1 mantissa
00:00002090 640A            	  4292: 	BCC.s		LAB_24F7			* save and exit if no carry (FAC1 is normal)
                            	  4293: 
00:00002092 E290            	  4294: 	ROXR.l	#1,d0				* else shift carry back into mantissa
00:00002094 522B0594        	  4295: 	ADDQ.b	#1,FAC1_e(a3)		* increment FAC1 exponent
00:00002098 6500E918        	  4296: 	BCS		LAB_OFER			* if carry do overflow error & warm start
                            	  4297: 
                            	  4298: LAB_24F7
00:0000209C 27400590        	  4299: 	move.l	d0,FAC1_m(a3)		* save mantissa
                            	  4300: RTS_016
00:000020A0 4E75            	  4301: 	RTS
                            	  4302: 							* signs are different
                            	  4303: LAB_24F8
00:000020A2 43EB0590        	  4304: 	lea		FAC1_m(a3),a1		* pointer 2 to FAC1
00:000020A6 B3C8            	  4305: 	CMPA.l	a0,a1				* compare pointers
00:000020A8 6602            	  4306: 	BNE.s		LAB_24B4			* branch if <>
                            	  4307: 
00:000020AA 5049            	  4308: 	ADDQ.w	#8,a1				* else pointer2 to FAC2
                            	  4309: 
                            	  4310: 							* take smaller from bigger (take sign of bigger)
                            	  4311: LAB_24B4
00:000020AC 2011            	  4312: 	move.l	(a1),d0			* get larger mantissa
00:000020AE 2210            	  4313: 	move.l	(a0),d1			* get smaller mantissa
00:000020B0 27400590        	  4314: 	move.l	d0,FAC1_m(a3)		* save larger mantissa
00:000020B4 93AB0590        	  4315: 	SUB.l		d1,FAC1_m(a3)		* subtract smaller
                            	  4316: 
                            	  4317: * do +/- (carry is sign) & normalise FAC1
                            	  4318: 
                            	  4319: LAB_24D0
00:000020B8 640A            	  4320: 	BCC.s		LAB_24D5			* branch if result is +ve
                            	  4321: 
                            	  4322: 							* erk! subtract is the wrong way round so
                            	  4323: 							* negate everything
00:000020BA 0A2B00FF0595    	  4324: 	EORI.b	#$FF,FAC1_s(a3)		* complement FAC1 sign
00:000020C0 44AB0590        	  4325: 	NEG.l		FAC1_m(a3)			* negate FAC1 mantissa
                            	  4326: 
                            	  4327: * normalise FAC1
                            	  4328: 
                            	  4329: LAB_24D5
00:000020C4 202B0590        	  4330: 	move.l	FAC1_m(a3),d0		* get mantissa
00:000020C8 6B2E            	  4331: 	BMI.s		LAB_24DA			* mantissa is normal so just exit
                            	  4332: 
00:000020CA 6606            	  4333: 	BNE.s		LAB_24D9			* mantissa is not zero so go normalise FAC1
                            	  4334: 
00:000020CC 37400594        	  4335: 	MOVE.w	d0,FAC1_e(a3)		* else make FAC1 = +zero
00:000020D0 4E75            	  4336: 	RTS
                            	  4337: 
                            	  4338: LAB_24D9
00:000020D2 2F01            	  4339: 	move.l	d1,-(sp)			* save d1
00:000020D4 2200            	  4340: 	move.l	d0,d1				* mantissa to d1
00:000020D6 7000            	  4341: 	moveq		#0,d0				* clear d0
00:000020D8 102B0594        	  4342: 	move.b	FAC1_e(a3),d0		* get exponent byte
00:000020DC 6714            	  4343: 	BEQ.s		LAB_24D8			* if exponent is zero then clean up and exit
                            	  4344: LAB_24D6
00:000020DE D281            	  4345: 	ADD.l		d1,d1				* shift mantissa, ADD is quicker for a single
                            	  4346: 							* shift
00:000020E0 5BC8FFFC        	  4347: 	DBMI		d0,LAB_24D6			* decrement exponent and loop if mantissa and
                            	  4348: 							* exponent +ve
                            	  4349: 
00:000020E4 4A40            	  4350: 	TST.w		d0				* test exponent
00:000020E6 670A            	  4351: 	BEQ.s		LAB_24D8			* if exponent is zero make FAC1 zero
                            	  4352: 
00:000020E8 6A02            	  4353: 	BPL.s		LAB_24D7			* if exponent is >zero go save FAC1
                            	  4354: 
00:000020EA 7001            	  4355: 	moveq		#1,d0				* else set for zero after correction
                            	  4356: LAB_24D7
00:000020EC 5300            	  4357: 	SUBQ.b	#1,d0				* adjust exponent for loop
00:000020EE 27410590        	  4358: 	move.l	d1,FAC1_m(a3)		* save normalised mantissa
                            	  4359: LAB_24D8
00:000020F2 221F            	  4360: 	move.l	(sp)+,d1			* restore d1
00:000020F4 17400594        	  4361: 	move.b	d0,FAC1_e(a3)		* save corrected exponent
                            	  4362: LAB_24DA
00:000020F8 4E75            	  4363: 	RTS
                            	  4364: 
                            	  4365: * perform LOG()
                            	  4366: 
                            	  4367: LAB_LOG
00:000020FA 4A2B0595        	  4368: 	TST.b		FAC1_s(a3)			* test sign
00:000020FE 6B00E8B6        	  4369: 	BMI		LAB_FCER			* if -ve do function call error/warm start
                            	  4370: 
00:00002102 7E00            	  4371: 	moveq		#0,d7				* clear d7
00:00002104 1747059E        	  4372: 	move.b	d7,FAC_sc(a3)		* clear sign compare
00:00002108 1E2B0594        	  4373: 	move.b	FAC1_e(a3),d7		* get exponent
00:0000210C 6700E8A8        	  4374: 	BEQ		LAB_FCER			* if 0 do function call error/warm start
                            	  4375: 
00:00002110 9EBC00000081    	  4376: 	SUB.l		#$81,d7			* normalise exponent
00:00002116 177C00810594    	  4377: 	move.b	#$81,FAC1_e(a3)		* force a value between 1 and 2
00:0000211C 2C2B0590        	  4378: 	move.l	FAC1_m(a3),d6		* copy mantissa
                            	  4379: 
00:00002120 277C800000000598	  4380: 	move.l	#$80000000,FAC2_m(a3)	* set mantissa for 1
00:00002128 377C8100059C    	  4381: 	MOVE.w	#$8100,FAC2_e(a3)		* set exponent for 1
00:0000212E 6100FF18        	  4382: 	BSR		LAB_ADD			* find arg+1
00:00002132 7000            	  4383: 	moveq		#0,d0				* setup for calc skip
00:00002134 3740059C        	  4384: 	MOVE.w	d0,FAC2_e(a3)		* set FAC1 for zero result
00:00002138 DC86            	  4385: 	ADD.l		d6,d6				* shift 1 bit out
00:0000213A 27460598        	  4386: 	move.l	d6,FAC2_m(a3)		* put back FAC2
00:0000213E 6758            	  4387: 	BEQ.s		LAB_LONN			* if 0 skip calculation
                            	  4388: 
00:00002140 377C8000059C    	  4389: 	MOVE.w	#$8000,FAC2_e(a3)		* set exponent for .5
00:00002146 61000136        	  4390: 	BSR		LAB_DIVIDE			* do (arg-1)/(arg+1)
00:0000214A 4A2B0594        	  4391: 	TST.b		FAC1_e(a3)			* test exponent
00:0000214E 6748            	  4392: 	BEQ.s		LAB_LONN			* if 0 skip calculation
                            	  4393: 
00:00002150 122B0594        	  4394: 	move.b	FAC1_e(a3),d1		* get exponent
00:00002154 923C0082        	  4395: 	SUB.b		#$82,d1			* normalise and two integer bits
00:00002158 4401            	  4396: 	NEG.b		d1				* negate for shift
                            	  4397: **	CMP.b		#$1F,d1			* will mantissa vanish?
                            	  4398: **	BGT.s		LAB_dunno			* if so do ???
                            	  4399: 
00:0000215A 202B0590        	  4400: 	move.l	FAC1_m(a3),d0		* get mantissa
00:0000215E E2A8            	  4401: 	LSR.l		d1,d0				* shift in two integer bits
                            	  4402: 
                            	  4403: * d0 = arg
                            	  4404: * d0 = x, d1 = y
                            	  4405: * d2 = x1, d3 = y1
                            	  4406: * d4 = shift count
                            	  4407: * d5 = loop count
                            	  4408: * d6 = z
                            	  4409: * a0 = table pointer
                            	  4410: 
00:00002160 7C00            	  4411: 	moveq		#0,d6				* z = 0
00:00002162 223C40000000    	  4412: 	move.l	#1<<30,d1			* y = 1
00:00002168 41FA10E6        	  4413: 	lea		(TAB_HTHET,PC),a0		* get pointer to hyperbolic tangent table
00:0000216C 7A1E            	  4414: 	moveq		#30,d5			* loop 31 times
00:0000216E 7801            	  4415: 	moveq		#1,d4				* set shift count
00:00002170 6006            	  4416: 	BRA.s		LAB_LOCC			* entry point for loop
                            	  4417: 
                            	  4418: LAB_LAAD
00:00002172 E8A2            	  4419: 	ASR.l		d4,d2				* x1 >> i
00:00002174 9282            	  4420: 	SUB.l		d2,d1				* y = y - x1
00:00002176 DC90            	  4421: 	ADD.l		(a0),d6			* z = z + tanh(i)
                            	  4422: LAB_LOCC
00:00002178 2400            	  4423: 	move.l	d0,d2				* x1 = x
00:0000217A 2601            	  4424: 	move.l	d1,d3				* y1 = Y
00:0000217C E8A3            	  4425: 	ASR.l		d4,d3				* y1 >> i
00:0000217E 6402            	  4426: 	BCC.s		LAB_LOLP
                            	  4427: 
00:00002180 5283            	  4428: 	ADDQ.l	#1,d3
                            	  4429: LAB_LOLP
00:00002182 9083            	  4430: 	SUB.l		d3,d0				* x = x - y1
00:00002184 6AEC            	  4431: 	BPL.s		LAB_LAAD			* branch if > 0
                            	  4432: 
00:00002186 2002            	  4433: 	move.l	d2,d0				* get x back
00:00002188 5848            	  4434: 	ADDQ.w	#4,a0				* next entry
00:0000218A 5284            	  4435: 	ADDQ.l	#1,d4				* next i
00:0000218C E28B            	  4436: 	LSR.l		#1,d3				* /2
00:0000218E 6704            	  4437: 	BEQ.s		LAB_LOCX			* branch y1 = 0
                            	  4438: 
00:00002190 51CDFFF0        	  4439: 	DBF		d5,LAB_LOLP			* decrement and loop if not done
                            	  4440: 
                            	  4441: 							* now sort out the result
                            	  4442: LAB_LOCX
00:00002194 DC86            	  4443: 	ADD.l		d6,d6				* *2
00:00002196 2006            	  4444: 	move.l	d6,d0				* setup for d7 = 0
                            	  4445: LAB_LONN
00:00002198 2800            	  4446: 	move.l	d0,d4				* save cordic result
00:0000219A 7A00            	  4447: 	moveq		#0,d5				* set default exponent sign
00:0000219C 4A87            	  4448: 	TST.l		d7				* check original exponent sign
00:0000219E 6716            	  4449: 	BEQ.s		LAB_LOXO			* branch if original was 0
                            	  4450: 
00:000021A0 6A04            	  4451: 	BPL.s		LAB_LOXP			* branch if was +ve
                            	  4452: 
00:000021A2 4487            	  4453: 	NEG.l		d7				* make original exponent +ve
00:000021A4 7A80            	  4454: 	moveq		#$80-$100,d5		* make sign -ve
                            	  4455: LAB_LOXP
00:000021A6 17450595        	  4456: 	move.b	d5,FAC1_s(a3)		* save original exponent sign
00:000021AA 4847            	  4457: 	SWAP		d7				* 16 bit shift
00:000021AC E18F            	  4458: 	LSL.l		#8,d7				* easy first part
00:000021AE 7A88            	  4459: 	moveq		#$88-$100,d5		* start with byte
                            	  4460: LAB_LONE
00:000021B0 5385            	  4461: 	SUBQ.l	#1,d5				* decrement exponent
00:000021B2 DE87            	  4462: 	ADD.l		d7,d7				* shift mantissa
00:000021B4 6AFA            	  4463: 	BPL.s		LAB_LONE			* loop if not normal
                            	  4464: 
                            	  4465: LAB_LOXO
00:000021B6 27470590        	  4466: 	move.l	d7,FAC1_m(a3)		* save original exponent as mantissa
00:000021BA 17450594        	  4467: 	move.b	d5,FAC1_e(a3)		* save exponent for this
00:000021BE 277CB17217F80598	  4468: 	move.l	#$B17217F8,FAC2_m(a3)	* LOG(2) mantissa
00:000021C6 377C8000059C    	  4469: 	MOVE.w	#$8000,FAC2_e(a3)		* LOG(2) exponent & sign
00:000021CC 176B0595059E    	  4470: 	move.b	FAC1_s(a3),FAC_sc(a3)	* make sign compare = FAC1 sign
00:000021D2 6118            	  4471: 	BSR.s		LAB_MULTIPLY		* do multiply
00:000021D4 27440598        	  4472: 	move.l	d4,FAC2_m(a3)		* save cordic result
00:000021D8 6710            	  4473: 	BEQ.s		LAB_LOWZ			* branch if zero
                            	  4474: 
00:000021DA 377C8200059C    	  4475: 	MOVE.w	#$8200,FAC2_e(a3)		* set exponent & sign
00:000021E0 176B0595059E    	  4476: 	move.b	FAC1_s(a3),FAC_sc(a3)	* clear sign compare
00:000021E6 6100FE60        	  4477: 	BSR		LAB_ADD			* and add for final result
                            	  4478: 
                            	  4479: LAB_LOWZ
00:000021EA 4E75            	  4480: 	RTS
                            	  4481: 
                            	  4482: * multiply FAC1 by FAC2
                            	  4483: 
                            	  4484: LAB_MULTIPLY
00:000021EC 48E7F800        	  4485: 	movem.l	d0-d4,-(sp)			* save registers
00:000021F0 4A2B0594        	  4486: 	TST.b		FAC1_e(a3)			* test FAC1 exponent
00:000021F4 6700007C        	  4487: 	BEQ		LAB_MUUF			* if exponent zero go make result zero
                            	  4488: 
00:000021F8 102B059C        	  4489: 	move.b	FAC2_e(a3),d0		* get FAC2 exponent
00:000021FC 67000074        	  4490: 	BEQ		LAB_MUUF			* if exponent zero go make result zero
                            	  4491: 
00:00002200 176B059E0595    	  4492: 	move.b	FAC_sc(a3),FAC1_s(a3)	* sign compare becomes sign
                            	  4493: 
00:00002206 D02B0594        	  4494: 	ADD.b		FAC1_e(a3),d0		* multiply exponents by adding
00:0000220A 640A            	  4495: 	BCC.s		LAB_MNOC			* branch if no carry
                            	  4496: 
00:0000220C 903C0080        	  4497: 	SUB.b		#$80,d0			* normalise result
00:00002210 6400E7A0        	  4498: 	BCC		LAB_OFER			* if no carry do overflow
                            	  4499: 
00:00002214 6008            	  4500: 	BRA.s		LAB_MADD			* branch
                            	  4501: 
                            	  4502: 							* no carry for exponent add
                            	  4503: LAB_MNOC
00:00002216 903C0080        	  4504: 	SUB.b		#$80,d0			* normalise result
00:0000221A 65000056        	  4505: 	BCS		LAB_MUUF			* return zero if underflow
                            	  4506: 
                            	  4507: LAB_MADD
00:0000221E 17400594        	  4508: 	move.b	d0,FAC1_e(a3)		* save exponent
                            	  4509: 
                            	  4510: 							* d1 (FAC1) x d2 (FAC2)
00:00002222 222B0590        	  4511: 	move.l	FAC1_m(a3),d1		* get FAC1 mantissa
00:00002226 242B0598        	  4512: 	move.l	FAC2_m(a3),d2		* get FAC2 mantissa
                            	  4513: 
00:0000222A 3801            	  4514: 	MOVE.w	d1,d4				* copy low word FAC1
00:0000222C 2001            	  4515: 	move.l	d1,d0				* copy long word FAC1
00:0000222E 4840            	  4516: 	SWAP		d0				* high word FAC1 to low word FAC1
00:00002230 3600            	  4517: 	MOVE.w	d0,d3				* copy high word FAC1
                            	  4518: 
00:00002232 C2C2            	  4519: 	MULU		d2,d1				* low word FAC2 x low word FAC1
00:00002234 C0C2            	  4520: 	MULU		d2,d0				* low word FAC2 x high word FAC1
00:00002236 4842            	  4521: 	SWAP		d2				* high word FAC2 to low word FAC2
00:00002238 C8C2            	  4522: 	MULU		d2,d4				* high word FAC2 x low word FAC1
00:0000223A C6C2            	  4523: 	MULU		d2,d3				* high word FAC2 x high word FAC1
                            	  4524: 
                            	  4525: * done multiply, now add partial products
                            	  4526: 
                            	  4527: *			d1 =					aaaa  ----	FAC2_L x FAC1_L
                            	  4528: *			d0 =				bbbb  aaaa		FAC2_L x FAC1_H
                            	  4529: *			d4 =				bbbb  aaaa		FAC2_H x FAC1_L
                            	  4530: *			d3 =			cccc  bbbb			FAC2_H x FAC1_H
                            	  4531: *			product =		mmmm  mmmm
                            	  4532: 
00:0000223C D2BC00008000    	  4533: 	ADD.L		#$8000,d1			* round up lowest word
00:00002242 4241            	  4534: 	CLR.w		d1				* clear low word, don't need it
00:00002244 4841            	  4535: 	SWAP		d1				* align high word
00:00002246 D280            	  4536: 	ADD.l		d0,d1				* add FAC2_L x FAC1_H (can't be carry)
                            	  4537: LAB_MUF1
00:00002248 D284            	  4538: 	ADD.l		d4,d1				* now add intermediate (FAC2_H x FAC1_L)
00:0000224A 6406            	  4539: 	BCC.s		LAB_MUF2			* branch if no carry
                            	  4540: 
00:0000224C D6BC00010000    	  4541: 	ADD.l		#$10000,d3			* else correct result
                            	  4542: LAB_MUF2
00:00002252 D2BC00008000    	  4543: 	ADD.l		#$8000,d1			* round up low word
00:00002258 4241            	  4544: 	CLR.w		d1				* clear low word
00:0000225A 4841            	  4545: 	SWAP		d1				* align for final add
00:0000225C D283            	  4546: 	ADD.l		d3,d1				* add FAC2_H x FAC1_H, result
00:0000225E 6B08            	  4547: 	BMI.s		LAB_MUF3			* branch if normalisation not needed
                            	  4548: 
00:00002260 D281            	  4549: 	ADD.l		d1,d1				* shift mantissa
00:00002262 532B0594        	  4550: 	SUBQ.b	#1,FAC1_e(a3)		* adjust exponent
00:00002266 670A            	  4551: 	BEQ.s		LAB_MUUF			* branch if underflow
                            	  4552: 
                            	  4553: LAB_MUF3
00:00002268 27410590        	  4554: 	move.l	d1,FAC1_m(a3)		* save mantissa
                            	  4555: LAB_MUEX
00:0000226C 4CDF001F        	  4556: 	movem.l	(sp)+,d0-d4			* restore registers
00:00002270 4E75            	  4557: 	RTS
                            	  4558: 							* either zero or underflow result
                            	  4559: LAB_MUUF
00:00002272 7000            	  4560: 	moveq		#0,d0				* quick clear
00:00002274 27400590        	  4561: 	move.l	d0,FAC1_m(a3)		* clear mantissa
00:00002278 37400594        	  4562: 	MOVE.w	d0,FAC1_e(a3)		* clear sign and exponent
00:0000227C 60EE            	  4563: 	BRA.s		LAB_MUEX			* restore regs & exit
                            	  4564: 
                            	  4565: * do FAC2/FAC1, result in FAC1
                            	  4566: * fast hardware divide version
                            	  4567: 
                            	  4568: LAB_DIVIDE
00:0000227E 2F07            	  4569: 	move.l	d7,-(sp)			* save d7
00:00002280 7000            	  4570: 	moveq		#0,d0				* clear FAC2 exponent
00:00002282 2400            	  4571: 	move.l	d0,d2				* clear FAC1 exponent
                            	  4572: 
00:00002284 142B0594        	  4573: 	move.b	FAC1_e(a3),d2		* get FAC1 exponent
00:00002288 6700E714        	  4574: 	BEQ		LAB_DZER			* if zero go do /0 error
                            	  4575: 
00:0000228C 102B059C        	  4576: 	move.b	FAC2_e(a3),d0		* get FAC2 exponent
00:00002290 6768            	  4577: 	BEQ.s		LAB_DIV0			* if zero return zero
                            	  4578: 
00:00002292 9042            	  4579: 	SUB.w		d2,d0				* get result exponent by subtracting
00:00002294 D07C0080        	  4580: 	ADD.w		#$80,d0			* correct 16 bit exponent result
                            	  4581: 
00:00002298 176B059E0595    	  4582: 	move.b	FAC_sc(a3),FAC1_s(a3)	* sign compare is result sign
                            	  4583: 
                            	  4584: * now to do 32/32 bit mantissa divide
                            	  4585: 
00:0000229E 422B059F        	  4586: 	CLR.b		flag(a3)			* clear 'flag' byte
00:000022A2 262B0590        	  4587: 	move.l	FAC1_m(a3),d3		* get FAC1 mantissa
00:000022A6 282B0598        	  4588: 	move.l	FAC2_m(a3),d4		* get FAC2 mantissa
00:000022AA B883            	  4589: 	CMP.l		d3,d4				* compare FAC2 with FAC1 mantissa
00:000022AC 6746            	  4590: 	BEQ.s		LAB_MAN1			* set mantissa result = 1 if equal
                            	  4591: 
00:000022AE 6506            	  4592: 	BCS.s		AC1gtAC2			* branch if FAC1 > FAC2
                            	  4593: 
00:000022B0 9883            	  4594: 	SUB.l		d3,d4				* subtract FAC1 from FAC2, result now must be <1
00:000022B2 562B059F        	  4595: 	ADDQ.b	#3,flag(a3)			* FAC2>FAC1 so set 'flag' byte
                            	  4596: AC1gtAC2
00:000022B6 614A            	  4597: 	BSR.s		LAB_32_16			* do 32/16 divide
00:000022B8 4841            	  4598: 	SWAP		d1				* move 16 bit result to high word
00:000022BA 2802            	  4599: 	move.l	d2,d4				* copy remainder longword
00:000022BC 6146            	  4600: 	BSR.s		LAB_3216			* do 32/16 divide again (skip copy d4 to d2)
00:000022BE 84C5            	  4601: 	DIVU		d5,d2				* now divide remainder to make guard word
00:000022C0 1E2B059F        	  4602: 	move.b	flag(a3),d7			* now normalise, get flag byte back
00:000022C4 6708            	  4603: 	BEQ.s		LAB_DIVX			* skip add if null
                            	  4604: 
                            	  4605: * else result was >1 so we need to add 1 to result mantissa and adjust exponent
                            	  4606: 
00:000022C6 E20F            	  4607: 	LSR.b		#1,d7				* shift 1 into eXtend
00:000022C8 E291            	  4608: 	ROXR.l	#1,d1				* shift extend result >>
00:000022CA E252            	  4609: 	ROXR.w	#1,d2				* shift extend guard word >>
00:000022CC 5200            	  4610: 	ADDQ.b	#1,d0				* adjust exponent
                            	  4611: 
                            	  4612: * now round result to 32 bits
                            	  4613: 
                            	  4614: LAB_DIVX
00:000022CE D442            	  4615: 	ADD.w		d2,d2				* guard bit into eXtend bit
00:000022D0 6408            	  4616: 	BCC.s		L_DIVRND			* branch if guard=0
                            	  4617: 
00:000022D2 5281            	  4618: 	ADDQ.l	#1,d1				* add guard to mantissa
00:000022D4 6404            	  4619: 	BCC.s		L_DIVRND			* branch if no overflow
                            	  4620: 
                            	  4621: LAB_SET1
00:000022D6 E291            	  4622: 	ROXR.l	#1,d1				* shift extend result >>
00:000022D8 5240            	  4623: 	ADDQ.w	#1,d0				* adjust exponent
                            	  4624: 
                            	  4625: 							* test for over/under flow
                            	  4626: L_DIVRND
00:000022DA 3600            	  4627: 	MOVE.w	d0,d3				* copy exponent
00:000022DC 6B00001C        	  4628: 	BMI		LAB_DIV0			* if -ve return zero
                            	  4629: 
00:000022E0 0243FF00        	  4630: 	ANDI.w	#$FF00,d3			* mask word high byte
00:000022E4 6600E6CC        	  4631: 	BNE		LAB_OFER			* branch if overflow
                            	  4632: 
                            	  4633: 							* move result into FAC1
                            	  4634: LAB_XDIV
00:000022E8 2E1F            	  4635: 	move.l	(sp)+,d7			* restore d7
00:000022EA 17400594        	  4636: 	move.b	d0,FAC1_e(a3)		* save result exponent
00:000022EE 27410590        	  4637: 	move.l	d1,FAC1_m(a3)		* save result mantissa
00:000022F2 4E75            	  4638: 	RTS
                            	  4639: 
                            	  4640: * FAC1 mantissa = FAC2 mantissa so set result mantissa
                            	  4641: 
                            	  4642: LAB_MAN1
00:000022F4 7201            	  4643: 	moveq		#1,d1				* set bit
00:000022F6 E2A9            	  4644: 	LSR.l		d1,d1				* bit into eXtend
00:000022F8 60DC            	  4645: 	BRA.s		LAB_SET1			* set mantissa, adjust exponent and exit
                            	  4646: 
                            	  4647: * result is zero
                            	  4648: 
                            	  4649: LAB_DIV0
00:000022FA 7000            	  4650: 	moveq		#0,d0				* zero exponent & sign
00:000022FC 2200            	  4651: 	move.l	d0,d1				* zero mantissa
00:000022FE 6000FFE8        	  4652: 	BRA		LAB_XDIV			* exit divide
                            	  4653: 
                            	  4654: * divide 16 bits into 32, AB/Ex
                            	  4655: *
                            	  4656: * d4			AAAA	BBBB			* 32 bit numerator
                            	  4657: * d3			EEEE	xxxx			* 16 bit denominator
                            	  4658: *
                            	  4659: * returns -
                            	  4660: *
                            	  4661: * d1			xxxx	DDDD			* 16 bit result
                            	  4662: * d2				HHHH	IIII		* 32 bit remainder
                            	  4663: 
                            	  4664: LAB_32_16
00:00002302 2404            	  4665: 	move.l	d4,d2				* copy FAC2 mantissa		(AB)
                            	  4666: LAB_3216
00:00002304 2A03            	  4667: 	move.l	d3,d5				* copy FAC1 mantissa		(EF)
00:00002306 4245            	  4668: 	CLR.w		d5				* clear low word d1		(Ex)
00:00002308 4845            	  4669: 	SWAP		d5				* swap high word to low word	(xE)
                            	  4670: 
                            	  4671: * d3			EEEE	FFFF			* denominator copy
                            	  4672: * d5		0000	EEEE				* denominator high word
                            	  4673: * d2			AAAA	BBBB			* numerator copy
                            	  4674: * d4			AAAA	BBBB			* numerator
                            	  4675: 
00:0000230A 88C5            	  4676: 	DIVU.w	d5,d4				* do FAC2/FAC1 high word	(AB/E)
00:0000230C 6802            	  4677: 	BVC.s		LAB_LT_1			* if no overflow DIV was ok
                            	  4678: 
00:0000230E 78FF            	  4679: 	moveq		#-1,d4			* else set default value
                            	  4680: 
                            	  4681: ; done the divide, now check the result, we have ...
                            	  4682: 
                            	  4683: * d3			EEEE	FFFF			* denominator copy
                            	  4684: * d5		0000	EEEE				* denominator high word
                            	  4685: * d2			AAAA	BBBB			* numerator copy
                            	  4686: * d4			MMMM	DDDD			* result MOD and DIV
                            	  4687: 
                            	  4688: LAB_LT_1
00:00002310 3C04            	  4689: 	MOVE.w	d4,d6				* copy 16 bit result
00:00002312 3204            	  4690: 	MOVE.w	d4,d1				* copy 16 bit result again
                            	  4691: 
                            	  4692: * we now have ..
                            	  4693: * d3			EEEE	FFFF			* denominator copy
                            	  4694: * d5		0000	EEEE				* denominator high word
                            	  4695: * d6			xxxx  DDDD			* result DIV copy
                            	  4696: * d1			xxxx  DDDD			* result DIV copy
                            	  4697: * d2			AAAA	BBBB			* numerator copy
                            	  4698: * d4			MMMM	DDDD			* result MOD and DIV
                            	  4699: 
                            	  4700: * now multiply out 32 bit denominator by 16 bit result
                            	  4701: * QRS = AB*D
                            	  4702: 
00:00002314 CCC3            	  4703: 	MULU.w	d3,d6				* FFFF * DDDD =       rrrr  SSSS
00:00002316 C8C5            	  4704: 	MULU.w	d5,d4				* EEEE * DDDD = QQQQ  rrrr
                            	  4705: 
                            	  4706: * we now have ..
                            	  4707: * d3			EEEE	FFFF			* denominator copy
                            	  4708: * d5		0000	EEEE				* denominator high word
                            	  4709: * d6				rrrr  SSSS		* 48 bit result partial low
                            	  4710: * d1			xxxx  DDDD			* result DIV copy
                            	  4711: * d2			AAAA	BBBB			* numerator copy
                            	  4712: * d4			QQQQ	rrrr			* 48 bit result partial
                            	  4713: 
00:00002318 3E06            	  4714: 	MOVE.w	d6,d7				* copy low word of low multiply
                            	  4715: 
                            	  4716: * d7				xxxx	SSSS		* 48 bit result partial low
                            	  4717: 
00:0000231A 4246            	  4718: 	CLR.w		d6				* clear low word of low multiply
00:0000231C 4846            	  4719: 	SWAP		d6				* high word of low multiply to low word
                            	  4720: 
                            	  4721: * d6			0000	rrrr			* high word of 48 bit result partial low
                            	  4722: 
00:0000231E D886            	  4723: 	ADD.l		d6,d4
                            	  4724: 
                            	  4725: * d4			QQQQ	RRRR			* 48 bit result partial high longword
                            	  4726: 
00:00002320 7C00            	  4727: 	moveq		#0,d6				* clear to extend numerator to 48 bits
                            	  4728: 
                            	  4729: * now do GHI = AB0 - QRS (which is the remainder)
                            	  4730: 
00:00002322 9C47            	  4731: 	SUB.w		d7,d6				* low word subtract
                            	  4732: 
                            	  4733: * d6				xxxx	IIII		* remainder low word
                            	  4734: 
00:00002324 9584            	  4735: 	SUBX.l	d4,d2				* high longword subtract
                            	  4736: 
                            	  4737: * d2			GGGG	HHHH			* remainder high longword
                            	  4738: 
                            	  4739: * now if we got the divide correct then the remainder high longword will be +ve
                            	  4740: 
00:00002326 6A08            	  4741: 	BPL.s		L_DDIV			* branch if result is ok (<needed)
                            	  4742: 
                            	  4743: * remainder was -ve so DDDD is too big
                            	  4744: 
                            	  4745: LAB_REMM
00:00002328 5341            	  4746: 	SUBQ.w	#1,d1				* adjust DDDD
                            	  4747: 
                            	  4748: * d3				xxxx	FFFF		* denominator copy
                            	  4749: * d6				xxxx	IIII		* remainder low word
                            	  4750: 
00:0000232A DC43            	  4751: 	ADD.w		d3,d6				* add EF*1 low remainder low word
                            	  4752: 
                            	  4753: * d5			0000	EEEE			* denominator high word
                            	  4754: * d2			GGGG	HHHH			* remainder high longword
                            	  4755: 
00:0000232C D585            	  4756: 	ADDX.l	d5,d2				* add extend EF*1 to remainder high longword
00:0000232E 6BF8            	  4757: 	BMI.s		LAB_REMM			* loop if result still too big
                            	  4758: 
                            	  4759: * all done and result correct or <
                            	  4760: 
                            	  4761: L_DDIV
00:00002330 4842            	  4762: 	SWAP		d2				* remainder mid word to high word
                            	  4763: 
                            	  4764: * d2			HHHH	GGGG			* (high word /should/ be $0000)
                            	  4765: 
00:00002332 3406            	  4766: 	MOVE.w	d6,d2				* remainder in high word
                            	  4767: 
                            	  4768: * d2				HHHH	IIII		* now is 32 bit remainder
                            	  4769: * d1			xxxx	DDDD			* 16 bit result
                            	  4770: 
00:00002334 4E75            	  4771: 	RTS
                            	  4772: 
                            	  4773: * unpack memory (a0) into FAC1
                            	  4774: 
                            	  4775: LAB_UFAC
00:00002336 2010            	  4776: 	move.l	(a0),d0			* get packed value
00:00002338 4840            	  4777: 	SWAP		d0				* exponent and sign into least significant word
00:0000233A 37400594        	  4778: 	MOVE.w	d0,FAC1_e(a3)		* save exponent and sign
00:0000233E 6708            	  4779: 	BEQ.s		LAB_NB1T			* branch if exponent (and the rest) zero
                            	  4780: 
00:00002340 807C0080        	  4781: 	OR.w		#$80,d0			* set MSb
00:00002344 4840            	  4782: 	SWAP		d0				* word order back to normal
00:00002346 E180            	  4783: 	ASL.l		#8,d0				* shift exponent & clear guard byte
                            	  4784: LAB_NB1T
00:00002348 27400590        	  4785: 	move.l	d0,FAC1_m(a3)		* move into FAC1
                            	  4786: 
00:0000234C 102B0594        	  4787: 	move.b	FAC1_e(a3),d0		* get FAC1 exponent
00:00002350 4E75            	  4788: 	RTS
                            	  4789: 
                            	  4790: * set numeric variable, pack FAC1 into Lvarpl
                            	  4791: 
                            	  4792: LAB_PFAC
00:00002352 2F08            	  4793: 	move.l	a0,-(sp)			* save pointer
00:00002354 206B0472        	  4794: 	MOVEA.l	Lvarpl(a3),a0		* get destination pointer
00:00002358 082B000605B5    	  4795: 	BTST		#6,Dtypef(a3)		* test data type
00:0000235E 670C            	  4796: 	BEQ.s		LAB_277C			* branch if floating
                            	  4797: 
00:00002360 610000C6        	  4798: 	BSR		LAB_2831			* convert FAC1 floating-to-fixed
                            	  4799: 							* result in d0 and Itemp
00:00002364 2080            	  4800: 	move.l	d0,(a0)			* save in var
00:00002366 205F            	  4801: 	move.l	(sp)+,a0			* restore pointer
00:00002368 4E75            	  4802: 	RTS
                            	  4803: 
                            	  4804: * normalise round and pack FAC1 into (a0)
                            	  4805: 
                            	  4806: LAB_2778
00:0000236A 2F08            	  4807: 	move.l	a0,-(sp)			* save pointer
                            	  4808: LAB_277C
00:0000236C 6100FD56        	  4809: 	BSR		LAB_24D5			* normalise FAC1
00:00002370 612C            	  4810: 	BSR.s		LAB_27BA			* round FAC1
00:00002372 202B0590        	  4811: 	move.l	FAC1_m(a3),d0		* get FAC1 mantissa
00:00002376 E098            	  4812: 	ROR.l		#8,d0				* align 24/32 bit mantissa
00:00002378 4840            	  4813: 	SWAP		d0				* exponent/sign into 0-15
00:0000237A C07C007F        	  4814: 	AND.w		#$7F,d0			* clear exponent and sign bit
00:0000237E 022B00800595    	  4815: 	ANDI.b	#$80,FAC1_s(a3)		* clear non sign bits in sign
00:00002384 806B0594        	  4816: 	OR.w		FAC1_e(a3),d0		* OR in exponent and sign
00:00002388 4840            	  4817: 	SWAP		d0				* move exponent and sign back to 16-31
00:0000238A 2080            	  4818: 	move.l	d0,(a0)			* store in destination
00:0000238C 205F            	  4819: 	move.l	(sp)+,a0			* restore pointer
00:0000238E 4E75            	  4820: 	RTS
                            	  4821: 
                            	  4822: * copy FAC2 to FAC1
                            	  4823: 
                            	  4824: LAB_279B
00:00002390 376B059C0594    	  4825: 	MOVE.w	FAC2_e(a3),FAC1_e(a3)	* copy exponent & sign
00:00002396 276B05980590    	  4826: 	move.l	FAC2_m(a3),FAC1_m(a3)	* copy mantissa
00:0000239C 4E75            	  4827: 	RTS
                            	  4828: 
                            	  4829: * round FAC1
                            	  4830: 
                            	  4831: LAB_27BA
00:0000239E 102B0594        	  4832: 	move.b	FAC1_e(a3),d0		* get FAC1 exponent
00:000023A2 6720            	  4833: 	BEQ.s		LAB_27C4			* branch if zero
                            	  4834: 
00:000023A4 202B0590        	  4835: 	move.l	FAC1_m(a3),d0		* get FAC1
00:000023A8 D0BC00000080    	  4836: 	ADD.l		#$80,d0			* round to 24 bit
00:000023AE 640A            	  4837: 	BCC.s		LAB_27C3			* branch if no overflow
                            	  4838: 
00:000023B0 E290            	  4839: 	ROXR.l	#1,d0				* shift FAC1 mantissa
00:000023B2 522B0594        	  4840: 	ADDQ.b	#1,FAC1_e(a3)		* correct exponent
00:000023B6 6500E5FA        	  4841: 	BCS		LAB_OFER			* if carry do overflow error & warm start
                            	  4842: 
                            	  4843: LAB_27C3
00:000023BA C03C0000        	  4844: 	AND.b		#$00,d0			* clear guard byte
00:000023BE 27400590        	  4845: 	move.l	d0,FAC1_m(a3)		* save back to FAC1
00:000023C2 4E75            	  4846: 	RTS
                            	  4847: 
                            	  4848: LAB_27C4
00:000023C4 17400595        	  4849: 	move.b	d0,FAC1_s(a3)		* make zero always +ve
                            	  4850: RTS_017
00:000023C8 4E75            	  4851: 	RTS
                            	  4852: 
                            	  4853: * get FAC1 sign
                            	  4854: * return d0=-1,C=1/-ve d0=+1,C=0/+ve
                            	  4855: 
                            	  4856: LAB_27CA
00:000023CA 7000            	  4857: 	moveq		#0,d0				* clear d0
00:000023CC 102B0594        	  4858: 	move.b	FAC1_e(a3),d0		* get FAC1 exponent
00:000023D0 67F6            	  4859: 	BEQ.s		RTS_017			* exit if zero (already correct SGN(0)=0)
                            	  4860: 
                            	  4861: * return d0=-1,C=1/-ve d0=+1,C=0/+ve
                            	  4862: * no = 0 check
                            	  4863: 
                            	  4864: LAB_27CE
00:000023D2 102B0595        	  4865: 	move.b	FAC1_s(a3),d0		* else get FAC1 sign (b7)
                            	  4866: 
                            	  4867: * return d0=-1,C=1/-ve d0=+1,C=0/+ve
                            	  4868: * no = 0 check, sign in d0
                            	  4869: 
                            	  4870: LAB_27D0
00:000023D6 4880            	  4871: 	EXT.w		d0				* make word
00:000023D8 48C0            	  4872: 	EXT.l		d0				* make longword
00:000023DA E080            	  4873: 	ASR.l		#8,d0				* move sign bit through byte to carry
00:000023DC 65EA            	  4874: 	BCS.s		RTS_017			* exit if carry set
                            	  4875: 
00:000023DE 7001            	  4876: 	moveq		#1,d0				* set result for +ve sign
00:000023E0 4E75            	  4877: 	RTS
                            	  4878: 
                            	  4879: * perform SGN()
                            	  4880: 
                            	  4881: LAB_SGN
00:000023E2 61E6            	  4882: 	BSR.s		LAB_27CA			* get FAC1 sign
                            	  4883: 							* return d0=-1/-ve d0=+1/+ve
                            	  4884: 
                            	  4885: * save d0 as integer longword
                            	  4886: 
                            	  4887: LAB_27DB
00:000023E4 27400590        	  4888: 	move.l	d0,FAC1_m(a3)		* save FAC1 mantissa
00:000023E8 377CA0000594    	  4889: 	MOVE.w	#$A000,FAC1_e(a3)		* set FAC1 exponent & sign
00:000023EE D080            	  4890: 	ADD.l		d0,d0				* top bit into carry
00:000023F0 6000FCC6        	  4891: 	BRA		LAB_24D0			* do +/- (carry is sign) & normalise FAC1
                            	  4892: 
                            	  4893: * perform ABS()
                            	  4894: 
                            	  4895: LAB_ABS
00:000023F4 177C00000595    	  4896: 	move.b	#0,FAC1_s(a3)		* clear FAC1 sign
00:000023FA 4E75            	  4897: 	RTS
                            	  4898: 
                            	  4899: * compare FAC1 with FAC2
                            	  4900: * returns d0=+1 Cb=0 if FAC1 > FAC2
                            	  4901: * returns d0= 0 Cb=0 if FAC1 = FAC2
                            	  4902: * returns d0=-1 Cb=1 if FAC1 < FAC2
                            	  4903: 
                            	  4904: LAB_27FA
00:000023FC 122B059C        	  4905: 	move.b	FAC2_e(a3),d1		* get FAC2 exponent
00:00002400 67C8            	  4906: 	BEQ.s		LAB_27CA			* branch if FAC2 exponent=0 & get FAC1 sign
                            	  4907: 							* d0=-1,C=1/-ve d0=+1,C=0/+ve
                            	  4908: 
00:00002402 102B059E        	  4909: 	move.b	FAC_sc(a3),d0		* get FAC sign compare
00:00002406 6BCA            	  4910: 	BMI.s		LAB_27CE			* if signs <> do return d0=-1,C=1/-ve
                            	  4911: 							* d0=+1,C=0/+ve & return
                            	  4912: 
00:00002408 102B0595        	  4913: 	move.b	FAC1_s(a3),d0		* get FAC1 sign
00:0000240C B22B0594        	  4914: 	CMP.b		FAC1_e(a3),d1		* compare FAC1 exponent with FAC2 exponent
00:00002410 660A            	  4915: 	BNE.s		LAB_2828			* branch if different
                            	  4916: 
00:00002412 222B0598        	  4917: 	move.l	FAC2_m(a3),d1		* get FAC2 mantissa
00:00002416 B2AB0590        	  4918: 	CMP.l		FAC1_m(a3),d1		* compare mantissas
00:0000241A 6708            	  4919: 	BEQ.s		LAB_282F			* exit if mantissas equal
                            	  4920: 
                            	  4921: * gets here if number <> FAC1
                            	  4922: 
                            	  4923: LAB_2828
00:0000241C 65B8            	  4924: 	BCS.s		LAB_27D0			* if FAC1 > FAC2 return d0=-1,C=1/-ve d0=+1,
                            	  4925: 							* C=0/+ve
                            	  4926: 
00:0000241E 0A000080        	  4927: 	EORI.b	#$80,d0			* else toggle FAC1 sign
                            	  4928: LAB_282E
00:00002422 60B2            	  4929: 	BRA.s		LAB_27D0			* return d0=-1,C=1/-ve d0=+1,C=0/+ve
                            	  4930: 
                            	  4931: LAB_282F
00:00002424 7000            	  4932: 	moveq		#0,d0				* clear result
00:00002426 4E75            	  4933: 	RTS
                            	  4934: 
                            	  4935: * convert FAC1 floating-to-fixed
                            	  4936: * result in d0 and Itemp, sets flags correctly
                            	  4937: 
                            	  4938: LAB_2831
00:00002428 202B0590        	  4939: 	move.l	FAC1_m(a3),d0		* copy mantissa
00:0000242C 6732            	  4940: 	BEQ.s		LAB_284J			* branch if mantissa = 0
                            	  4941: 
00:0000242E 2F01            	  4942: 	move.l	d1,-(sp)			* save d1
00:00002430 72A0            	  4943: 	moveq		#$A0,d1			* set for no floating bits
00:00002432 922B0594        	  4944: 	SUB.b		FAC1_e(a3),d1		* subtract FAC1 exponent
00:00002436 6500E57A        	  4945: 	BCS		LAB_OFER			* do overflow if too big
                            	  4946: 
00:0000243A 660E            	  4947: 	BNE.s		LAB_284G			* branch if exponent was not $A0
                            	  4948: 
00:0000243C 4A2B0595        	  4949: 	TST.b		FAC1_s(a3)			* test FAC1 sign
00:00002440 6A1C            	  4950: 	BPL.s		LAB_284H			* branch if FAC1 +ve
                            	  4951: 
00:00002442 4480            	  4952: 	NEG.l		d0
00:00002444 6918            	  4953: 	BVS.s		LAB_284H			* branch if was $80000000
                            	  4954: 
00:00002446 6000E56A        	  4955: 	BRA		LAB_OFER			* do overflow if too big
                            	  4956: 
                            	  4957: LAB_284G
00:0000244A B23C0020        	  4958: 	CMP.b		#$20,d1			* compare with minimum result for integer
00:0000244E 65000004        	  4959: 	BCS		LAB_284L			* if < minimum just do shift
                            	  4960: 
00:00002452 7000            	  4961: 	moveq		#0,d0				* else return zero
                            	  4962: LAB_284L
00:00002454 E2A8            	  4963: 	LSR.l		d1,d0				* shift integer
                            	  4964: 
00:00002456 4A2B0595        	  4965: 	TST.b		FAC1_s(a3)			* test FAC1 sign (b7)
00:0000245A 6A02            	  4966: 	BPL.s		LAB_284H			* branch if FAC1 +ve
                            	  4967: 
00:0000245C 4480            	  4968: 	NEG.l		d0				* negate integer value
                            	  4969: LAB_284H
00:0000245E 221F            	  4970: 	move.l	(sp)+,d1			* restore d1
                            	  4971: LAB_284J
00:00002460 2740042A        	  4972: 	move.l	d0,Itemp(a3)		* save result to Itemp
00:00002464 4E75            	  4973: 	RTS
                            	  4974: 
                            	  4975: * perform INT()
                            	  4976: 
                            	  4977: LAB_INT
00:00002466 70A0            	  4978: 	moveq		#$A0,d0			* set for no floating bits
00:00002468 902B0594        	  4979: 	SUB.b		FAC1_e(a3),d0		* subtract FAC1 exponent
00:0000246C 6310            	  4980: 	BLS.s		LAB_IRTS			* exit if exponent >= $A0
                            	  4981: 							* (too big for fractional part!)
                            	  4982: 
00:0000246E B03C0020        	  4983: 	CMP.b		#$20,d0			* compare with minimum result for integer
00:00002472 64000268        	  4984: 	BCC		LAB_POZE			* if >= minimum go return 0
                            	  4985: 							* (too small for integer part!)
                            	  4986: 
00:00002476 72FF            	  4987: 	moveq		#-1,d1			* set integer mask
00:00002478 E1A1            	  4988: 	ASL.l		d0,d1				* shift mask [8+2*d0]
00:0000247A C3AB0590        	  4989: 	AND.l		d1,FAC1_m(a3)		* mask mantissa
                            	  4990: LAB_IRTS
00:0000247E 4E75            	  4991: 	RTS
                            	  4992: 
                            	  4993: * print " in line [LINE #]"
                            	  4994: 
                            	  4995: LAB_2953
00:00002480 41FA14A0        	  4996: 	lea		(LAB_LMSG,PC),a0		* point to " in line " message
00:00002484 6100ED16        	  4997: 	BSR		LAB_18C3			* print null terminated string
                            	  4998: 
                            	  4999: 							* Print Basic line #
00:00002488 202B0452        	  5000: 	move.l	Clinel(a3),d0		* get current line
                            	  5001: 
                            	  5002: * print d0 as unsigned integer
                            	  5003: 
                            	  5004: LAB_295E
00:0000248C 43FA0AC4        	  5005: 	lea		(Bin2dec,PC),a1		* get table address
00:00002490 7200            	  5006: 	moveq		#0,d1				* table index
00:00002492 41EB05CC        	  5007: 	lea		Usdss(a3),a0		* output string start
00:00002496 2401            	  5008: 	move.l	d1,d2				* output string index
                            	  5009: LAB_2967
00:00002498 26311000        	  5010: 	move.l	(a1,d1.w),d3		* get table value
00:0000249C 6714            	  5011: 	BEQ.s		LAB_2969			* exit if end marker
                            	  5012: 
00:0000249E 782F            	  5013: 	moveq		#'0'-1,d4			* set character to "0"-1
                            	  5014: LAB_2968
00:000024A0 5244            	  5015: 	ADDQ.w	#1,d4				* next numeric character
00:000024A2 9083            	  5016: 	SUB.l		d3,d0				* subtract table value
00:000024A4 6AFA            	  5017: 	BPL.s		LAB_2968			* not overdone so loop
                            	  5018: 
00:000024A6 D083            	  5019: 	ADD.l		d3,d0				* correct value
00:000024A8 11842000        	  5020: 	move.b	d4,(a0,d2.w)		* character out to string
00:000024AC 5841            	  5021: 	ADDQ.w	#4,d1				* increment table pointer
00:000024AE 5242            	  5022: 	ADDQ.w	#1,d2				* increment output string pointer
00:000024B0 60E6            	  5023: 	BRA.s		LAB_2967			* loop
                            	  5024: 
                            	  5025: LAB_2969
00:000024B2 D03C0030        	  5026: 	ADD.b		#'0',d0			* make last character
00:000024B6 11802000        	  5027: 	move.b	d0,(a0,d2.w)		* character out to string
00:000024BA 5348            	  5028: 	SUBQ.w	#1,a0				* decrement a0 (allow simple loop)
                            	  5029: 
                            	  5030: 							* now find non zero start of string
                            	  5031: LAB_296A
00:000024BC 5248            	  5032: 	ADDQ.w	#1,a0				* increment a0 (this will never carry to b16)
00:000024BE 43EB05D5        	  5033: 	lea		BHsend-1(a3),a1		* get string end
00:000024C2 B1C9            	  5034: 	CMPA.l	a1,a0				* are we at end
00:000024C4 6700ECD6        	  5035: 	BEQ		LAB_18C3			* if so print null terminated string and RETURN
                            	  5036: 
00:000024C8 0C100030        	  5037: 	CMPI.b	#'0',(a0)			* is character "0" ?
00:000024CC 67EE            	  5038: 	BEQ.s		LAB_296A			* loop if so
                            	  5039: 
00:000024CE 6000ECCC        	  5040: 	BRA		LAB_18C3			* print null terminated string from memory & RET
                            	  5041: 
                            	  5042: * convert FAC1 to ASCII string result in (a0)
                            	  5043: * STR$() function enters here
                            	  5044: 
                            	  5045: * d0 is character out
                            	  5046: * d1 is save index
                            	  5047: * d2 is gash
                            	  5048: 
                            	  5049: * a0 is output pointer
                            	  5050: 
                            	  5051: LAB_2970
00:000024D2 43EB05C6        	  5052: 	lea		Decss(a3),a1		* set output string start
                            	  5053: 
00:000024D6 12BC0020        	  5054: 	move.b	#' ',(a1)			* character = " " (assume +ve)
00:000024DA 08AB00070595    	  5055: 	BCLR.b	#7,FAC1_s(a3)		* test and clear FAC1 sign (b7)
00:000024E0 6704            	  5056: 	BEQ.s		LAB_2978			* branch if +ve
                            	  5057: 
00:000024E2 12BC002D        	  5058: 	move.b	#$2D,(a1)			* else character = "-"
                            	  5059: LAB_2978
00:000024E6 142B0594        	  5060: 	move.b	FAC1_e(a3),d2		* get FAC1 exponent
00:000024EA 6608            	  5061: 	BNE.s		LAB_2989			* branch if FAC1<>0
                            	  5062: 
                            	  5063: 							* exponent was $00 so FAC1 is 0
00:000024EC 7030            	  5064: 	moveq		#'0',d0			* set character = "0"
00:000024EE 7201            	  5065: 	moveq		#1,d1				* set output string index
00:000024F0 600001AC        	  5066: 	BRA		LAB_2A89			* save last character, [EOT] & exit
                            	  5067: 
                            	  5068: 							* FAC1 is some non zero value
                            	  5069: LAB_2989
00:000024F4 177C000005AC    	  5070: 	move.b	#0,numexp(a3)		* clear number exponent count
00:000024FA B43C0081        	  5071: 	CMP.b		#$81,d2			* compare FAC1 exponent with $81 (>1.00000)
                            	  5072: 
00:000024FE 641E            	  5073: 	BCC.s		LAB_299C			* branch if FAC1=>1
                            	  5074: 
00:00002500 277CF42400000598	  5075: 	move.l	#$F4240000,FAC2_m(a3)	* 1000000 mantissa
00:00002508 377C9400059C    	  5076: 	MOVE.w	#$9400,FAC2_e(a3)		* 1000000 exponent & sign
00:0000250E 176B0595059E    	  5077: 	move.b	FAC1_s(a3),FAC_sc(a3)	* make FAC1 sign sign compare
00:00002514 6100FCD6        	  5078: 	BSR		LAB_MULTIPLY		* do FAC2*FAC1
                            	  5079: 
00:00002518 177C00FA05AC    	  5080: 	move.b	#$FA,numexp(a3)		* set number exponent count (-6)
                            	  5081: LAB_299C
00:0000251E 277CF423F7000598	  5082: 	move.l	#$F423F700,FAC2_m(a3)	* set mantissa for 999999.4375
00:00002526 377C9400059C    	  5083: 	MOVE.w	#$9400,FAC2_e(a3)		* set exponent for 999999.4375
                            	  5084: 							* (max before scientific notation)
00:0000252C 6100017E        	  5085: 	BSR		LAB_27F0			* fast compare FAC1 with FAC2
                            	  5086: 							* returns d0=+1 C=0 if FAC1 > FAC2
                            	  5087: 							* returns d0= 0 C=0 if FAC1 = FAC2
                            	  5088: 							* returns d0=-1 C=1 if FAC1 < FAC2
00:00002530 623C            	  5089: 	BHI.s		LAB_29B9			* go do /10 if FAC1 > 999999.4375
                            	  5090: 
00:00002532 6700007E        	  5091: 	BEQ		LAB_29C3			* branch if FAC1 = 999999.4375
                            	  5092: 
                            	  5093: 							* FAC1 < 999999.4375
00:00002536 277CC34FF8000598	  5094: 	move.l	#$C34FF800,FAC2_m(a3)	* set mantissa for 99999.9375
00:0000253E 377C9100059C    	  5095: 	MOVE.w	#$9100,FAC2_e(a3)		* set exponent for 99999.9375
00:00002544 41EB0590        	  5096: 	lea		FAC1_m(a3),a0		* set pointer for x10
                            	  5097: LAB_29A7
00:00002548 61000162        	  5098: 	BSR		LAB_27F0			* fast compare FAC1 with FAC2
                            	  5099: 							* returns d0=+1 C=0 if FAC1 > FAC2
                            	  5100: 							* returns d0= 0 C=0 if FAC1 = FAC2
                            	  5101: 							* returns d0=-1 C=1 if FAC1 < FAC2
00:0000254C 624C            	  5102: 	BHI.s		LAB_29C0			* branch if FAC1 > 99999.9375,no decimal places
                            	  5103: 
                            	  5104: 							* FAC1 <= 99999.9375
00:0000254E 2010            	  5105: 	move.l	(a0),d0			* get FAC1 mantissa
00:00002550 12280004        	  5106: 	move.b	4(a0),d1			* get FAC1 exponent
00:00002554 2400            	  5107: 	move.l	d0,d2				* copy it
00:00002556 E488            	  5108: 	LSR.l		#2,d0				* /4
00:00002558 D082            	  5109: 	ADD.l		d2,d0				* add FAC1 (x1.125)
00:0000255A 6404            	  5110: 	BCC.s		LAB_29B7			* branch if no carry
                            	  5111: 
00:0000255C E290            	  5112: 	ROXR.l	#1,d0				* shift carry back in
00:0000255E 5201            	  5113: 	ADDQ.b	#1,d1				* increment exponent (never overflows)
                            	  5114: LAB_29B7
00:00002560 5601            	  5115: 	ADDQ.b	#3,d1				* correct exponent ( 8 x 1.125 = 10 )
                            	  5116: 							* (never overflows)
00:00002562 2080            	  5117: 	move.l	d0,(a0)			* save new mantissa
00:00002564 11410004        	  5118: 	move.b	d1,4(a0)			* save new exponent
00:00002568 532B05AC        	  5119: 	SUBQ.b	#1,numexp(a3)		* decrement number exponent count
00:0000256C 60DA            	  5120: 	BRA.s		LAB_29A7			* go test again
                            	  5121: 
                            	  5122: LAB_29B9
00:0000256E 376B0594059C    	  5123: 	MOVE.w	FAC1_e(a3),FAC2_e(a3)	* copy exponent & sign from FAC1 to FAC2
00:00002574 276B05900598    	  5124: 	move.l	FAC1_m(a3),FAC2_m(a3)	* copy FAC1 mantissa to FAC2 mantissa
00:0000257A 176B0595059E    	  5125: 	move.b	FAC1_s(a3),FAC_sc(a3)	* save FAC1_s as sign compare
                            	  5126: 
00:00002580 277CCCCCCCCD0590	  5127: 	move.l	#$CCCCCCCD,FAC1_m(a3)	* 1/10 mantissa
00:00002588 377C7D000594    	  5128: 	MOVE.w	#$7D00,FAC1_e(a3)		* 1/10 exponent & sign
00:0000258E 6100FC5C        	  5129: 	BSR		LAB_MULTIPLY		* do FAC2*FAC1, effectively divide by 10 but
                            	  5130: 							* faster
                            	  5131: 
00:00002592 522B05AC        	  5132: 	ADDQ.b	#1,numexp(a3)		* increment number exponent count
00:00002596 6000FF86        	  5133: 	BRA		LAB_299C			* go test again
                            	  5134: 
                            	  5135: 							* now we have just the digits to do
                            	  5136: LAB_29C0
00:0000259A 277C800000000598	  5137: 	move.l	#$80000000,FAC2_m(a3)	* set mantissa for 0.5
00:000025A2 377C8000059C    	  5138: 	MOVE.w	#$8000,FAC2_e(a3)		* set exponent for 0.5
00:000025A8 176B0595059E    	  5139: 	move.b	FAC1_s(a3),FAC_sc(a3)	* sign compare = sign
00:000025AE 6100FA98        	  5140: 	BSR		LAB_ADD			* add the 0.5 to FAC1 (round FAC1)
                            	  5141: 
                            	  5142: LAB_29C3
00:000025B2 6100FE74        	  5143: 	BSR		LAB_2831			* convert FAC1 floating-to-fixed
                            	  5144: 							* result in d0 and Itemp
00:000025B6 7401            	  5145: 	moveq		#$01,d2			* set default digits before dp = 1
00:000025B8 102B05AC        	  5146: 	move.b	numexp(a3),d0		* get number exponent count
00:000025BC D03C0007        	  5147: 	ADD.b		#7,d0				* allow 6 digits before point
00:000025C0 6B0C            	  5148: 	BMI.s		LAB_29D9			* if -ve then 1 digit before dp
                            	  5149: 
00:000025C2 B03C0008        	  5150: 	CMP.b		#$08,d0			* d0>=8 if n>=1E6
00:000025C6 6406            	  5151: 	BCC.s		LAB_29D9			* branch if >= $08
                            	  5152: 
                            	  5153: 							* < $08
00:000025C8 5300            	  5154: 	SUBQ.b	#1,d0				* take 1 from digit count
00:000025CA 1400            	  5155: 	move.b	d0,d2				* copy byte
00:000025CC 7002            	  5156: 	moveq		#$02,d0			* set exponent adjust
                            	  5157: LAB_29D9
00:000025CE 7200            	  5158: 	moveq		#0,d1				* set output string index
00:000025D0 5500            	  5159: 	SUBQ.b	#2,d0				* -2
00:000025D2 174005AD        	  5160: 	move.b	d0,expcnt(a3)		* save exponent adjust
00:000025D6 174205AC        	  5161: 	move.b	d2,numexp(a3)		* save digits before dp count
00:000025DA 1002            	  5162: 	move.b	d2,d0				* copy digits before dp count
00:000025DC 6702            	  5163: 	BEQ.s		LAB_29E4			* branch if no digits before dp
                            	  5164: 
00:000025DE 6A14            	  5165: 	BPL.s		LAB_29F7			* branch if digits before dp
                            	  5166: 
                            	  5167: LAB_29E4
00:000025E0 5281            	  5168: 	ADDQ.l	#1,d1				* increment index
00:000025E2 13BC002E1000    	  5169: 	move.b	#'.',(a1,d1.w)		* save to output string
                            	  5170: 
00:000025E8 4A02            	  5171: 	TST.b		d2				* test digits before dp count
00:000025EA 6708            	  5172: 	BEQ.s		LAB_29F7			* branch if no digits before dp
                            	  5173: 
00:000025EC 5281            	  5174: 	ADDQ.l	#1,d1				* increment index
00:000025EE 13BC00301000    	  5175: 	move.b	#'0',(a1,d1.w)		* save to output string
                            	  5176: LAB_29F7
00:000025F4 7400            	  5177: 	moveq		#0,d2				* clear index (point to 100,000)
00:000025F6 7080            	  5178: 	moveq		#$80-$100,d0		* set output character
                            	  5179: LAB_29FB
00:000025F8 41FA0DEE        	  5180: 	lea		(LAB_2A9A,PC),a0		* get base of table
00:000025FC 26302000        	  5181: 	move.l	(a0,d2.w),d3		* get table value
                            	  5182: LAB_29FD
00:00002600 5200            	  5183: 	ADDQ.b	#1,d0				* increment output character
00:00002602 D7AB042A        	  5184: 	ADD.l		d3,Itemp(a3)		* add to (now fixed) mantissa
00:00002606 08000007        	  5185: 	BTST		#7,d0				* set test sense (z flag only)
00:0000260A 6504            	  5186: 	BCS.s		LAB_2A18			* did carry so has wrapped past zero
                            	  5187: 
00:0000260C 67F2            	  5188: 	BEQ.s		LAB_29FD			* no wrap and +ve test so try again
                            	  5189: 
00:0000260E 6002            	  5190: 	BRA.s		LAB_2A1A			* found this digit
                            	  5191: 
                            	  5192: LAB_2A18
00:00002610 66EE            	  5193: 	BNE.s		LAB_29FD			* wrap and -ve test so try again
                            	  5194: 
                            	  5195: LAB_2A1A
00:00002612 6406            	  5196: 	BCC.s		LAB_2A21			* branch if +ve test result
                            	  5197: 
00:00002614 4400            	  5198: 	NEG.b		d0				* negate number
00:00002616 D03C000B        	  5199: 	ADD.b		#$0B,d0			* and effectively subtract from 11d
                            	  5200: LAB_2A21
00:0000261A D03C002F        	  5201: 	ADD.b		#$2F,d0			* add "0"-1 to result
00:0000261E 5842            	  5202: 	ADDQ.w	#4,d2				* increment index to next less power of ten
00:00002620 5241            	  5203: 	ADDQ.w	#1,d1				* increment output string index
00:00002622 1600            	  5204: 	move.b	d0,d3				* copy character to d3
00:00002624 C63C007F        	  5205: 	AND.b		#$7F,d3			* mask out top bit
00:00002628 13831000        	  5206: 	move.b	d3,(a1,d1.w)		* save to output string
00:0000262C 042B000105AC    	  5207: 	SUB.b		#1,numexp(a3)		* decrement # of characters before the dp
00:00002632 6608            	  5208: 	BNE.s		LAB_2A3B			* branch if still characters to do
                            	  5209: 
                            	  5210: 							* else output the point
00:00002634 5281            	  5211: 	ADDQ.l	#1,d1				* increment index
00:00002636 13BC002E1000    	  5212: 	move.b	#'.',(a1,d1.w)		* save to output string
                            	  5213: LAB_2A3B
00:0000263C C03C0080        	  5214: 	AND.b		#$80,d0			* mask test sense bit
00:00002640 0A000080        	  5215: 	EORI.b	#$80,d0			* invert it
00:00002644 B43C0018        	  5216: 	CMP.b		#$18,d2			* compare table index with max+4
00:00002648 66AE            	  5217: 	BNE.s		LAB_29FB			* loop if not max
                            	  5218: 
                            	  5219: 							* now remove trailing zeroes
                            	  5220: LAB_2A4B
00:0000264A 10311000        	  5221: 	move.b	(a1,d1.w),d0		* get character from output string
00:0000264E 5381            	  5222: 	SUBQ.l	#1,d1				* decrement output string index
00:00002650 B03C0030        	  5223: 	CMP.b		#'0',d0			* compare with "0"
00:00002654 67F4            	  5224: 	BEQ.s		LAB_2A4B			* loop until non "0" character found
                            	  5225: 
00:00002656 B03C002E        	  5226: 	CMP.b		#'.',d0			* compare with "."
00:0000265A 6702            	  5227: 	BEQ.s		LAB_2A58			* branch if was dp
                            	  5228: 
                            	  5229: 							* else restore last character
00:0000265C 5281            	  5230: 	ADDQ.l	#1,d1				* increment output string index
                            	  5231: LAB_2A58
00:0000265E 13BC002B1002    	  5232: 	move.b	#'+',2(a1,d1.w)		* save character "+" to output string
00:00002664 4A2B05AD        	  5233: 	TST.b		expcnt(a3)			* test exponent count
00:00002668 6738            	  5234: 	BEQ.s		LAB_2A8C			* if zero go set null terminator & exit
                            	  5235: 
                            	  5236: 							* exponent isn't zero so write exponent
00:0000266A 6A0A            	  5237: 	BPL.s		LAB_2A68			* branch if exponent count +ve
                            	  5238: 
00:0000266C 13BC002D1002    	  5239: 	move.b	#'-',2(a1,d1.w)		* save character "-" to output string
00:00002672 442B05AD        	  5240: 	NEG.b		expcnt(a3)			* convert -ve to +ve
                            	  5241: LAB_2A68
00:00002676 13BC00451001    	  5242: 	move.b	#'E',1(a1,d1.w)		* save character "E" to output string
00:0000267C 142B05AD        	  5243: 	move.b	expcnt(a3),d2		* get exponent count
00:00002680 702F            	  5244: 	moveq		#$2F,d0			* one less than "0" character
                            	  5245: LAB_2A74
00:00002682 5200            	  5246: 	ADDQ.b	#1,d0				* increment 10's character
00:00002684 943C000A        	  5247: 	SUB.b		#$0A,d2			* subtract 10 from exponent count
00:00002688 64F8            	  5248: 	BCC.s		LAB_2A74			* loop while still >= 0
                            	  5249: 
00:0000268A D43C003A        	  5250: 	ADD.b		#$3A,d2			* add character ":", $30+$0A, result is 10-value
00:0000268E 13801003        	  5251: 	move.b	d0,3(a1,d1.w)		* save 10's character to output string
00:00002692 13821004        	  5252: 	move.b	d2,4(a1,d1.w)		* save 1's character to output string
00:00002696 13BC00001005    	  5253: 	move.b	#0,5(a1,d1.w)		* save null terminator after last character
00:0000269C 600A            	  5254: 	BRA.s		LAB_2A91			* go set string pointer (a0) and exit
                            	  5255: 
                            	  5256: LAB_2A89
00:0000269E 13801000        	  5257: 	move.b	d0,(a1,d1.w)		* save last character to output string
                            	  5258: LAB_2A8C
00:000026A2 13BC00001001    	  5259: 	move.b	#0,1(a1,d1.w)		* save null terminator after last character
                            	  5260: LAB_2A91
00:000026A8 2049            	  5261: 	MOVEA.l	a1,a0				* set result string pointer (a0)
00:000026AA 4E75            	  5262: 	RTS
                            	  5263: 
                            	  5264: * fast compare FAC1 with FAC2
                            	  5265: * assumes both are +ve and FAC2>0
                            	  5266: * returns d0=+1 C=0 if FAC1 > FAC2
                            	  5267: * returns d0= 0 C=0 if FAC1 = FAC2
                            	  5268: * returns d0=-1 C=1 if FAC1 < FAC2
                            	  5269: 
                            	  5270: LAB_27F0
00:000026AC 7000            	  5271: 	moveq		#0,d0				* set for FAC1 = FAC2
00:000026AE 122B059C        	  5272: 	move.b	FAC2_e(a3),d1		* get FAC2 exponent
00:000026B2 B22B0594        	  5273: 	CMP.b		FAC1_e(a3),d1		* compare FAC1 exponent with FAC2 exponent
00:000026B6 660A            	  5274: 	BNE.s		LAB_27F1			* branch if different
                            	  5275: 
00:000026B8 222B0598        	  5276: 	move.l	FAC2_m(a3),d1		* get FAC2 mantissa
00:000026BC B2AB0590        	  5277: 	CMP.l		FAC1_m(a3),d1		* compare mantissas
00:000026C0 6708            	  5278: 	BEQ.s		LAB_27F3			* exit if mantissas equal
                            	  5279: 
                            	  5280: LAB_27F1
00:000026C2 6504            	  5281: 	BCS.s		LAB_27F2			* if FAC1 > FAC2 return d0=+1,C=0
                            	  5282: 
00:000026C4 5380            	  5283: 	SUBQ.l	#1,d0				* else FAC1 < FAC2 return d0=-1,C=1
00:000026C6 4E75            	  5284: 	RTS
                            	  5285: 
                            	  5286: LAB_27F2
00:000026C8 5280            	  5287: 	ADDQ.l	#1,d0
                            	  5288: LAB_27F3
00:000026CA 4E75            	  5289: 	RTS
                            	  5290: 
                            	  5291: * make FAC1 = 1
                            	  5292: 
                            	  5293: LAB_POON
00:000026CC 277C800000000590	  5294: 	move.l	#$80000000,FAC1_m(a3)	* 1 mantissa
00:000026D4 377C81000594    	  5295: 	MOVE.w	#$8100,FAC1_e(a3)		* 1 exonent & sign
00:000026DA 4E75            	  5296: 	RTS
                            	  5297: 
                            	  5298: * make FAC1 = 0
                            	  5299: 
                            	  5300: LAB_POZE
00:000026DC 7000            	  5301: 	moveq		#0,d0				* clear longword
00:000026DE 27400590        	  5302: 	move.l	d0,FAC1_m(a3)		* 0 mantissa
00:000026E2 37400594        	  5303: 	MOVE.w	d0,FAC1_e(a3)		* 0 exonent & sign
00:000026E6 4E75            	  5304: 	RTS
                            	  5305: 
                            	  5306: * Perform power function
                            	  5307: * The number is in FAC2, the power is in FAC1
                            	  5308: * no longer trashes Itemp
                            	  5309: 
                            	  5310: LAB_POWER
00:000026E8 4A2B0594        	  5311: 	TST.b		FAC1_e(a3)			* test power
00:000026EC 67DE            	  5312: 	BEQ.s		LAB_POON			* if zero go return 1
                            	  5313: 
00:000026EE 4A2B059C        	  5314: 	TST.b		FAC2_e(a3)			* test number
00:000026F2 67E8            	  5315: 	BEQ.s		LAB_POZE			* if zero go return 0
                            	  5316: 
00:000026F4 1F2B059D        	  5317: 	move.b	FAC2_s(a3),-(sp)		* save number sign
00:000026F8 6A20            	  5318: 	BPL.s		LAB_POWP			* power of positive number
                            	  5319: 
00:000026FA 7200            	  5320: 	moveq		#0,d1				* clear d1
00:000026FC 1741059D        	  5321: 	move.b	d1,FAC2_s(a3)		* make sign +ve
                            	  5322: 
                            	  5323: 							* number sign was -ve and can only be raised to
                            	  5324: 							* an integer power which gives an x +j0 result,
                            	  5325: 							* else do 'function call' error
00:00002700 122B0594        	  5326: 	move.b	FAC1_e(a3),d1		* get power exponent
00:00002704 927C0080        	  5327: 	SUB.w		#$80,d1			* normalise to .5
00:00002708 6300E2AC        	  5328: 	BLS		LAB_FCER			* if 0<power<1 then do 'function call' error
                            	  5329: 
                            	  5330: 							* now shift all the integer bits out
00:0000270C 202B0590        	  5331: 	move.l	FAC1_m(a3),d0		* get power mantissa
00:00002710 E3A0            	  5332: 	ASL.l		d1,d0				* shift mantissa
00:00002712 6600E2A2        	  5333: 	BNE		LAB_FCER			* if power<>INT(power) then do 'function call'
                            	  5334: 							* error
                            	  5335: 
00:00002716 6502            	  5336: 	BCS.s		LAB_POWP			* if integer value odd then leave result -ve
                            	  5337: 
00:00002718 1E80            	  5338: 	move.b	d0,(sp)			* save result sign +ve
                            	  5339: LAB_POWP
00:0000271A 2F2B0590        	  5340: 	move.l	FAC1_m(a3),-(sp)		* save power mantissa
00:0000271E 3F2B0594        	  5341: 	MOVE.w	FAC1_e(a3),-(SP)		* save power sign & exponent
                            	  5342: 
00:00002722 6100FC6C        	  5343: 	BSR		LAB_279B			* copy number to FAC1
00:00002726 6100F9D2        	  5344: 	BSR		LAB_LOG			* find log of number
                            	  5345: 
00:0000272A 301F            	  5346: 	MOVE.w	(sp)+,d0			* get power sign & exponent
00:0000272C 275F0598        	  5347: 	move.l	(sp)+,FAC2_m(a3)		* get power mantissa
00:00002730 3740059C        	  5348: 	MOVE.w	d0,FAC2_e(a3)		* save sign & exponent to FAC2
00:00002734 1740059E        	  5349: 	move.b	d0,FAC_sc(a3)		* save sign as sign compare
00:00002738 102B0595        	  5350: 	move.b	FAC1_s(a3),d0		* get FAC1 sign
00:0000273C B12B059E        	  5351: 	EOR.b		d0,FAC_sc(a3)		* make sign compare (FAC1_s EOR FAC2_s)
                            	  5352: 
00:00002740 6100FAAA        	  5353: 	BSR		LAB_MULTIPLY		* multiply by power
00:00002744 6158            	  5354: 	BSR.s		LAB_EXP			* find exponential
00:00002746 175F0595        	  5355: 	move.b	(sp)+,FAC1_s(a3)		* restore number sign
00:0000274A 4E75            	  5356: 	RTS
                            	  5357: 
                            	  5358: * do - FAC1
                            	  5359: 
                            	  5360: LAB_GTHAN
00:0000274C 4A2B0594        	  5361: 	TST.b		FAC1_e(a3)			* test for non zero FAC1
00:00002750 6706            	  5362: 	BEQ.s		RTS_020			* branch if null
                            	  5363: 
00:00002752 0A2B00800595    	  5364: 	EORI.b	#$80,FAC1_s(a3)		* (else) toggle FAC1 sign bit
                            	  5365: RTS_020
00:00002758 4E75            	  5366: 	RTS
                            	  5367: 
                            	  5368: 							* return +1
                            	  5369: LAB_EX1
00:0000275A 277C800000000590	  5370: 	move.l	#$80000000,FAC1_m(a3)	* +1 mantissa
00:00002762 377C81000594    	  5371: 	MOVE.w	#$8100,FAC1_e(a3)		* +1 sign & exponent
00:00002768 4E75            	  5372: 	RTS
                            	  5373: 							* do over/under flow
                            	  5374: LAB_EXOU
00:0000276A 4A2B0595        	  5375: 	TST.b		FAC1_s(a3)			* test sign
00:0000276E 6A00E242        	  5376: 	BPL		LAB_OFER			* was +ve so do overflow error
                            	  5377: 
                            	  5378: 							* else underflow so return zero
00:00002772 7000            	  5379: 	moveq		#0,d0				* clear longword
00:00002774 27400590        	  5380: 	move.l	d0,FAC1_m(a3)		* 0 mantissa
00:00002778 37400594        	  5381: 	MOVE.w	d0,FAC1_e(a3)		* 0 sign & exponent
00:0000277C 4E75            	  5382: 	RTS
                            	  5383: 							* fraction was zero so do 2^n
                            	  5384: LAB_EXOF
00:0000277E 277C800000000590	  5385: 	move.l	#$80000000,FAC1_m(a3)	* +n mantissa
00:00002786 177C00000595    	  5386: 	move.b	#0,FAC1_s(a3)		* clear sign
00:0000278C 4A2B05B4        	  5387: 	TST.b		cosout(a3)			* test sign flag
00:00002790 6A02            	  5388: 	BPL.s		LAB_EXOL			* branch if +ve
                            	  5389: 
00:00002792 4481            	  5390: 	NEG.l		d1				* else do 1/2^n
                            	  5391: LAB_EXOL
00:00002794 D23C0081        	  5392: 	ADD.b		#$81,d1			* adjust exponent
00:00002798 17410594        	  5393: 	move.b	d1,FAC1_e(a3)		* save exponent
00:0000279C 4E75            	  5394: 	RTS
                            	  5395: 
                            	  5396: * perform EXP()	(x^e)
                            	  5397: * valid input range is -88 to +88
                            	  5398: 
                            	  5399: LAB_EXP
00:0000279E 102B0594        	  5400: 	move.b	FAC1_e(a3),d0		* get exponent
00:000027A2 67B6            	  5401: 	BEQ.s		LAB_EX1			* return 1 for zero in
                            	  5402: 
00:000027A4 B03C0064        	  5403: 	CMP.b		#$64,d0			* compare exponent with min
00:000027A8 65B0            	  5404: 	BCS.s		LAB_EX1			* if smaller just return 1
                            	  5405: 
                            	  5406: **	movem.l	d1-d6/a0,-(sp)		* save the registers
00:000027AA 177C000005B4    	  5407: 	move.b	#0,cosout(a3)		* flag +ve number
00:000027B0 222B0590        	  5408: 	move.l	FAC1_m(a3),d1		* get mantissa
00:000027B4 B03C0087        	  5409: 	CMP.b		#$87,d0			* compare exponent with max
00:000027B8 62B0            	  5410: 	BHI.s		LAB_EXOU			* go do over/under flow if greater
                            	  5411: 
00:000027BA 6608            	  5412: 	BNE.s		LAB_EXCM			* branch if less
                            	  5413: 
                            	  5414: 							* else is 2^7
00:000027BC B2BCB00F33C7    	  5415: 	CMP.l		#$B00F33C7,d1		* compare mantissa with n*2^7 max
00:000027C2 64A6            	  5416: 	BCC.s		LAB_EXOU			* if => go over/underflow
                            	  5417: 
                            	  5418: LAB_EXCM
00:000027C4 4A2B0595        	  5419: 	TST.b		FAC1_s(a3)			* test sign
00:000027C8 6A0C            	  5420: 	BPL.s		LAB_EXPS			* branch if arg +ve
                            	  5421: 
00:000027CA 177C00FF05B4    	  5422: 	move.b	#$FF,cosout(a3)		* flag -ve number
00:000027D0 177C00000595    	  5423: 	move.b	#0,FAC1_s(a3)		* take absolute value
                            	  5424: LAB_EXPS
                            	  5425: 							* now do n/LOG(2)
00:000027D6 277CB8AA3B290598	  5426: 	move.l	#$B8AA3B29,FAC2_m(a3)	* 1/LOG(2) mantissa
00:000027DE 377C8100059C    	  5427: 	MOVE.w	#$8100,FAC2_e(a3)		* 1/LOG(2) exponent & sign
00:000027E4 177C0000059E    	  5428: 	move.b	#0,FAC_sc(a3)		* we know they're both +ve
00:000027EA 6100FA00        	  5429: 	BSR		LAB_MULTIPLY		* effectively divide by log(2)
                            	  5430: 
                            	  5431: 							* max here is +/- 127
                            	  5432: 							* now separate integer and fraction
00:000027EE 177C000005D9    	  5433: 	move.b	#0,tpower(a3)		* clear exponent add byte
00:000027F4 1A2B0594        	  5434: 	move.b	FAC1_e(a3),d5		* get exponent
00:000027F8 9A3C0080        	  5435: 	SUB.b		#$80,d5			* normalise
00:000027FC 6324            	  5436: 	BLS.s		LAB_ESML			* branch if < 1 (d5 is 0 or -ve)
                            	  5437: 
                            	  5438: 							* result is > 1
00:000027FE 202B0590        	  5439: 	move.l	FAC1_m(a3),d0		* get mantissa
00:00002802 2200            	  5440: 	move.l	d0,d1				* copy it
00:00002804 2C05            	  5441: 	move.l	d5,d6				* copy normalised exponent
                            	  5442: 
00:00002806 4446            	  5443: 	NEG.w		d6				* make -ve
00:00002808 DC7C0020        	  5444: 	ADD.w		#32,d6			* is now 32-d6
00:0000280C ECA9            	  5445: 	LSR.l		d6,d1				* just integer bits
00:0000280E 174105D9        	  5446: 	move.b	d1,tpower(a3)		* set exponent add byte
                            	  5447: 
00:00002812 EBA8            	  5448: 	LSL.l		d5,d0				* shift out integer bits
00:00002814 6700FF68        	  5449: 	BEQ		LAB_EXOF			* fraction is zero so do 2^n
                            	  5450: 
00:00002818 27400590        	  5451: 	move.l	d0,FAC1_m(a3)		* fraction to FAC1
00:0000281C 377C80000594    	  5452: 	MOVE.w	#$8000,FAC1_e(a3)		* set exponent & sign
                            	  5453: 
                            	  5454: 							* multiple was < 1
                            	  5455: LAB_ESML
00:00002822 277CB17217F80598	  5456: 	move.l	#$B17217F8,FAC2_m(a3)	* LOG(2) mantissa
00:0000282A 377C8000059C    	  5457: 	MOVE.w	#$8000,FAC2_e(a3)		* LOG(2) exponent & sign
00:00002830 177C0000059E    	  5458: 	move.b	#0,FAC_sc(a3)		* clear sign compare
00:00002836 6100F9B4        	  5459: 	BSR		LAB_MULTIPLY		* multiply by log(2)
                            	  5460: 
00:0000283A 202B0590        	  5461: 	move.l	FAC1_m(a3),d0		* get mantissa
00:0000283E 1A2B0594        	  5462: 	move.b	FAC1_e(a3),d5		* get exponent
00:00002842 9A7C0082        	  5463: 	SUB.w		#$82,d5			* normalise and -2 (result is -1 to -30)
00:00002846 4445            	  5464: 	NEG.w		d5				* make +ve
00:00002848 EAA8            	  5465: 	LSR.l		d5,d0				* shift for 2 integer bits
                            	  5466: 
                            	  5467: * d0 = arg
                            	  5468: * d6 = x, d1 = y
                            	  5469: * d2 = x1, d3 = y1
                            	  5470: * d4 = shift count
                            	  5471: * d5 = loop count
                            	  5472: 							* now do cordic set-up
00:0000284A 7200            	  5473: 	moveq		#0,d1				* y = 0
00:0000284C 2C3CE6A3D110    	  5474: 	move.l	#KFCTSEED,d6		* x = 1 with jkh inverse factored out
00:00002852 41FA09FC        	  5475: 	lea		(TAB_HTHET,PC),a0		* get pointer to hyperbolic arctan table
00:00002856 7800            	  5476: 	moveq		#0,d4				* clear shift count
                            	  5477: 
                            	  5478: 							* cordic loop, shifts 4 and 13 (and 39
                            	  5479: 							* if it went that far) need to be repeated
00:00002858 7A03            	  5480: 	moveq		#3,d5				* 4 loops
00:0000285A 6136            	  5481: 	BSR.s		LAB_EXCC			* do loops 1 through 4
00:0000285C 5948            	  5482: 	SUBQ.w	#4,a0				* do table entry again
00:0000285E 5384            	  5483: 	SUBQ.l	#1,d4				* do shift count again
00:00002860 7A09            	  5484: 	moveq		#9,d5				* 10 loops
00:00002862 612E            	  5485: 	BSR.s		LAB_EXCC			* do loops 4 (again) through 13
00:00002864 5948            	  5486: 	SUBQ.w	#4,a0				* do table entry again
00:00002866 5384            	  5487: 	SUBQ.l	#1,d4				* do shift count again
00:00002868 7A12            	  5488: 	moveq		#18,d5			* 19 loops
00:0000286A 6126            	  5489: 	BSR.s		LAB_EXCC			* do loops 13 (again) through 31
                            	  5490: 
                            	  5491: 							* now get the result
00:0000286C 4A2B05B4        	  5492: 	TST.b		cosout(a3)			* test sign flag
00:00002870 6A06            	  5493: 	BPL.s		LAB_EXPL			* branch if +ve
                            	  5494: 
00:00002872 4481            	  5495: 	NEG.l		d1				* do -y
00:00002874 442B05D9        	  5496: 	NEG.b		tpower(a3)			* do -exp
                            	  5497: LAB_EXPL
00:00002878 7083            	  5498: 	moveq		#$83-$100,d0		* set exponent
00:0000287A DC81            	  5499: 	ADD.l		d1,d6				* y = y +/- x
00:0000287C 6B06            	  5500: 	BMI.s		LAB_EXRN			* branch if result normal
                            	  5501: 
                            	  5502: LAB_EXNN
00:0000287E 5380            	  5503: 	SUBQ.l	#1,d0				* decrement exponent
00:00002880 DC86            	  5504: 	ADD.l		d6,d6				* shift mantissa
00:00002882 6AFA            	  5505: 	BPL.s		LAB_EXNN			* loop if not normal
                            	  5506: 
                            	  5507: LAB_EXRN
00:00002884 27460590        	  5508: 	move.l	d6,FAC1_m(a3)		* save exponent result
00:00002888 D02B05D9        	  5509: 	ADD.b		tpower(a3),d0		* add integer part
00:0000288C 17400594        	  5510: 	move.b	d0,FAC1_e(a3)		* save exponent
                            	  5511: **	movem.l	(sp)+,d1-d6/a0		* restore registers
00:00002890 4E75            	  5512: 	RTS
                            	  5513: 
                            	  5514: 							* cordic loop
                            	  5515: LAB_EXCC
00:00002892 5284            	  5516: 	ADDQ.l	#1,d4				* increment shift count
00:00002894 2406            	  5517: 	move.l	d6,d2				* x1 = x
00:00002896 E8A2            	  5518: 	ASR.l		d4,d2				* x1 >> n
00:00002898 2601            	  5519: 	move.l	d1,d3				* y1 = y
00:0000289A E8A3            	  5520: 	ASR.l		d4,d3				* y1 >> n
00:0000289C 4A80            	  5521: 	TST.l		d0				* test arg
00:0000289E 6B0C            	  5522: 	BMI.s		LAB_EXAD			* branch if -ve
                            	  5523: 
00:000028A0 D282            	  5524: 	ADD.l		d2,d1				* y = y + x1
00:000028A2 DC83            	  5525: 	ADD.l		d3,d6				* x = x + y1
00:000028A4 9098            	  5526: 	SUB.l		(a0)+,d0			* arg = arg - atnh(a0)
00:000028A6 51CDFFEA        	  5527: 	DBF		d5,LAB_EXCC			* decrement and loop if not done
                            	  5528: 
00:000028AA 4E75            	  5529: 	RTS
                            	  5530: 
                            	  5531: LAB_EXAD
00:000028AC 9282            	  5532: 	SUB.l		d2,d1				* y = y - x1
00:000028AE 9C83            	  5533: 	SUB.l		d3,d6				* x = x + y1
00:000028B0 D098            	  5534: 	ADD.l		(a0)+,d0			* arg = arg + atnh(a0)
00:000028B2 51CDFFDE        	  5535: 	DBF		d5,LAB_EXCC			* decrement and loop if not done
                            	  5536: 
00:000028B6 4E75            	  5537: 	RTS
                            	  5538: 
                            	  5539: * RND(n), 32 bit Galois version. make n=0 for 19th next number in sequence or n<>0
                            	  5540: * to get 19th next number in sequence after seed n. This version of the PRNG uses
                            	  5541: * the Galois method and a sample of 65536 bytes produced gives the following values.
                            	  5542: 
                            	  5543: * Entropy = 7.997442 bits per byte
                            	  5544: * Optimum compression would reduce these 65536 bytes by 0 percent
                            	  5545: 
                            	  5546: * Chi square distribution for 65536 samples is 232.01, and
                            	  5547: * randomly would exceed this value 75.00 percent of the time
                            	  5548: 
                            	  5549: * Arithmetic mean value of data bytes is 127.6724, 127.5 would be random
                            	  5550: * Monte Carlo value for Pi is 3.122871269, error 0.60 percent
                            	  5551: * Serial correlation coefficient is -0.000370, totally uncorrelated would be 0.0
                            	  5552: 
                            	  5553: LAB_RND
00:000028B8 4A2B0594        	  5554: 	TST.b		FAC1_e(a3)			* get FAC1 exponent
00:000028BC 6708            	  5555: 	BEQ.s		NextPRN			* do next random number if zero
                            	  5556: 
                            	  5557: 							* else get seed into random number store
00:000028BE 41EB05A0        	  5558: 	lea		PRNlword(a3),a0		* set PRNG pointer
00:000028C2 6100FAA6        	  5559: 	BSR		LAB_2778			* pack FAC1 into (a0)
                            	  5560: NextPRN
00:000028C6 72AF            	  5561: 	moveq		#$AF-$100,d1		* set EOR value
00:000028C8 7412            	  5562: 	moveq		#18,d2			* do this 19 times
00:000028CA 202B05A0        	  5563: 	move.l	PRNlword(a3),d0		* get current
                            	  5564: Ninc0
00:000028CE D080            	  5565: 	ADD.l		d0,d0				* shift left 1 bit
00:000028D0 6402            	  5566: 	BCC.s		Ninc1				* branch if bit 32 not set
                            	  5567: 
00:000028D2 B300            	  5568: 	EOR.b		d1,d0				* do Galois LFSR feedback
                            	  5569: Ninc1
00:000028D4 51CAFFF8        	  5570: 	DBF		d2,Ninc0			* loop
                            	  5571: 
00:000028D8 274005A0        	  5572: 	move.l	d0,PRNlword(a3)		* save back to seed word
00:000028DC 27400590        	  5573: 	move.l	d0,FAC1_m(a3)		* copy to FAC1 mantissa
00:000028E0 377C80000594    	  5574: 	MOVE.w	#$8000,FAC1_e(a3)		* set the exponent and clear the sign
00:000028E6 6000F7DC        	  5575: 	BRA		LAB_24D5			* normalise FAC1 & return
                            	  5576: 
                            	  5577: * cordic TAN(x) routine, TAN(x) = SIN(x)/COS(x)
                            	  5578: * x = angle in radians
                            	  5579: 
                            	  5580: LAB_TAN
00:000028EA 6138            	  5581: 	BSR.s		LAB_SIN			* go do SIN/COS cordic compute
00:000028EC 376B0594059C    	  5582: 	MOVE.w	FAC1_e(a3),FAC2_e(a3)	* copy exponent & sign from FAC1 to FAC2
00:000028F2 276B05900598    	  5583: 	move.l	FAC1_m(a3),FAC2_m(a3)	* copy FAC1 mantissa to FAC2 mantissa
00:000028F8 27410590        	  5584: 	move.l	d1,FAC1_m(a3)		* get COS(x) mantissa
00:000028FC 17430594        	  5585: 	move.b	d3,FAC1_e(a3)		* get COS(x) exponent
00:00002900 6700E0B0        	  5586: 	BEQ		LAB_OFER			* do overflow if COS = 0
                            	  5587: 
00:00002904 6100F7BE        	  5588: 	BSR		LAB_24D5			* normalise FAC1
00:00002908 6000F974        	  5589: 	BRA		LAB_DIVIDE			* do FAC2/FAC1 and return, FAC_sc set by SIN
                            	  5590: 							* COS calculation
                            	  5591: 
                            	  5592: * cordic SIN(x), COS(x) routine
                            	  5593: * x = angle in radians
                            	  5594: 
                            	  5595: LAB_COS
00:0000290C 277CC90FDAA30598	  5596: 	move.l	#$C90FDAA3,FAC2_m(a3)	* pi/2 mantissa (LSB is rounded up so
                            	  5597: 							* COS(PI/2)=0)
00:00002914 377C8100059C    	  5598: 	MOVE.w	#$8100,FAC2_e(a3)		* pi/2 exponent and sign
00:0000291A 176B0595059E    	  5599: 	move.b	FAC1_s(a3),FAC_sc(a3)	* sign = FAC1 sign (b7)
00:00002920 6100F726        	  5600: 	BSR		LAB_ADD			* add FAC2 to FAC1, adjust for COS(x)
                            	  5601: 
                            	  5602: * SIN/COS cordic calculator
                            	  5603: 
                            	  5604: LAB_SIN
00:00002924 177C000005B4    	  5605: 	move.b	#0,cosout(a3)		* set needed result
                            	  5606: 
00:0000292A 277CA2F9836F0598	  5607: 	move.l	#$A2F9836F,FAC2_m(a3)	* 1/pi mantissa (LSB is rounded up so SIN(PI)=0)
00:00002932 377C7F00059C    	  5608: 	MOVE.w	#$7F00,FAC2_e(a3)		* 1/pi exponent & sign
00:00002938 176B0595059E    	  5609: 	move.b	FAC1_s(a3),FAC_sc(a3)	* sign = FAC1 sign (b7)
00:0000293E 6100F8AC        	  5610: 	BSR		LAB_MULTIPLY		* multiply by 1/pi
                            	  5611: 
00:00002942 102B0594        	  5612: 	move.b	FAC1_e(a3),d0		* get FAC1 exponent
00:00002946 67000022        	  5613: 	BEQ		LAB_SCZE			* branch if zero
                            	  5614: 
00:0000294A 41FA0804        	  5615: 	lea		(TAB_SNCO,PC),a0		* get pointer to constants table
00:0000294E 2C2B0590        	  5616: 	move.l	FAC1_m(a3),d6		* get FAC1 mantissa
00:00002952 5300            	  5617: 	SUBQ.b	#1,d0				* 2 radians in 360 degrees so /2
00:00002954 67000014        	  5618: 	BEQ		LAB_SCZE			* branch if zero
                            	  5619: 
00:00002958 903C0080        	  5620: 	SUB.b		#$80,d0			* normalise exponent
00:0000295C 6B1A            	  5621: 	BMI.s		LAB_SCL0			* branch if < 1
                            	  5622: 
                            	  5623: 							* X is > 1
00:0000295E B03C0020        	  5624: 	CMP.b		#$20,d0			* is it >= 2^32
00:00002962 64000006        	  5625: 	BCC		LAB_SCZE			* may as well do zero
                            	  5626: 
00:00002966 E1AE            	  5627: 	LSL.l		d0,d6				* shift out integer part bits
00:00002968 6618            	  5628: 	BNE.s		LAB_CORD			* if fraction go test quadrant and adjust
                            	  5629: 
                            	  5630: 							* else no fraction so do zero
                            	  5631: LAB_SCZE
00:0000296A 7481            	  5632: 	moveq		#$81-$100,d2		* set exponent for 1.0
00:0000296C 7600            	  5633: 	moveq		#0,d3				* set exponent for 0.0
00:0000296E 203C80000000    	  5634: 	move.l	#$80000000,d0		* mantissa for 1.0
00:00002974 2203            	  5635: 	move.l	d3,d1				* mantissa for 0.0
00:00002976 6062            	  5636: 	BRA.s		outloop			* go output it
                            	  5637: 
                            	  5638: 							* x is < 1
                            	  5639: LAB_SCL0
00:00002978 4400            	  5640: 	NEG.b		d0				* make +ve
00:0000297A B03C001E        	  5641: 	CMP.b		#$1E,d0			* is it <= 2^-30
00:0000297E 64EA            	  5642: 	BCC.s		LAB_SCZE			* may as well do zero
                            	  5643: 
00:00002980 E0AE            	  5644: 	LSR.l		d0,d6				* shift out <= 2^-32 bits
                            	  5645: 
                            	  5646: * cordic calculator, argument in d6
                            	  5647: * table pointer in a0, returns in d0-d3
                            	  5648: 
                            	  5649: LAB_CORD
00:00002982 176B0595059E    	  5650: 	move.b	FAC1_s(a3),FAC_sc(a3)	* copy as sign compare for TAN
00:00002988 DC86            	  5651: 	ADD.l		d6,d6				* shift 0.5 bit into carry
00:0000298A 6406            	  5652: 	BCC.s		LAB_LTPF			* branch if less than 0.5
                            	  5653: 
00:0000298C 0A2B00FF0595    	  5654: 	EORI.b	#$FF,FAC1_s(a3)		* toggle result sign
                            	  5655: LAB_LTPF
00:00002992 DC86            	  5656: 	ADD.l		d6,d6				* shift 0.25 bit into carry
00:00002994 640C            	  5657: 	BCC.s		LAB_LTPT			* branch if less than 0.25
                            	  5658: 
00:00002996 0A2B00FF05B4    	  5659: 	EORI.b	#$FF,cosout(a3)		* toggle needed result
00:0000299C 0A2B00FF059E    	  5660: 	EORI.b	#$FF,FAC_sc(a3)		* toggle sign compare for TAN
                            	  5661: 
                            	  5662: LAB_LTPT
00:000029A2 E48E            	  5663: 	LSR.l		#2,d6				* shift the bits back (clear integer bits)
00:000029A4 67C4            	  5664: 	BEQ.s		LAB_SCZE			* no fraction so go do zero
                            	  5665: 
                            	  5666: 							* set start values
00:000029A6 7A01            	  5667: 	moveq		#1,d5				* set bit count
00:000029A8 2028FFFC        	  5668: 	move.l	-4(a0),d0			* get multiply constant (1st itteration d0)
00:000029AC 2200            	  5669: 	move.l	d0,d1				* 1st itteration d1
00:000029AE 9C98            	  5670: 	SUB.l		(a0)+,d6			* 1st always +ve so do 1st step
00:000029B0 6008            	  5671: 	BRA.s		mainloop			* jump into routine
                            	  5672: 
                            	  5673: subloop
00:000029B2 9C98            	  5674: 	SUB.l		(a0)+,d6			* z = z - arctan(i)/2pi
00:000029B4 9083            	  5675: 	SUB.l		d3,d0				* x = x - y1
00:000029B6 D282            	  5676: 	ADD.l		d2,d1				* y = y + x1
00:000029B8 6012            	  5677: 	BRA.s		nexta				* back to main loop
                            	  5678: 
                            	  5679: mainloop
00:000029BA 2400            	  5680: 	move.l	d0,d2				* x1 = x
00:000029BC EAA2            	  5681: 	ASR.l		d5,d2				* / (2 ^ i)
00:000029BE 2601            	  5682: 	move.l	d1,d3				* y1 = y
00:000029C0 EAA3            	  5683: 	ASR.l		d5,d3				* / (2 ^ i)
00:000029C2 4A86            	  5684: 	TST.l		d6				* test sign (is 2^0 bit)
00:000029C4 6AEC            	  5685: 	BPL.s		subloop			* go do subtract if > 1
                            	  5686: 
00:000029C6 DC98            	  5687: 	ADD.l		(a0)+,d6			* z = z + arctan(i)/2pi
00:000029C8 D083            	  5688: 	ADD.l		d3,d0				* x = x + y1
00:000029CA 9282            	  5689: 	SUB.l		d2,d1				* y = y + x1
                            	  5690: nexta
00:000029CC 5285            	  5691: 	ADDQ.l	#1,d5				* i = i + 1
00:000029CE BABC0000001E    	  5692: 	CMP.l		#$1E,d5			* check end condition
00:000029D4 66E4            	  5693: 	BNE.s		mainloop			* loop if not all done
                            	  5694: 
                            	  5695: 							* now untangle output value
00:000029D6 7481            	  5696: 	moveq		#$81-$100,d2		* set exponent for 0 to .99 rec.
00:000029D8 2602            	  5697: 	move.l	d2,d3				* copy it for cos output
                            	  5698: outloop
00:000029DA 4A2B05B4        	  5699: 	TST.b		cosout(a3)			* did we want cos output?
00:000029DE 6B04            	  5700: 	BMI.s		subexit			* if so skip
                            	  5701: 
00:000029E0 C141            	  5702: 	EXG		d0,d1				* swap SIN and COS mantissas
00:000029E2 C543            	  5703: 	EXG		d2,d3				* swap SIN and COS exponents
                            	  5704: subexit
00:000029E4 27400590        	  5705: 	move.l	d0,FAC1_m(a3)		* set result mantissa
00:000029E8 17420594        	  5706: 	move.b	d2,FAC1_e(a3)		* set result exponent
00:000029EC 6000F6D6        	  5707: 	BRA		LAB_24D5			* normalise FAC1 & return
                            	  5708: 
                            	  5709: 
                            	  5710: * perform ATN()
                            	  5711: 
                            	  5712: LAB_ATN
00:000029F0 102B0594        	  5713: 	move.b	FAC1_e(a3),d0		* get FAC1 exponent
00:000029F4 670000AC        	  5714: 	BEQ		RTS_021			* ATN(0) = 0 so skip calculation
                            	  5715: 
00:000029F8 177C000005B4    	  5716: 	move.b	#0,cosout(a3)		* set result needed
00:000029FE B03C0081        	  5717: 	CMP.b		#$81,d0			* compare exponent with 1
00:00002A02 6528            	  5718: 	BCS.s		LAB_ATLE			* branch if n<1
                            	  5719: 
00:00002A04 6608            	  5720: 	BNE.s		LAB_ATGO			* branch if n>1
                            	  5721: 
00:00002A06 202B0590        	  5722: 	move.l	FAC1_m(a3),d0		* get mantissa
00:00002A0A D080            	  5723: 	ADD.l		d0,d0				* shift left
00:00002A0C 671E            	  5724: 	BEQ.s		LAB_ATLE			* branch if n=1
                            	  5725: 
                            	  5726: LAB_ATGO
00:00002A0E 277C800000000598	  5727: 	move.l	#$80000000,FAC2_m(a3)	* set mantissa for 1
00:00002A16 377C8100059C    	  5728: 	MOVE.w	#$8100,FAC2_e(a3)		* set exponent for 1
00:00002A1C 176B0595059E    	  5729: 	move.b	FAC1_s(a3),FAC_sc(a3)	* sign compare = sign
00:00002A22 6100F85A        	  5730: 	BSR		LAB_DIVIDE			* do 1/n
00:00002A26 177C00FF05B4    	  5731: 	move.b	#$FF,cosout(a3)		* set inverse result needed
                            	  5732: LAB_ATLE
00:00002A2C 202B0590        	  5733: 	move.l	FAC1_m(a3),d0		* get FAC1 mantissa
00:00002A30 7282            	  5734: 	moveq		#$82,d1			* set to correct exponent
00:00002A32 922B0594        	  5735: 	SUB.b		FAC1_e(a3),d1		* subtract FAC1 exponent (always <= 1)
00:00002A36 E2A8            	  5736: 	LSR.l		d1,d0				* shift in two integer part bits
00:00002A38 41FA0796        	  5737: 	lea		(TAB_ATNC,PC),a0		* get pointer to arctan table
00:00002A3C 7C00            	  5738: 	moveq		#0,d6				* Z = 0
00:00002A3E 223C40000000    	  5739: 	move.l	#1<<30,d1			* y = 1
00:00002A44 7A1D            	  5740: 	moveq		#29,d5			* loop 30 times
00:00002A46 7801            	  5741: 	moveq		#1,d4				* shift counter
00:00002A48 6006            	  5742: 	BRA.s		LAB_ATCD			* enter loop
                            	  5743: 
                            	  5744: LAB_ATNP
00:00002A4A E8A2            	  5745: 	ASR.l		d4,d2				* x1 / 2^i
00:00002A4C D282            	  5746: 	ADD.l		d2,d1				* y = y + x1
00:00002A4E DC90            	  5747: 	ADD.l		(a0),d6			* z = z + atn(i)
                            	  5748: LAB_ATCD
00:00002A50 2400            	  5749: 	move.l	d0,d2				* x1 = x
00:00002A52 2601            	  5750: 	move.l	d1,d3				* y1 = y
00:00002A54 E8A3            	  5751: 	ASR.l		d4,d3				* y1 / 2^i
                            	  5752: LAB_CATN
00:00002A56 9083            	  5753: 	SUB.l		d3,d0				* x = x - y1
00:00002A58 6AF0            	  5754: 	BPL.s		LAB_ATNP			* branch if x >= 0
                            	  5755: 
00:00002A5A 2002            	  5756: 	move.l	d2,d0				* else get x back
00:00002A5C 5848            	  5757: 	ADDQ.w	#4,a0				* increment pointer
00:00002A5E 5284            	  5758: 	ADDQ.l	#1,d4				* increment i
00:00002A60 E283            	  5759: 	ASR.l		#1,d3				* y1 / 2^i
00:00002A62 51CDFFF2        	  5760: 	DBF		d5,LAB_CATN			* decrement and loop if not done
                            	  5761: 
00:00002A66 177C00820594    	  5762: 	move.b	#$82,FAC1_e(a3)		* set new exponent
00:00002A6C 27460590        	  5763: 	move.l	d6,FAC1_m(a3)		* save mantissa
00:00002A70 6100F652        	  5764: 	BSR		LAB_24D5			* normalise FAC1
                            	  5765: 
00:00002A74 4A2B05B4        	  5766: 	TST.b		cosout(a3)			* was it > 1 ?
00:00002A78 6A000028        	  5767: 	BPL		RTS_021			* branch if not
                            	  5768: 
00:00002A7C 1E2B0595        	  5769: 	move.b	FAC1_s(a3),d7		* get sign
00:00002A80 177C00000595    	  5770: 	move.b	#0,FAC1_s(a3)		* clear sign
00:00002A86 277CC90FDAA20598	  5771: 	move.l	#$C90FDAA2,FAC2_m(a3)	* set -(pi/2)
00:00002A8E 377C8180059C    	  5772: 	MOVE.w	#$8180,FAC2_e(a3)		* set exponent and sign
00:00002A94 177C00FF059E    	  5773: 	move.b	#$FF,FAC_sc(a3)		* set sign compare
00:00002A9A 6100F5AC        	  5774: 	BSR		LAB_ADD			* perform addition, FAC2 to FAC1
00:00002A9E 17470595        	  5775: 	move.b	d7,FAC1_s(a3)		* restore sign
                            	  5776: RTS_021
00:00002AA2 4E75            	  5777: 	RTS
                            	  5778: 
                            	  5779: * perform BITSET
                            	  5780: 
                            	  5781: LAB_BITSET
00:00002AA4 6100F484        	  5782: 	BSR		LAB_GADB			* get two parameters for POKE or WAIT
                            	  5783: 							* first parameter in a0, second in d0
00:00002AA8 B03C0008        	  5784: 	CMP.b		#$08,d0			* only 0 to 7 are allowed
00:00002AAC 6400DF08        	  5785: 	BCC		LAB_FCER			* branch if > 7
                            	  5786: 
00:00002AB0 01D0            	  5787: 	BSET		d0,(a0)			* set bit
00:00002AB2 4E75            	  5788: 	RTS
                            	  5789: 
                            	  5790: * perform BITCLR
                            	  5791: 
                            	  5792: LAB_BITCLR
00:00002AB4 6100F474        	  5793: 	BSR		LAB_GADB			* get two parameters for POKE or WAIT
                            	  5794: 							* first parameter in a0, second in d0
00:00002AB8 B03C0008        	  5795: 	CMP.b		#$08,d0			* only 0 to 7 are allowed
00:00002ABC 6400DEF8        	  5796: 	BCC		LAB_FCER			* branch if > 7
                            	  5797: 
00:00002AC0 0190            	  5798: 	BCLR		d0,(a0)			* clear bit
00:00002AC2 4E75            	  5799: 	RTS
                            	  5800: 
                            	  5801: * perform BITTST()
                            	  5802: 
                            	  5803: LAB_BTST
00:00002AC4 101D            	  5804: 	move.b	(a5)+,d0			* increment BASIC pointer
00:00002AC6 6100F462        	  5805: 	BSR		LAB_GADB			* get two parameters for POKE or WAIT
                            	  5806: 							* first parameter in a0, second in d0
00:00002ACA B03C0008        	  5807: 	CMP.b		#$08,d0			* only 0 to 7 are allowed
00:00002ACE 6400DEE6        	  5808: 	BCC		LAB_FCER			* branch if > 7
                            	  5809: 
00:00002AD2 2200            	  5810: 	move.l	d0,d1				* copy bit # to test
00:00002AD4 6100EA96        	  5811: 	BSR		LAB_GBYT			* get next BASIC byte
00:00002AD8 B03C0029        	  5812: 	CMP.b		#')',d0			* is next character ")"
00:00002ADC 6600DEE4        	  5813: 	BNE		LAB_SNER			* if not ")" go do syntax error, then warm start
                            	  5814: 
00:00002AE0 6100EA88        	  5815: 	BSR		LAB_IGBY			* update execute pointer (to character past ")")
00:00002AE4 7000            	  5816: 	moveq		#0,d0				* set the result as zero
00:00002AE6 0310            	  5817: 	BTST		d1,(a0)			* test bit
00:00002AE8 6700F8FA        	  5818: 	BEQ		LAB_27DB			* branch if zero (already correct)
                            	  5819: 
00:00002AEC 70FF            	  5820: 	moveq		#-1,d0			* set for -1 result
00:00002AEE 6000F8F4        	  5821: 	BRA		LAB_27DB			* go do SGN tail
                            	  5822: 
                            	  5823: * perform BIN$()
                            	  5824: * # of leading 0s is in d1, the number is in d0
                            	  5825: 
                            	  5826: LAB_BINS
00:00002AF2 B23C0021        	  5827: 	CMP.b		#$21,d1			* max + 1
00:00002AF6 6400DEBE        	  5828: 	BCC		LAB_FCER			* exit if too big ( > or = )
                            	  5829: 
00:00002AFA 741F            	  5830: 	moveq		#$1F,d2			* bit count-1
00:00002AFC 41EB05B6        	  5831: 	lea		Binss(a3),a0		* point to string
00:00002B00 7830            	  5832: 	moveq		#$30,d4			* "0" character for ADDX
                            	  5833: NextB1
00:00002B02 7600            	  5834: 	moveq		#0,d3				* clear byte
00:00002B04 E288            	  5835: 	LSR.l		#1,d0				* shift bit into Xb
00:00002B06 D704            	  5836: 	ADDX.b	d4,d3				* add carry and character to zero
00:00002B08 11832000        	  5837: 	move.b	d3,(a0,d2.w)		* save character to string
00:00002B0C 51CAFFF4        	  5838: 	DBF		d2,NextB1			* decrement and loop if not done
                            	  5839: 
                            	  5840: * this is the exit code and is also used by HEX$()
                            	  5841: 
                            	  5842: EndBHS
00:00002B10 177C000005D6    	  5843: 	move.b	#0,BHsend(a3)		* null terminate the string
00:00002B16 4A01            	  5844: 	TST.b		d1				* test # of characters
00:00002B18 670E            	  5845: 	BEQ.s		NextB2			* go truncate string
                            	  5846: 
00:00002B1A 4481            	  5847: 	NEG.l		d1				* make -ve
00:00002B1C D2BC000005D6    	  5848: 	ADD.l		#BHsend,d1			* effectively (end-length)
00:00002B22 41F31000        	  5849: 	lea		0(a3,d1.w),a0		* effectively add (end-length) to pointer
00:00002B26 600E            	  5850: 	BRA.s		BinPr				* go print string
                            	  5851: 
                            	  5852: * truncate string to remove leading "0"s
                            	  5853: 
                            	  5854: NextB2
00:00002B28 1010            	  5855: 	move.b	(a0),d0			* get byte
00:00002B2A 670A            	  5856: 	BEQ.s		BinPr				* if null then end of string so add 1 and go
                            	  5857: 							* print it
                            	  5858: 
00:00002B2C B03C0030        	  5859: 	CMP.b		#'0',d0			* compare with "0"
00:00002B30 660E            	  5860: 	BNE.s		GoPr				* if not "0" then go print string from here
                            	  5861: 
00:00002B32 5248            	  5862: 	ADDQ.w	#1,a0				* else increment pointer
00:00002B34 60F2            	  5863: 	BRA.s		NextB2			* loop always
                            	  5864: 
                            	  5865: * make fixed length output string - ignore overflows!
                            	  5866: 
                            	  5867: BinPr
00:00002B36 43EB05D6        	  5868: 	lea		BHsend(a3),a1		* get string end
00:00002B3A B1C9            	  5869: 	CMPA.l	a1,a0				* are we at the string end
00:00002B3C 6602            	  5870: 	BNE.s		GoPr				* branch if not
                            	  5871: 
00:00002B3E 5348            	  5872: 	SUBQ.w	#1,a0				* else need at least one zero
                            	  5873: GoPr
00:00002B40 6000F046        	  5874: 	BRA		LAB_20AE			* print " terminated string to FAC1, stack & RET
                            	  5875: 
                            	  5876: * perform HEX$()
                            	  5877: * # of leading 0s is in d1, the number is in d0
                            	  5878: 
                            	  5879: LAB_HEXS
00:00002B44 B23C0009        	  5880: 	CMP.b		#$09,d1			* max + 1
00:00002B48 6400DE6C        	  5881: 	BCC		LAB_FCER			* exit if too big ( > or = )
                            	  5882: 
00:00002B4C 7407            	  5883: 	moveq		#$07,d2			* nibble count-1
00:00002B4E 41EB05CE        	  5884: 	lea		Hexss(a3),a0		* point to string
00:00002B52 7830            	  5885: 	moveq		#$30,d4			* "0" character for ABCD
                            	  5886: NextH1
00:00002B54 1600            	  5887: 	move.b	d0,d3				* copy lowest byte
00:00002B56 E898            	  5888: 	ROR.l		#4,d0				* shift nibble into 0-3
00:00002B58 C63C000F        	  5889: 	AND.b		#$0F,d3			* just this nibble
00:00002B5C 1A03            	  5890: 	move.b	d3,d5				* copy it
00:00002B5E DA3C00F6        	  5891: 	ADD.b		#$F6,d5			* set extend bit
00:00002B62 C704            	  5892: 	ABCD		d4,d3				* decimal add extend and character to zero
00:00002B64 11832000        	  5893: 	move.b	d3,(a0,d2.w)		* save character to string
00:00002B68 51CAFFEA        	  5894: 	DBF		d2,NextH1			* decrement and loop if not done
                            	  5895: 
00:00002B6C 60A2            	  5896: 	BRA.s		EndBHS			* go process string
                            	  5897: 
                            	  5898: * ctrl-c check routine. includes limited "life" byte save for INGET routine
                            	  5899: 
                            	  5900: VEC_CC
00:00002B6E 4A2B05E8        	  5901: 	TST.b		ccflag(a3)			* check [CTRL-C] check flag
00:00002B72 661E            	  5902: 	BNE.s		RTS_022			* exit if [CTRL-C] check inhibited
                            	  5903: 
00:00002B74 4EAB040C        	  5904: 	JSR		V_INPT(a3)			* scan input device
00:00002B78 640E            	  5905: 	BCC.s		LAB_FBA0			* exit if buffer empty
                            	  5906: 
00:00002B7A 174005E9        	  5907: 	move.b	d0,ccbyte(a3)		* save received byte
00:00002B7E 177C002005EA    	  5908: 	move.b	#$20,ccnull(a3)		* set "life" timer for bytes countdown
00:00002B84 6000E258        	  5909: 	BRA		LAB_1636			* return to BASIC
                            	  5910: 
                            	  5911: LAB_FBA0
00:00002B88 4A2B05EA        	  5912: 	TST.b		ccnull(a3)			* get countdown byte
00:00002B8C 6704            	  5913: 	BEQ.s		RTS_022			* exit if finished
                            	  5914: 
00:00002B8E 532B05EA        	  5915: 	SUBQ.b	#1,ccnull(a3)		* else decrement countdown
                            	  5916: RTS_022
00:00002B92 4E75            	  5917: 	RTS
                            	  5918: 
                            	  5919: * get byte from input device, no waiting
                            	  5920: * returns with carry set if byte in A
                            	  5921: 
                            	  5922: INGET
00:00002B94 4EAB040C        	  5923: 	JSR		V_INPT(a3)			* call scan input device
00:00002B98 650A            	  5924: 	BCS.s		LAB_FB95			* if byte go reset timer
                            	  5925: 
00:00002B9A 102B05EA        	  5926: 	move.b	ccnull(a3),d0		* get countdown
00:00002B9E 67F2            	  5927: 	BEQ.s		RTS_022			* exit if empty
                            	  5928: 
00:00002BA0 102B05E9        	  5929: 	move.b	ccbyte(a3),d0		* get last received byte
                            	  5930: LAB_FB95
00:00002BA4 177C000005EA    	  5931: 	move.b	#$00,ccnull(a3)		* clear timer because we got a byte
00:00002BAA 003C0001        	  5932: 	ORI.b		#1,CCR			* set carry, flag we got a byte
00:00002BAE 4E75            	  5933: 	RTS
                            	  5934: 
                            	  5935: * perform MAX()
                            	  5936: 
                            	  5937: LAB_MAX
00:00002BB0 6100E856        	  5938: 	BSR		LAB_EVEZ			* evaluate expression (no decrement)
00:00002BB4 4A2B05B5        	  5939: 	TST.b		Dtypef(a3)			* test data type
00:00002BB8 6B00DDDC        	  5940: 	BMI		LAB_TMER			* if string do Type missmatch Error/warm start
                            	  5941: 
                            	  5942: LAB_MAXN
00:00002BBC 612E            	  5943: 	BSR.s		LAB_PHFA			* push FAC1, evaluate expression,
                            	  5944: 							* pull FAC2 & compare with FAC1
00:00002BBE 64FC            	  5945: 	BCC.s		LAB_MAXN			* branch if no swap to do
                            	  5946: 
00:00002BC0 6100F7CE        	  5947: 	BSR		LAB_279B			* copy FAC2 to FAC1
00:00002BC4 60F6            	  5948: 	BRA.s		LAB_MAXN			* go do next
                            	  5949: 
                            	  5950: * perform MIN()
                            	  5951: 
                            	  5952: LAB_MIN
00:00002BC6 6100E840        	  5953: 	BSR		LAB_EVEZ			* evaluate expression (no decrement)
00:00002BCA 4A2B05B5        	  5954: 	TST.b		Dtypef(a3)			* test data type
00:00002BCE 6B00DDC6        	  5955: 	BMI		LAB_TMER			* if string do Type missmatch Error/warm start
                            	  5956: 
                            	  5957: LAB_MINN
00:00002BD2 6118            	  5958: 	BSR.s		LAB_PHFA			* push FAC1, evaluate expression,
                            	  5959: 							* pull FAC2 & compare with FAC1
00:00002BD4 63FC            	  5960: 	BLS.s		LAB_MINN			* branch if no swap to do
                            	  5961: 
00:00002BD6 6100F7B8        	  5962: 	BSR		LAB_279B			* copy FAC2 to FAC1
00:00002BDA 60F6            	  5963: 	BRA.s		LAB_MINN			* go do next (branch always)
                            	  5964: 
                            	  5965: * exit routine. don't bother returning to the loop code
                            	  5966: * check for correct exit, else so syntax error
                            	  5967: 
                            	  5968: LAB_MMEC
00:00002BDC B03C0029        	  5969: 	CMP.b		#')',d0			* is it end of function?
00:00002BE0 6600DDE0        	  5970: 	BNE		LAB_SNER			* if not do MAX MIN syntax error
                            	  5971: 
00:00002BE4 4FEF0004        	  5972: 	lea		4(sp),sp			* dump return address (faster)
00:00002BE8 6000E980        	  5973: 	BRA		LAB_IGBY			* update BASIC execute pointer (to chr past ")")
                            	  5974: 							* and return
                            	  5975: 
                            	  5976: * check for next, evaluate & return or exit
                            	  5977: * this is the routine that does most of the work
                            	  5978: 
                            	  5979: LAB_PHFA
00:00002BEC 6100E97E        	  5980: 	BSR		LAB_GBYT			* get next BASIC byte
00:00002BF0 B03C002C        	  5981: 	CMP.b		#',',d0			* is there more ?
00:00002BF4 66E6            	  5982: 	BNE.s		LAB_MMEC			* if not go do end check
                            	  5983: 
00:00002BF6 3F2B0594        	  5984: 	MOVE.w	FAC1_e(a3),-(sp)		* push exponent and sign
00:00002BFA 2F2B0590        	  5985: 	move.l	FAC1_m(a3),-(sp)		* push mantissa
                            	  5986: 
00:00002BFE 6100E808        	  5987: 	BSR		LAB_EVEZ			* evaluate expression (no decrement)
00:00002C02 4A2B05B5        	  5988: 	TST.b		Dtypef(a3)			* test data type
00:00002C06 6B00DD8E        	  5989: 	BMI		LAB_TMER			* if string do Type missmatch Error/warm start
                            	  5990: 
                            	  5991: 
                            	  5992: 							* pop FAC2 (MAX/MIN expression so far)
00:00002C0A 275F0598        	  5993: 	move.l	(sp)+,FAC2_m(a3)		* pop mantissa
                            	  5994: 
00:00002C0E 301F            	  5995: 	MOVE.w	(sp)+,d0			* pop exponent and sign
00:00002C10 3740059C        	  5996: 	MOVE.w	d0,FAC2_e(a3)		* save exponent and sign
00:00002C14 176B0595059E    	  5997: 	move.b	FAC1_s(a3),FAC_sc(a3)	* get FAC1 sign
00:00002C1A B12B059E        	  5998: 	EOR.b		d0,FAC_sc(a3)		* EOR to create sign compare
00:00002C1E 6000F7DC        	  5999: 	BRA		LAB_27FA			* compare FAC1 with FAC2 & return
                            	  6000: 							* returns d0=+1 Cb=0 if FAC1 > FAC2
                            	  6001: 							* returns d0= 0 Cb=0 if FAC1 = FAC2
                            	  6002: 							* returns d0=-1 Cb=1 if FAC1 < FAC2
                            	  6003: 
                            	  6004: * perform WIDTH
                            	  6005: 
                            	  6006: LAB_WDTH
00:00002C22 B03C002C        	  6007: 	CMP.b		#',',d0			* is next byte ","
00:00002C26 672C            	  6008: 	BEQ.s		LAB_TBSZ			* if so do tab size
                            	  6009: 
00:00002C28 6100F2AA        	  6010: 	BSR		LAB_GTBY			* get byte parameter, result in d0 and Itemp
00:00002C2C 4A00            	  6011: 	TST.b		d0				* test result
00:00002C2E 6712            	  6012: 	BEQ.s		LAB_NSTT			* branch if set for infinite line
                            	  6013: 
00:00002C30 B03C0010        	  6014: 	CMP.b		#$10,d0			* else make min width = 16d
00:00002C34 6500DD80        	  6015: 	BCS		LAB_FCER			* if less do function call error & exit
                            	  6016: 
                            	  6017: * this next compare ensures that we can't exit WIDTH via an error leaving the
                            	  6018: * tab size greater than the line length.
                            	  6019: 
00:00002C38 B02B05E2        	  6020: 	CMP.b		TabSiz(a3),d0		* compare with tab size
00:00002C3C 6404            	  6021: 	BCC.s		LAB_NSTT			* branch if >= tab size
                            	  6022: 
00:00002C3E 174005E2        	  6023: 	move.b	d0,TabSiz(a3)		* else make tab size = terminal width
                            	  6024: LAB_NSTT
00:00002C42 174005E6        	  6025: 	move.b	d0,TWidth(a3)		* set the terminal width
00:00002C46 6100E924        	  6026: 	BSR		LAB_GBYT			* get BASIC byte back
00:00002C4A 672C            	  6027: 	BEQ.s		WExit				* exit if no following
                            	  6028: 
00:00002C4C B03C002C        	  6029: 	CMP.b		#',',d0			* else is it ","
00:00002C50 6600DD70        	  6030: 	BNE		LAB_SNER			* if not do syntax error
                            	  6031: 
                            	  6032: LAB_TBSZ
00:00002C54 6100F27A        	  6033: 	BSR		LAB_SGBY			* increment and get byte, result in d0 and Itemp
00:00002C58 4A00            	  6034: 	TST.b		d0				* test TAB size
00:00002C5A 6B00DD5A        	  6035: 	BMI		LAB_FCER			* if >127 do function call error & exit
                            	  6036: 
00:00002C5E B03C0001        	  6037: 	CMP.b		#1,d0				* compare with min-1
00:00002C62 6500DD52        	  6038: 	BCS		LAB_FCER			* if <=1 do function call error & exit
                            	  6039: 
00:00002C66 122B05E6        	  6040: 	move.b	TWidth(a3),d1		* set flags for width
00:00002C6A 6708            	  6041: 	BEQ.s		LAB_SVTB			* skip check if infinite line
                            	  6042: 
00:00002C6C B02B05E6        	  6043: 	CMP.b		TWidth(a3),d0		* compare TAB with width
00:00002C70 6E00DD44        	  6044: 	BGT		LAB_FCER			* branch if too big
                            	  6045: 
                            	  6046: LAB_SVTB
00:00002C74 174005E2        	  6047: 	move.b	d0,TabSiz(a3)		* save TAB size
                            	  6048: 
                            	  6049: * calculate tab column limit from TAB size. The Iclim is set to the last tab
                            	  6050: * position on a line that still has at least one whole tab width between it
                            	  6051: * and the end of the line.
                            	  6052: 
                            	  6053: WExit
00:00002C78 102B05E6        	  6054: 	move.b	TWidth(a3),d0		* get width
00:00002C7C 670A            	  6055: 	BEQ.s		LAB_WDLP			* branch if infinite line
                            	  6056: 
00:00002C7E B02B05E2        	  6057: 	CMP.b		TabSiz(a3),d0		* compare with tab size
00:00002C82 6404            	  6058: 	BCC.s		LAB_WDLP			* branch if >= tab size
                            	  6059: 
00:00002C84 174005E2        	  6060: 	move.b	d0,TabSiz(a3)		* else make tab size = terminal width
                            	  6061: LAB_WDLP
00:00002C88 902B05E2        	  6062: 	SUB.b		TabSiz(a3),d0		* subtract tab size
00:00002C8C 64FA            	  6063: 	BCC.s		LAB_WDLP			* loop while no borrow
                            	  6064: 
00:00002C8E D02B05E2        	  6065: 	ADD.b		TabSiz(a3),d0		* add tab size back
00:00002C92 D02B05E2        	  6066: 	ADD.b		TabSiz(a3),d0		* add tab size back again
                            	  6067: 
00:00002C96 4400            	  6068: 	NEG.b		d0				* make -ve
00:00002C98 D02B05E6        	  6069: 	ADD.b		TWidth(a3),d0		* subtract remainder from width
00:00002C9C 174005E7        	  6070: 	move.b	d0,Iclim(a3)		* save tab column limit
                            	  6071: RTS_023
00:00002CA0 4E75            	  6072: 	RTS
                            	  6073: 
                            	  6074: * perform SQR()
                            	  6075: 
                            	  6076: * d0 is number to find the root of
                            	  6077: * d1 is the root result
                            	  6078: * d2 is the remainder
                            	  6079: * d3 is a counter
                            	  6080: * d4 is temp
                            	  6081: 
                            	  6082: LAB_SQR
00:00002CA2 4A2B0595        	  6083: 	TST.b		FAC1_s(a3)			* test FAC1 sign
00:00002CA6 6B00DD0E        	  6084: 	BMI		LAB_FCER			* if -ve do function call error
                            	  6085: 
00:00002CAA 4A2B0594        	  6086: 	TST.b		FAC1_e(a3)			* test exponent
00:00002CAE 67F0            	  6087: 	BEQ.s		RTS_023			* exit if zero
                            	  6088: 
00:00002CB0 48E77800        	  6089: 	movem.l	d1-d4,-(sp)			* save registers
00:00002CB4 202B0590        	  6090: 	move.l	FAC1_m(a3),d0		* copy FAC1
00:00002CB8 7400            	  6091: 	moveq		#0,d2				* clear remainder
00:00002CBA 2202            	  6092: 	move.l	d2,d1				* clear root
                            	  6093: 
00:00002CBC 761F            	  6094: 	moveq		#$1F,d3			* $1F for DBF, 64 pairs of bits to
                            	  6095: 							* do for a 32 bit result
00:00002CBE 082B00000594    	  6096: 	BTST		#0,FAC1_e(a3)		* test exponent odd/even
00:00002CC4 6606            	  6097: 	BNE.s		LAB_SQE2			* if odd only 1 shift first time
                            	  6098: 
                            	  6099: LAB_SQE1
00:00002CC6 D080            	  6100: 	ADD.l		d0,d0				* shift highest bit of number ..
00:00002CC8 D582            	  6101: 	ADDX.l	d2,d2				* .. into remainder .. never overflows
00:00002CCA D281            	  6102: 	ADD.l		d1,d1				* root = root * 2 .. never overflows
                            	  6103: LAB_SQE2
00:00002CCC D080            	  6104: 	ADD.l		d0,d0				* shift highest bit of number ..
00:00002CCE D582            	  6105: 	ADDX.l	d2,d2				* .. into remainder .. never overflows
                            	  6106: 
00:00002CD0 2801            	  6107: 	move.l	d1,d4				* copy root
00:00002CD2 D884            	  6108: 	ADD.l		d4,d4				* 2n
00:00002CD4 5284            	  6109: 	ADDQ.l	#1,d4				* 2n+1
                            	  6110: 
00:00002CD6 B484            	  6111: 	CMP.l		d4,d2				* compare 2n+1 to remainder
00:00002CD8 6504            	  6112: 	BCS.s		LAB_SQNS			* skip sub if remainder smaller
                            	  6113: 
00:00002CDA 9484            	  6114: 	SUB.l		d4,d2				* subtract temp from remainder
00:00002CDC 5281            	  6115: 	ADDQ.l	#1,d1				* increment root
                            	  6116: LAB_SQNS
00:00002CDE 51CBFFE6        	  6117: 	DBF		d3,LAB_SQE1			* loop if not all done
                            	  6118: 
00:00002CE2 27410590        	  6119: 	move.l	d1,FAC1_m(a3)		* save result mantissa
00:00002CE6 102B0594        	  6120: 	move.b	FAC1_e(a3),d0		* get exponent (d0 is clear here)
00:00002CEA 907C0080        	  6121: 	SUB.w		#$80,d0			* normalise
00:00002CEE E248            	  6122: 	LSR.w		#1,d0				* /2
00:00002CF0 6402            	  6123: 	BCC.s		LAB_SQNA			* skip increment if carry clear
                            	  6124: 
00:00002CF2 5240            	  6125: 	ADDQ.w	#1,d0				* add bit zero back in (allow for half shift)
                            	  6126: LAB_SQNA
00:00002CF4 D07C0080        	  6127: 	ADD.w		#$80,d0			* re-bias to $80
00:00002CF8 17400594        	  6128: 	move.b	d0,FAC1_e(a3)		* save it
00:00002CFC 4CDF001E        	  6129: 	movem.l	(sp)+,d1-d4			* restore registers
00:00002D00 6000F3C2        	  6130: 	BRA		LAB_24D5			* normalise FAC1 & return
                            	  6131: 
                            	  6132: * perform VARPTR()
                            	  6133: 
                            	  6134: LAB_VARPTR
00:00002D04 101D            	  6135: 	move.b	(a5)+,d0			* increment pointer
00:00002D06 6100EA66        	  6136: 	BSR		LAB_GVAR			* get variable address in a0
00:00002D0A 6100E84C        	  6137: 	BSR		LAB_1BFB			* scan for ")" , else do syntax error/warm start
00:00002D0E 2008            	  6138: 	move.l	a0,d0				* get var address
00:00002D10 6000ED54        	  6139: 	BRA		LAB_AYFC			* convert d0 to signed longword in FAC1 & return
                            	  6140: 
                            	  6141: * perform RAMBASE
                            	  6142: 
                            	  6143: LAB_RAM
00:00002D14 41EB0400        	  6144: 	lea		ram_base(a3),a0		* get start of EhBASIC RAM
00:00002D18 2008            	  6145: 	move.l	a0,d0				* copy it
00:00002D1A 6000ED4A        	  6146: 	BRA		LAB_AYFC			* convert d0 to signed longword in FAC1 & return
                            	  6147: 
                            	  6148: * perform PI
                            	  6149: 
                            	  6150: LAB_PI
00:00002D1E 277CC90FDAA20590	  6151: 	move.l	#$C90FDAA2,FAC1_m(a3)	* pi mantissa (32 bit)
00:00002D26 377C82000594    	  6152: 	MOVE.w	#$8200,FAC1_e(a3)		* pi exponent and sign
00:00002D2C 4E75            	  6153: 	RTS
                            	  6154: 
                            	  6155: * perform TWOPI
                            	  6156: 
                            	  6157: LAB_TWOPI
00:00002D2E 277CC90FDAA20590	  6158: 	move.l	#$C90FDAA2,FAC1_m(a3)	* 2pi mantissa (32 bit)
00:00002D36 377C83000594    	  6159: 	MOVE.w	#$8300,FAC1_e(a3)		* 2pi exponent and sign
00:00002D3C 4E75            	  6160: 	RTS
                            	  6161: 
                            	  6162: * get ASCII string equivalent into FAC1 as integer32 or float
                            	  6163: 
                            	  6164: * entry is with a5 pointing to the first character of the string
                            	  6165: * exit with a5 pointing to the first character after the string
                            	  6166: 
                            	  6167: * d0 is character
                            	  6168: * d1 is mantissa
                            	  6169: * d2 is partial and table mantissa
                            	  6170: * d3 is mantissa exponent (decimal & binary)
                            	  6171: * d4 is decimal exponent
                            	  6172: 
                            	  6173: * get FAC1 from string
                            	  6174: * this routine now handles hex and binary values from strings
                            	  6175: * starting with "$" and "%" respectively
                            	  6176: 
                            	  6177: LAB_2887
00:00002D3E 48E77C00        	  6178: 	movem.l	d1-d5,-(sp)			* save registers
00:00002D42 7200            	  6179: 	moveq		#$00,d1			* clear temp accumulator
00:00002D44 2601            	  6180: 	move.l	d1,d3				* set mantissa decimal exponent count
00:00002D46 2801            	  6181: 	move.l	d1,d4				* clear decimal exponent
00:00002D48 17410595        	  6182: 	move.b	d1,FAC1_s(a3)		* clear sign byte
00:00002D4C 174105B5        	  6183: 	move.b	d1,Dtypef(a3)		* set float data type
00:00002D50 174105AF        	  6184: 	move.b	d1,expneg(a3)		* clear exponent sign
00:00002D54 6100E816        	  6185: 	BSR		LAB_GBYT			* get first byte back
00:00002D58 653C            	  6186: 	BCS.s		LAB_28FE			* go get floating if 1st character numeric
                            	  6187: 
00:00002D5A B03C002D        	  6188: 	CMP.b		#'-',d0			* or is it -ve number
00:00002D5E 6608            	  6189: 	BNE.s		LAB_289A			* branch if not
                            	  6190: 
00:00002D60 177C00FF0595    	  6191: 	move.b	#$FF,FAC1_s(a3)		* set sign byte
00:00002D66 6006            	  6192: 	BRA.s		LAB_289C			* now go scan & check for hex/bin/int
                            	  6193: 
                            	  6194: LAB_289A
                            	  6195: 							* first character wasn't numeric or -
00:00002D68 B03C002B        	  6196: 	CMP.b		#'+',d0			* compare with '+'
00:00002D6C 6606            	  6197: 	BNE.s		LAB_289D			* branch if not '+' (go check for '.'/hex/binary
                            	  6198: 							* /integer)
                            	  6199: 
                            	  6200: LAB_289C
                            	  6201: 							* was "+" or "-" to start, so get next character
00:00002D6E 6100E7FA        	  6202: 	BSR		LAB_IGBY			* increment & scan memory
00:00002D72 6522            	  6203: 	BCS.s		LAB_28FE			* branch if numeric character
                            	  6204: 
                            	  6205: LAB_289D
00:00002D74 B03C002E        	  6206: 	CMP.b		#'.',d0			* else compare with '.'
00:00002D78 67000094        	  6207: 	BEQ		LAB_2904			* branch if '.'
                            	  6208: 
                            	  6209: 							* code here for hex/binary/integer numbers
00:00002D7C B03C0024        	  6210: 	CMP.b		#'$',d0			* compare with '$'
00:00002D80 6700010C        	  6211: 	BEQ		LAB_CHEX			* branch if '$'
                            	  6212: 
00:00002D84 B03C0025        	  6213: 	CMP.b		#'%',d0			* else compare with '%'
00:00002D88 67000166        	  6214: 	BEQ		LAB_CBIN			* branch if '%'
                            	  6215: 
00:00002D8C 6000008E        	  6216: 	BRA		LAB_2Y01			* not #.$%& so return 0
                            	  6217: 
                            	  6218: LAB_28FD
00:00002D90 6100E7D8        	  6219: 	BSR		LAB_IGBY			* get next character
00:00002D94 646E            	  6220: 	BCC.s		LAB_2902			* exit loop if not a digit
                            	  6221: 
                            	  6222: LAB_28FE
00:00002D96 610001AA        	  6223: 	BSR		d1x10				* multiply d1 by 10 and add character
00:00002D9A 64F4            	  6224: 	BCC.s		LAB_28FD			* loop for more if no overflow
                            	  6225: 
                            	  6226: LAB_28FF
                            	  6227: 							* overflowed mantissa, count 10s exponent
00:00002D9C 5283            	  6228: 	ADDQ.l	#1,d3				* increment mantissa decimal exponent count
00:00002D9E 6100E7CA        	  6229: 	BSR		LAB_IGBY			* get next character
00:00002DA2 65F8            	  6230: 	BCS.s		LAB_28FF			* loop while numeric character
                            	  6231: 
                            	  6232: 							* done overflow, now flush fraction or do E
00:00002DA4 B03C002E        	  6233: 	CMP.b		#'.',d0			* else compare with '.'
00:00002DA8 6608            	  6234: 	BNE.s		LAB_2901			* branch if not '.'
                            	  6235: 
                            	  6236: LAB_2900
                            	  6237: 							* flush remaining fractional digits
00:00002DAA 6100E7BE        	  6238: 	BSR		LAB_IGBY			* get next character
00:00002DAE 6500FFFA        	  6239: 	BCS		LAB_2900			* loop while numeric character
                            	  6240: 
                            	  6241: LAB_2901
                            	  6242: 							* done number, only (possible) exponent remains
00:00002DB2 B03C0045        	  6243: 	CMP.b		#'E',d0			* else compare with 'E'
00:00002DB6 6664            	  6244: 	BNE.s		LAB_2Y01			* if not 'E' all done, go evaluate
                            	  6245: 
                            	  6246: 							* process exponent
00:00002DB8 6100E7B0        	  6247: 	BSR		LAB_IGBY			* get next character
00:00002DBC 6528            	  6248: 	BCS.s		LAB_2X04			* branch if digit
                            	  6249: 
00:00002DBE B03C002D        	  6250: 	CMP.b		#'-',d0			* or is it -ve number
00:00002DC2 6706            	  6251: 	BEQ.s		LAB_2X01			* branch if so
                            	  6252: 
00:00002DC4 B03C00B2        	  6253: 	CMP.b		#TK_MINUS,d0		* or is it -ve number
00:00002DC8 6608            	  6254: 	BNE.s		LAB_2X02			* branch if not
                            	  6255: 
                            	  6256: LAB_2X01
00:00002DCA 177C00FF05AF    	  6257: 	move.b	#$FF,expneg(a3)		* set exponent sign
00:00002DD0 600E            	  6258: 	BRA.s		LAB_2X03			* now go scan & check exponent
                            	  6259: 
                            	  6260: LAB_2X02
00:00002DD2 B03C002B        	  6261: 	CMP.b		#'+',d0			* or is it +ve number
00:00002DD6 6708            	  6262: 	BEQ.s		LAB_2X03			* branch if so
                            	  6263: 
00:00002DD8 B03C00B1        	  6264: 	CMP.b		#TK_PLUS,d0			* or is it +ve number
00:00002DDC 6600DBE4        	  6265: 	BNE		LAB_SNER			* wasn't - + TK_MINUS TK_PLUS or # so do error
                            	  6266: 
                            	  6267: LAB_2X03
00:00002DE0 6100E788        	  6268: 	BSR		LAB_IGBY			* get next character
00:00002DE4 6436            	  6269: 	BCC.s		LAB_2Y01			* if not digit all done, go evaluate
                            	  6270: LAB_2X04
00:00002DE6 C8FC000A        	  6271: 	MULU		#10,d4			* multiply decimal exponent by 10
00:00002DEA C0BC000000FF    	  6272: 	AND.l		#$FF,d0			* mask character
00:00002DF0 903C0030        	  6273: 	SUB.b		#'0',d0			* convert to value
00:00002DF4 D880            	  6274: 	ADD.l		d0,d4				* add to decimal exponent
00:00002DF6 B83C0030        	  6275: 	CMP.b		#48,d4			* compare with decimal exponent limit+10
00:00002DFA 6FE4            	  6276: 	BLE.s		LAB_2X03			* loop if no overflow/underflow
                            	  6277: 
                            	  6278: LAB_2X05
                            	  6279: 							* exponent value has overflowed
00:00002DFC 6100E76C        	  6280: 	BSR		LAB_IGBY			* get next character
00:00002E00 65FA            	  6281: 	BCS.s		LAB_2X05			* loop while numeric digit
                            	  6282: 
00:00002E02 6018            	  6283: 	BRA.s		LAB_2Y01			* all done, go evaluate
                            	  6284: 
                            	  6285: LAB_2902
00:00002E04 B03C002E        	  6286: 	CMP.b		#'.',d0			* else compare with '.'
00:00002E08 6704            	  6287: 	BEQ.s		LAB_2904			* branch if was '.'
                            	  6288: 
00:00002E0A 60A6            	  6289: 	BRA.s		LAB_2901			* branch if not '.' (go check/do 'E')
                            	  6290: 
                            	  6291: LAB_2903
00:00002E0C 5383            	  6292: 	SUBQ.l	#1,d3				* decrement mantissa decimal exponent
                            	  6293: LAB_2904
                            	  6294: 							* was dp so get fractional part
00:00002E0E 6100E75A        	  6295: 	BSR		LAB_IGBY			* get next character
00:00002E12 649E            	  6296: 	BCC.s		LAB_2901			* exit loop if not a digit (go check/do 'E')
                            	  6297: 
00:00002E14 6100012C        	  6298: 	BSR		d1x10				* multiply d1 by 10 and add character
00:00002E18 64F2            	  6299: 	BCC.s		LAB_2903			* loop for more if no overflow
                            	  6300: 
00:00002E1A 608E            	  6301: 	BRA.s		LAB_2900			* else go flush remaining fractional part
                            	  6302: 
                            	  6303: LAB_2Y01
                            	  6304: 							* now evaluate result
00:00002E1C 4A2B05AF        	  6305: 	TST.b		expneg(a3)			* test exponent sign
00:00002E20 6A02            	  6306: 	BPL.s		LAB_2Y02			* branch if sign positive
                            	  6307: 
00:00002E22 4484            	  6308: 	NEG.l		d4				* negate decimal exponent
                            	  6309: LAB_2Y02
00:00002E24 D883            	  6310: 	ADD.l		d3,d4				* add mantissa decimal exponent
00:00002E26 7620            	  6311: 	moveq		#32,d3			* set up max binary exponent
00:00002E28 4A81            	  6312: 	TST.l		d1				* test mantissa
00:00002E2A 6752            	  6313: 	BEQ.s		LAB_rtn0			* if mantissa=0 return 0
                            	  6314: 
00:00002E2C 6B08            	  6315: 	BMI.s		LAB_2Y04			* branch if already mormalised
                            	  6316: 
00:00002E2E 5383            	  6317: 	SUBQ.l	#1,d3				* decrement bianry exponent for DBMI loop
                            	  6318: LAB_2Y03
00:00002E30 D281            	  6319: 	ADD.l		d1,d1				* shift mantissa
00:00002E32 5BCBFFFC        	  6320: 	DBMI		d3,LAB_2Y03			* decrement & loop if not normalised
                            	  6321: 
                            	  6322: 							* ensure not too big or small
                            	  6323: LAB_2Y04
00:00002E36 B8BC00000026    	  6324: 	CMP.l		#38,d4			* compare decimal exponent with max exponent
00:00002E3C 6E00DB74        	  6325: 	BGT		LAB_OFER			* if greater do overflow error and warm start
                            	  6326: 
00:00002E40 B8BCFFFFFFDA    	  6327: 	CMP.l		#-38,d4			* compare decimal exponent with min exponent
00:00002E46 6D34            	  6328: 	BLT.s		LAB_ret0			* if less just return zero
                            	  6329: 
00:00002E48 4484            	  6330: 	NEG.l		d4				* negate decimal exponent to go right way
00:00002E4A C9FC0006        	  6331: 	MULS		#6,d4				* 6 bytes per entry
00:00002E4E 2F08            	  6332: 	move.l	a0,-(sp)			* save register
00:00002E50 41FA0210        	  6333: 	lea		(LAB_P_10,PC),a0		* point to table
00:00002E54 17704001059C    	  6334: 	move.b	1(a0,d4.w),FAC2_e(a3)	* copy exponent for multiply
00:00002E5A 277040020598    	  6335: 	move.l	2(a0,d4.w),FAC2_m(a3)	* copy table mantissa
00:00002E60 205F            	  6336: 	move.l	(sp)+,a0			* restore register
                            	  6337: 
00:00002E62 0A030080        	  6338: 	EORI.b	#$80,d3			* normalise input exponent
00:00002E66 27410590        	  6339: 	move.l	d1,FAC1_m(a3)		* save input mantissa
00:00002E6A 17430594        	  6340: 	move.b	d3,FAC1_e(a3)		* save input exponent
00:00002E6E 176B0595059E    	  6341: 	move.b	FAC1_s(a3),FAC_sc(a3)	* set sign as sign compare
                            	  6342: 
00:00002E74 4CDF003E        	  6343: 	movem.l	(sp)+,d1-d5			* restore registers
00:00002E78 6000F372        	  6344: 	BRA		LAB_MULTIPLY		* go multiply input by table
                            	  6345: 
                            	  6346: LAB_ret0
00:00002E7C 7200            	  6347: 	moveq		#0,d1				* clear mantissa
                            	  6348: LAB_rtn0
00:00002E7E 2601            	  6349: 	move.l	d1,d3				* clear exponent
00:00002E80 17430594        	  6350: 	move.b	d3,FAC1_e(a3)		* save exponent
00:00002E84 27410590        	  6351: 	move.l	d1,FAC1_m(a3)		* save mantissa
00:00002E88 4CDF003E        	  6352: 	movem.l	(sp)+,d1-d5			* restore registers
00:00002E8C 4E75            	  6353: 	RTS
                            	  6354: 
                            	  6355: * $ for hex add-on
                            	  6356: 
                            	  6357: * gets here if the first character was "$" for hex
                            	  6358: * get hex number
                            	  6359: 
                            	  6360: LAB_CHEX
00:00002E8E 177C004005B5    	  6361: 	move.b	#$40,Dtypef(a3)		* set integer numeric data type
00:00002E94 7620            	  6362: 	moveq		#32,d3			* set up max binary exponent
                            	  6363: LAB_CHXX
00:00002E96 6100E6D2        	  6364: 	BSR		LAB_IGBY			* increment & scan memory
00:00002E9A 6514            	  6365: 	BCS.s		LAB_ISHN			* branch if numeric character
                            	  6366: 
00:00002E9C 803C0020        	  6367: 	OR.b		#$20,d0			* case convert, allow "A" to "F" and "a" to "f"
00:00002EA0 903C0061        	  6368: 	SUB.b		#'a',d0			* subtract "a"
00:00002EA4 652A            	  6369: 	BCS.s		LAB_CHX3			* exit if <"a"
                            	  6370: 
00:00002EA6 B03C0006        	  6371: 	CMP.b		#$06,d0			* compare normalised with $06 (max+1)
00:00002EAA 6424            	  6372: 	BCC.s		LAB_CHX3			* exit if >"f"
                            	  6373: 
00:00002EAC D03C003A        	  6374: 	ADD.b		#$3A,d0			* convert to nibble+"0"
                            	  6375: LAB_ISHN
00:00002EB0 616C            	  6376: 	BSR.s		d1x16				* multiply d1 by 16 and add character
00:00002EB2 64E2            	  6377: 	BCC.s		LAB_CHXX			* loop for more if no overflow
                            	  6378: 
                            	  6379: 							* overflowed mantissa, count 16s exponent
                            	  6380: LAB_CHX1
00:00002EB4 5883            	  6381: 	ADDQ.l	#4,d3				* increment mantissa exponent count
00:00002EB6 6900DAFA        	  6382: 	BVS		LAB_OFER			* do overflow error if overflowed
                            	  6383: 
00:00002EBA 6100E6AE        	  6384: 	BSR		LAB_IGBY			* get next character
00:00002EBE 65F4            	  6385: 	BCS.s		LAB_CHX1			* loop while numeric character
                            	  6386: 
00:00002EC0 803C0020        	  6387: 	OR.b		#$20,d0			* case convert, allow "A" to "F" and "a" to "f"
00:00002EC4 903C0061        	  6388: 	SUB.b		#'a',d0			* subtract "a"
00:00002EC8 6506            	  6389: 	BCS.s		LAB_CHX3			* exit if <"a"
                            	  6390: 
00:00002ECA B03C0006        	  6391: 	CMP.b		#$06,d0			* compare normalised with $06 (max+1)
00:00002ECE 65E4            	  6392: 	BCS.s		LAB_CHX1			* loop if <="f"
                            	  6393: 
                            	  6394: 							* now return value
                            	  6395: LAB_CHX3
00:00002ED0 4A81            	  6396: 	TST.l		d1				* test mantissa
00:00002ED2 67AA            	  6397: 	BEQ.s		LAB_rtn0			* if mantissa=0 return 0
                            	  6398: 
00:00002ED4 6B08            	  6399: 	BMI.s		LAB_exxf			* branch if already mormalised
                            	  6400: 
00:00002ED6 5383            	  6401: 	SUBQ.l	#1,d3				* decrement bianry exponent for DBMI loop
                            	  6402: LAB_CHX2
00:00002ED8 D281            	  6403: 	ADD.l		d1,d1				* shift mantissa
00:00002EDA 5BCBFFFC        	  6404: 	DBMI		d3,LAB_CHX2			* decrement & loop if not normalised
                            	  6405: 
                            	  6406: LAB_exxf
00:00002EDE 0A030080        	  6407: 	EORI.b	#$80,d3			* normalise exponent
00:00002EE2 17430594        	  6408: 	move.b	d3,FAC1_e(a3)		* save exponent
00:00002EE6 27410590        	  6409: 	move.l	d1,FAC1_m(a3)		* save mantissa
00:00002EEA 4CDF003E        	  6410: 	movem.l	(sp)+,d1-d5			* restore registers
                            	  6411: RTS_024
00:00002EEE 4E75            	  6412: 	RTS
                            	  6413: 
                            	  6414: * % for binary add-on
                            	  6415: 
                            	  6416: * gets here if the first character was "%" for binary
                            	  6417: * get binary number
                            	  6418: 
                            	  6419: LAB_CBIN
00:00002EF0 177C004005B5    	  6420: 	move.b	#$40,Dtypef(a3)		* set integer numeric data type
00:00002EF6 7620            	  6421: 	moveq		#32,d3			* set up max binary exponent
                            	  6422: LAB_CBXN
00:00002EF8 6100E670        	  6423: 	BSR		LAB_IGBY			* increment & scan memory
00:00002EFC 64D2            	  6424: 	BCC.s		LAB_CHX3			* if not numeric character go return value
                            	  6425: 
00:00002EFE B03C0032        	  6426: 	CMP.b		#'2',d0			* compare with "2" (max+1)
00:00002F02 64CC            	  6427: 	BCC.s		LAB_CHX3			* if >="2" go return value
                            	  6428: 
00:00002F04 2401            	  6429: 	move.l	d1,d2				* copy value
00:00002F06 6124            	  6430: 	BSR.s		d1x02				* multiply d1 by 2 and add character
00:00002F08 64EE            	  6431: 	BCC.s		LAB_CBXN			* loop for more if no overflow
                            	  6432: 
                            	  6433: 							* overflowed mantissa, count 2s exponent
                            	  6434: LAB_CBX1
00:00002F0A 5283            	  6435: 	ADDQ.l	#1,d3				* increment mantissa exponent count
00:00002F0C 6900DAA4        	  6436: 	BVS		LAB_OFER			* do overflow error if overflowed
                            	  6437: 
00:00002F10 6100E658        	  6438: 	BSR		LAB_IGBY			* get next character
00:00002F14 64BA            	  6439: 	BCC.s		LAB_CHX3			* if not numeric character go return value
                            	  6440: 
00:00002F16 B03C0032        	  6441: 	CMP.b		#'2',d0			* compare with "2" (max+1)
00:00002F1A 65EE            	  6442: 	BCS.s		LAB_CBX1			* loop if <"2"
                            	  6443: 
00:00002F1C 60B2            	  6444: 	BRA.s		LAB_CHX3			* if not numeric character go return value
                            	  6445: 
                            	  6446: * half way decent times 16 and times 2 with overflow checks
                            	  6447: 
                            	  6448: d1x16
00:00002F1E 2401            	  6449: 	move.l	d1,d2				* copy value
00:00002F20 D482            	  6450: 	ADD.l		d2,d2				* times two
00:00002F22 65CA            	  6451: 	BCS.s		RTS_024			* return if overflow
                            	  6452: 
00:00002F24 D482            	  6453: 	ADD.l		d2,d2				* times four
00:00002F26 65C6            	  6454: 	BCS.s		RTS_024			* return if overflow
                            	  6455: 
00:00002F28 D482            	  6456: 	ADD.l		d2,d2				* times eight
00:00002F2A 65C2            	  6457: 	BCS.s		RTS_024			* return if overflow
                            	  6458: 
                            	  6459: d1x02
00:00002F2C D482            	  6460: 	ADD.l		d2,d2				* times sixteen (ten/two)
00:00002F2E 65BE            	  6461: 	BCS.s		RTS_024			* return if overflow
                            	  6462: 
                            	  6463: * now add in new digit
                            	  6464: 
00:00002F30 C0BC000000FF    	  6465: 	AND.l		#$FF,d0			* mask character
00:00002F36 903C0030        	  6466: 	SUB.b		#'0',d0			* convert to value
00:00002F3A D480            	  6467: 	ADD.l		d0,d2				* add to result
00:00002F3C 65B0            	  6468: 	BCS.s		RTS_024			* return if overflow, it should never ever do
                            	  6469: 							* this
                            	  6470: 
00:00002F3E 2202            	  6471: 	move.l	d2,d1				* copy result
00:00002F40 4E75            	  6472: 	RTS
                            	  6473: 
                            	  6474: * half way decent times 10 with overflow checks
                            	  6475: 
                            	  6476: d1x10
00:00002F42 2401            	  6477: 	move.l	d1,d2				* copy value
00:00002F44 D482            	  6478: 	ADD.l		d2,d2				* times two
00:00002F46 6508            	  6479: 	BCS.s		RTS_025			* return if overflow
                            	  6480: 
00:00002F48 D482            	  6481: 	ADD.l		d2,d2				* times four
00:00002F4A 6504            	  6482: 	BCS.s		RTS_025			* return if overflow
                            	  6483: 
00:00002F4C D481            	  6484: 	ADD.l		d1,d2				* times five
00:00002F4E 64DC            	  6485: 	BCC.s		d1x02				* do times two and add in new digit if ok
                            	  6486: 
                            	  6487: RTS_025
00:00002F50 4E75            	  6488: 	RTS
                            	  6489: 
                            	  6490: *************************************************************************************
                            	  6491: 
                            	  6492: * token values needed for BASIC
                            	  6493: 
                            	  6494: TK_END		EQU $80			* $80
                            	  6495: TK_FOR		EQU TK_END+1		* $81
                            	  6496: TK_NEXT		EQU TK_FOR+1		* $82
                            	  6497: TK_DATA		EQU TK_NEXT+1		* $83
                            	  6498: TK_INPUT		EQU TK_DATA+1		* $84
                            	  6499: TK_DIM		EQU TK_INPUT+1		* $85
                            	  6500: TK_READ		EQU TK_DIM+1		* $86
                            	  6501: TK_LET		EQU TK_READ+1		* $87
                            	  6502: TK_DEC		EQU TK_LET+1		* $88
                            	  6503: TK_GOTO		EQU TK_DEC+1		* $89
                            	  6504: TK_RUN		EQU TK_GOTO+1		* $8A
                            	  6505: TK_IF			EQU TK_RUN+1		* $8B
                            	  6506: TK_RESTORE		EQU TK_IF+1			* $8C
                            	  6507: TK_GOSUB		EQU TK_RESTORE+1		* $8D
                            	  6508: TK_RETURN		EQU TK_GOSUB+1		* $8E
                            	  6509: TK_REM		EQU TK_RETURN+1		* $8F
                            	  6510: TK_STOP		EQU TK_REM+1		* $90
                            	  6511: TK_ON			EQU TK_STOP+1		* $91
                            	  6512: TK_NULL		EQU TK_ON+1			* $92
                            	  6513: TK_INC		EQU TK_NULL+1		* $93
                            	  6514: TK_WAIT		EQU TK_INC+1		* $94
                            	  6515: TK_LOAD		EQU TK_WAIT+1		* $95
                            	  6516: TK_SAVE		EQU TK_LOAD+1		* $96
                            	  6517: TK_DEF		EQU TK_SAVE+1		* $97
                            	  6518: TK_POKE		EQU TK_DEF+1		* $98
                            	  6519: TK_DOKE		EQU TK_POKE+1		* $99
                            	  6520: TK_LOKE		EQU TK_DOKE+1		* $9A
                            	  6521: TK_CALL		EQU TK_LOKE+1		* $9B
                            	  6522: TK_DO			EQU TK_CALL+1		* $9C
                            	  6523: TK_LOOP		EQU TK_DO+1			* $9D
                            	  6524: TK_PRINT		EQU TK_LOOP+1		* $9E
                            	  6525: TK_CONT		EQU TK_PRINT+1		* $9F
                            	  6526: TK_LIST		EQU TK_CONT+1		* $A0
                            	  6527: TK_CLEAR		EQU TK_LIST+1		* $A1
                            	  6528: TK_NEW		EQU TK_CLEAR+1		* $A2
                            	  6529: TK_WIDTH		EQU TK_NEW+1		* $A3
                            	  6530: TK_GET		EQU TK_WIDTH+1		* $A4
                            	  6531: TK_SWAP		EQU TK_GET+1		* $A5
                            	  6532: TK_BITSET		EQU TK_SWAP+1		* $A6
                            	  6533: TK_BITCLR		EQU TK_BITSET+1		* $A7
                            	  6534: TK_TAB		EQU TK_BITCLR+1		* $A8
                            	  6535: TK_TO			EQU TK_TAB+1		* $A9
                            	  6536: TK_FN			EQU TK_TO+1			* $AA
                            	  6537: TK_SPC		EQU TK_FN+1			* $AB
                            	  6538: TK_THEN		EQU TK_SPC+1		* $AC
                            	  6539: TK_NOT		EQU TK_THEN+1		* $AD
                            	  6540: TK_STEP		EQU TK_NOT+1		* $AE
                            	  6541: TK_UNTIL		EQU TK_STEP+1		* $AF
                            	  6542: TK_WHILE		EQU TK_UNTIL+1		* $B0
                            	  6543: TK_PLUS		EQU TK_WHILE+1		* $B1
                            	  6544: TK_MINUS		EQU TK_PLUS+1		* $B2
                            	  6545: TK_MULT		EQU TK_MINUS+1		* $B3
                            	  6546: TK_DIV		EQU TK_MULT+1		* $B4
                            	  6547: TK_POWER		EQU TK_DIV+1		* $B5
                            	  6548: TK_AND		EQU TK_POWER+1		* $B6
                            	  6549: TK_EOR		EQU TK_AND+1		* $B7
                            	  6550: TK_OR			EQU TK_EOR+1		* $B8
                            	  6551: TK_RSHIFT		EQU TK_OR+1			* $B9
                            	  6552: TK_LSHIFT		EQU TK_RSHIFT+1		* $BA
                            	  6553: TK_GT			EQU TK_LSHIFT+1		* $BB
                            	  6554: TK_EQUAL		EQU TK_GT+1			* $BC
                            	  6555: TK_LT			EQU TK_EQUAL+1		* $BD
                            	  6556: TK_SGN		EQU TK_LT+1			* $BE
                            	  6557: TK_INT		EQU TK_SGN+1		* $BF
                            	  6558: TK_ABS		EQU TK_INT+1		* $C0
                            	  6559: TK_USR		EQU TK_ABS+1		* $C1
                            	  6560: TK_FRE		EQU TK_USR+1		* $C2
                            	  6561: TK_POS		EQU TK_FRE+1		* $C3
                            	  6562: TK_SQR		EQU TK_POS+1		* $C4
                            	  6563: TK_RND		EQU TK_SQR+1		* $C5
                            	  6564: TK_LOG		EQU TK_RND+1		* $C6
                            	  6565: TK_EXP		EQU TK_LOG+1		* $C7
                            	  6566: TK_COS		EQU TK_EXP+1		* $C8
                            	  6567: TK_SIN		EQU TK_COS+1		* $C9
                            	  6568: TK_TAN		EQU TK_SIN+1		* $CA
                            	  6569: TK_ATN		EQU TK_TAN+1		* $CB
                            	  6570: TK_PEEK		EQU TK_ATN+1		* $CC
                            	  6571: TK_DEEK		EQU TK_PEEK+1		* $CD
                            	  6572: TK_LEEK		EQU TK_DEEK+1		* $CE
                            	  6573: TK_LEN		EQU TK_LEEK+1		* $CF
                            	  6574: TK_STRS		EQU TK_LEN+1		* $D0
                            	  6575: TK_VAL		EQU TK_STRS+1		* $D1
                            	  6576: TK_ASC		EQU TK_VAL+1		* $D2
                            	  6577: TK_UCASES		EQU TK_ASC+1		* $D3
                            	  6578: TK_LCASES		EQU TK_UCASES+1		* $D4
                            	  6579: TK_CHRS		EQU TK_LCASES+1		* $D5
                            	  6580: TK_HEXS		EQU TK_CHRS+1		* $D6
                            	  6581: TK_BINS		EQU TK_HEXS+1		* $D7
                            	  6582: TK_BITTST		EQU TK_BINS+1		* $D8
                            	  6583: TK_MAX		EQU TK_BITTST+1		* $D9
                            	  6584: TK_MIN		EQU TK_MAX+1		* $DA
                            	  6585: TK_RAM		EQU TK_MIN+1		* $DB
                            	  6586: TK_PI			EQU TK_RAM+1		* $DC
                            	  6587: TK_TWOPI		EQU TK_PI+1			* $DD
                            	  6588: TK_VPTR		EQU TK_TWOPI+1		* $DE
                            	  6589: TK_SADD		EQU TK_VPTR+1		* $DF
                            	  6590: TK_LEFTS		EQU TK_SADD+1		* $E0
                            	  6591: TK_RIGHTS		EQU TK_LEFTS+1		* $E1
                            	  6592: TK_MIDS		EQU TK_RIGHTS+1		* $E2
                            	  6593: 
                            	  6594: ************************************************************************************
                            	  6595: 
                            	  6596: * binary to unsigned decimal table
                            	  6597: 
                            	  6598: Bin2dec
00:00002F52 3B9ACA00        	  6599: 	dc.l	$3B9ACA00				* 1000000000
00:00002F56 05F5E100        	  6600: 	dc.l	$05F5E100				* 100000000
00:00002F5A 00989680        	  6601: 	dc.l	$00989680				* 10000000
00:00002F5E 000F4240        	  6602: 	dc.l	$000F4240				* 1000000
00:00002F62 000186A0        	  6603: 	dc.l	$000186A0				* 100000
00:00002F66 00002710        	  6604: 	dc.l	$00002710				* 10000
00:00002F6A 000003E8        	  6605: 	dc.l	$000003E8				* 1000
00:00002F6E 00000064        	  6606: 	dc.l	$00000064				* 100
00:00002F72 0000000A        	  6607: 	dc.l	$0000000A				* 10
                            	  6608: LAB_1D96
00:00002F76 00000000        	  6609: 	dc.l	$00000000				* 0 end marker
                            	  6610: 
                            	  6611: LAB_RSED
00:00002F7A 332E3139        	  6612: 	dc.l	$332E3139				* 841888056
                            	  6613: 
00:00002F7E 00FF            	  6614:  	dc.w	255					* 10**38
00:00002F80 96769951        	  6615: 	dc.l	$96769951
00:00002F84 00FB            	  6616:  	dc.w	251					* 10**37
00:00002F86 F0BDC21B        	  6617: 	dc.l	$F0BDC21B
00:00002F8A 00F8            	  6618:  	dc.w	248					* 10**36
00:00002F8C C097CE7C        	  6619: 	dc.l	$C097CE7C
00:00002F90 00F5            	  6620:  	dc.w	245					* 10**35
00:00002F92 9A130B96        	  6621: 	dc.l	$9A130B96
00:00002F96 00F1            	  6622:  	dc.w	241					* 10**34
00:00002F98 F684DF57        	  6623: 	dc.l	$F684DF57
00:00002F9C 00EE            	  6624:  	dc.w	238					* 10**33
00:00002F9E C5371912        	  6625: 	dc.l	$C5371912
00:00002FA2 00EB            	  6626:  	dc.w	235					* 10**32
00:00002FA4 9DC5ADA8        	  6627: 	dc.l	$9DC5ADA8
00:00002FA8 00E7            	  6628:  	dc.w	231					* 10**31
00:00002FAA FC6F7C40        	  6629: 	dc.l	$FC6F7C40
00:00002FAE 00E4            	  6630:  	dc.w	228					* 10**30
00:00002FB0 C9F2C9CD        	  6631: 	dc.l	$C9F2C9CD
00:00002FB4 00E1            	  6632:  	dc.w	225					* 10**29
00:00002FB6 A18F07D7        	  6633: 	dc.l	$A18F07D7
00:00002FBA 00DE            	  6634:  	dc.w	222					* 10**28
00:00002FBC 813F3979        	  6635: 	dc.l	$813F3979
00:00002FC0 00DA            	  6636:  	dc.w	218					* 10**27
00:00002FC2 CECB8F28        	  6637: 	dc.l	$CECB8F28
00:00002FC6 00D7            	  6638:  	dc.w	215					* 10**26
00:00002FC8 A56FA5BA        	  6639: 	dc.l	$A56FA5BA
00:00002FCC 00D4            	  6640:  	dc.w	212					* 10**25
00:00002FCE 84595161        	  6641: 	dc.l	$84595161
00:00002FD2 00D0            	  6642:  	dc.w	208					* 10**24
00:00002FD4 D3C21BCF        	  6643: 	dc.l	$D3C21BCF
00:00002FD8 00CD            	  6644:  	dc.w	205					* 10**23
00:00002FDA A968163F        	  6645: 	dc.l	$A968163F
00:00002FDE 00CA            	  6646:  	dc.w	202					* 10**22
00:00002FE0 87867832        	  6647: 	dc.l	$87867832
00:00002FE4 00C6            	  6648:  	dc.w	198					* 10**21
00:00002FE6 D8D726B7        	  6649: 	dc.l	$D8D726B7
00:00002FEA 00C3            	  6650:  	dc.w	195					* 10**20
00:00002FEC AD78EBC6        	  6651: 	dc.l	$AD78EBC6
00:00002FF0 00C0            	  6652:  	dc.w	192					* 10**19
00:00002FF2 8AC72305        	  6653: 	dc.l	$8AC72305
00:00002FF6 00BC            	  6654:  	dc.w	188					* 10**18
00:00002FF8 DE0B6B3A        	  6655: 	dc.l	$DE0B6B3A
00:00002FFC 00B9            	  6656:  	dc.w	185					* 10**17
00:00002FFE B1A2BC2F        	  6657: 	dc.l	$B1A2BC2F
00:00003002 00B6            	  6658:  	dc.w	182					* 10**16
00:00003004 8E1BC9BF        	  6659: 	dc.l	$8E1BC9BF
00:00003008 00B2            	  6660:  	dc.w	178					* 10**15
00:0000300A E35FA932        	  6661: 	dc.l	$E35FA932
00:0000300E 00AF            	  6662:  	dc.w	175					* 10**14
00:00003010 B5E620F5        	  6663: 	dc.l	$B5E620F5
00:00003014 00AC            	  6664:  	dc.w	172					* 10**13
00:00003016 9184E72A        	  6665: 	dc.l	$9184E72A
00:0000301A 00A8            	  6666:  	dc.w	168					* 10**12
00:0000301C E8D4A510        	  6667: 	dc.l	$E8D4A510
00:00003020 00A5            	  6668:  	dc.w	165					* 10**11
00:00003022 BA43B740        	  6669: 	dc.l	$BA43B740
00:00003026 00A2            	  6670:  	dc.w	162					* 10**10
00:00003028 9502F900        	  6671: 	dc.l	$9502F900
00:0000302C 009E            	  6672:  	dc.w	158					* 10**9
00:0000302E EE6B2800        	  6673: 	dc.l	$EE6B2800
00:00003032 009B            	  6674:  	dc.w	155					* 10**8
00:00003034 BEBC2000        	  6675: 	dc.l	$BEBC2000
00:00003038 0098            	  6676:  	dc.w	152					* 10**7
00:0000303A 98968000        	  6677: 	dc.l	$98968000
00:0000303E 0094            	  6678:  	dc.w	148					* 10**6
00:00003040 F4240000        	  6679: 	dc.l	$F4240000
00:00003044 0091            	  6680:  	dc.w	145					* 10**5
00:00003046 C3500000        	  6681: 	dc.l	$C3500000
00:0000304A 008E            	  6682:  	dc.w	142					* 10**4
00:0000304C 9C400000        	  6683: 	dc.l	$9C400000
00:00003050 008A            	  6684:  	dc.w	138					* 10**3
00:00003052 FA000000        	  6685: 	dc.l	$FA000000
00:00003056 0087            	  6686:  	dc.w	135 					* 10**2
00:00003058 C8000000        	  6687: 	dc.l	$C8000000
00:0000305C 0084            	  6688:  	dc.w	132 					* 10**1
00:0000305E A0000000        	  6689: 	dc.l	$A0000000
                            	  6690: LAB_P_10
00:00003062 0081            	  6691: 	dc.w	129 					* 10**0
00:00003064 80000000        	  6692: 	dc.l	$80000000
00:00003068 007D            	  6693:  	dc.w	125					* 10**-1
00:0000306A CCCCCCCD        	  6694: 	dc.l	$CCCCCCCD
00:0000306E 007A            	  6695:  	dc.w	122					* 10**-2
00:00003070 A3D70A3D        	  6696: 	dc.l	$A3D70A3D
00:00003074 0077            	  6697:  	dc.w	119					* 10**-3
00:00003076 83126E98        	  6698: 	dc.l	$83126E98
00:0000307A 0073            	  6699:  	dc.w	115					* 10**-4
00:0000307C D1B71759        	  6700: 	dc.l	$D1B71759
00:00003080 0070            	  6701:  	dc.w	112					* 10**-5
00:00003082 A7C5AC47        	  6702: 	dc.l	$A7C5AC47
00:00003086 006D            	  6703:  	dc.w	109					* 10**-6
00:00003088 8637BD06        	  6704: 	dc.l	$8637BD06
00:0000308C 0069            	  6705:  	dc.w	105					* 10**-7
00:0000308E D6BF94D6        	  6706: 	dc.l	$D6BF94D6
00:00003092 0066            	  6707:  	dc.w	102					* 10**-8
00:00003094 ABCC7712        	  6708: 	dc.l	$ABCC7712
00:00003098 0063            	  6709:  	dc.w	99					* 10**-9
00:0000309A 89705F41        	  6710: 	dc.l	$89705F41
00:0000309E 005F            	  6711:  	dc.w	95					* 10**-10
00:000030A0 DBE6FECF        	  6712: 	dc.l	$DBE6FECF
00:000030A4 005C            	  6713:  	dc.w	92					* 10**-11
00:000030A6 AFEBFF0C        	  6714: 	dc.l	$AFEBFF0C
00:000030AA 0059            	  6715:  	dc.w	89					* 10**-12
00:000030AC 8CBCCC09        	  6716: 	dc.l	$8CBCCC09
00:000030B0 0055            	  6717:  	dc.w	85					* 10**-13
00:000030B2 E12E1342        	  6718: 	dc.l	$E12E1342
00:000030B6 0052            	  6719:  	dc.w	82					* 10**-14
00:000030B8 B424DC35        	  6720: 	dc.l	$B424DC35
00:000030BC 004F            	  6721:  	dc.w	79					* 10**-15
00:000030BE 901D7CF7        	  6722: 	dc.l	$901D7CF7
00:000030C2 004B            	  6723:  	dc.w	75					* 10**-16
00:000030C4 E69594BF        	  6724: 	dc.l	$E69594BF
00:000030C8 0048            	  6725:  	dc.w	72					* 10**-17
00:000030CA B877AA32        	  6726: 	dc.l	$B877AA32
00:000030CE 0045            	  6727:  	dc.w	69					* 10**-18
00:000030D0 9392EE8F        	  6728: 	dc.l	$9392EE8F
00:000030D4 0041            	  6729:  	dc.w	65					* 10**-19
00:000030D6 EC1E4A7E        	  6730: 	dc.l	$EC1E4A7E
00:000030DA 003E            	  6731:  	dc.w	62					* 10**-20
00:000030DC BCE50865        	  6732: 	dc.l	$BCE50865
00:000030E0 003B            	  6733:  	dc.w	59					* 10**-21
00:000030E2 971DA050        	  6734: 	dc.l	$971DA050
00:000030E6 0037            	  6735:  	dc.w	55					* 10**-22
00:000030E8 F1C90081        	  6736: 	dc.l	$F1C90081
00:000030EC 0034            	  6737:  	dc.w	52					* 10**-23
00:000030EE C16D9A01        	  6738: 	dc.l	$C16D9A01
00:000030F2 0031            	  6739:  	dc.w	49					* 10**-24
00:000030F4 9ABE14CD        	  6740: 	dc.l	$9ABE14CD
00:000030F8 002D            	  6741:  	dc.w	45					* 10**-25
00:000030FA F79687AE        	  6742: 	dc.l	$F79687AE
00:000030FE 002A            	  6743:  	dc.w	42					* 10**-26
00:00003100 C6120625        	  6744: 	dc.l	$C6120625
00:00003104 0027            	  6745:  	dc.w	39					* 10**-27
00:00003106 9E74D1B8        	  6746: 	dc.l	$9E74D1B8
00:0000310A 0023            	  6747:  	dc.w	35					* 10**-28
00:0000310C FD87B5F3        	  6748: 	dc.l	$FD87B5F3
00:00003110 0020            	  6749: 	dc.w	32					* 10**-29
00:00003112 CAD2F7F5        	  6750: 	dc.l	$CAD2F7F5
00:00003116 001D            	  6751:  	dc.w	29					* 10**-30
00:00003118 A2425FF7        	  6752: 	dc.l	$A2425FF7
00:0000311C 001A            	  6753:  	dc.w	26					* 10**-31
00:0000311E 81CEB32C        	  6754: 	dc.l	$81CEB32C
00:00003122 0016            	  6755:  	dc.w	22					* 10**-32
00:00003124 CFB11EAD        	  6756: 	dc.l	$CFB11EAD
00:00003128 0013            	  6757:  	dc.w	19					* 10**-33
00:0000312A A6274BBE        	  6758: 	dc.l	$A6274BBE
00:0000312E 0010            	  6759:  	dc.w	16					* 10**-34
00:00003130 84EC3C98        	  6760: 	dc.l	$84EC3C98
00:00003134 000C            	  6761:  	dc.w	12					* 10**-35
00:00003136 D4AD2DC0        	  6762: 	dc.l	$D4AD2DC0
00:0000313A 0009            	  6763:  	dc.w	9					* 10**-36
00:0000313C AA242499        	  6764: 	dc.l	$AA242499
00:00003140 0006            	  6765:  	dc.w	6					* 10**-37
00:00003142 881CEA14        	  6766: 	dc.l	$881CEA14
00:00003146 0002            	  6767:  	dc.w	2					* 10**-38
00:00003148 D9C7DCED        	  6768: 	dc.l	$D9C7DCED
                            	  6769: 
                            	  6770: * table of constants for cordic SIN/COS/TAN calculations
                            	  6771: * constants are un normalised fractions and are atn(2^-i)/2pi
                            	  6772: 
00:0000314C 4DBA76D4        	  6773: 	dc.l	$4DBA76D4				* SIN/COS multiply constant
                            	  6774: TAB_SNCO
00:00003150 20000000        	  6775: 	dc.l	$20000000				* atn(2^0)/2pi
00:00003154 12E4051E        	  6776: 	dc.l	$12E4051E				* atn(2^1)/2pi
00:00003158 09FB385C        	  6777: 	dc.l	$09FB385C				* atn(2^2)/2pi
00:0000315C 051111D5        	  6778: 	dc.l	$051111D5				* atn(2^3)/2pi
00:00003160 028B0D44        	  6779: 	dc.l	$028B0D44				* atn(2^4)/2pi
00:00003164 0145D7E2        	  6780: 	dc.l	$0145D7E2				* atn(2^5)/2pi
00:00003168 00A2F61F        	  6781: 	dc.l	$00A2F61F				* atn(2^6)/2pi
00:0000316C 00517C56        	  6782: 	dc.l	$00517C56				* atn(2^7)/2pi
00:00003170 0028BE54        	  6783: 	dc.l	$0028BE54				* atn(2^8)/2pi
00:00003174 00145F2F        	  6784: 	dc.l	$00145F2F				* atn(2^9)/2pi
00:00003178 000A2F99        	  6785: 	dc.l	$000A2F99				* atn(2^10)/2pi
00:0000317C 000517CD        	  6786: 	dc.l	$000517CD				* atn(2^11)/2pi
00:00003180 00028BE7        	  6787: 	dc.l	$00028BE7				* atn(2^12)/2pi
00:00003184 000145F4        	  6788: 	dc.l	$000145F4				* atn(2^13)/2pi
00:00003188 0000A2FA        	  6789: 	dc.l	$0000A2FA				* atn(2^14)/2pi
00:0000318C 0000517D        	  6790: 	dc.l	$0000517D				* atn(2^15)/2pi
00:00003190 000028BF        	  6791: 	dc.l	$000028BF				* atn(2^16)/2pi
00:00003194 00001460        	  6792: 	dc.l	$00001460				* atn(2^17)/2pi
00:00003198 00000A30        	  6793: 	dc.l	$00000A30				* atn(2^18)/2pi
00:0000319C 00000518        	  6794: 	dc.l	$00000518				* atn(2^19)/2pi
00:000031A0 0000028C        	  6795: 	dc.l	$0000028C				* atn(2^20)/2pi
00:000031A4 00000146        	  6796: 	dc.l	$00000146				* atn(2^21)/2pi
00:000031A8 000000A3        	  6797: 	dc.l	$000000A3				* atn(2^22)/2pi
00:000031AC 00000052        	  6798: 	dc.l	$00000052				* atn(2^23)/2pi
00:000031B0 00000029        	  6799: 	dc.l	$00000029				* atn(2^24)/2pi
00:000031B4 00000015        	  6800: 	dc.l	$00000015				* atn(2^25)/2pi
00:000031B8 0000000B        	  6801: 	dc.l	$0000000B				* atn(2^26)/2pi
00:000031BC 00000006        	  6802: 	dc.l	$00000006				* atn(2^27)/2pi
00:000031C0 00000003        	  6803: 	dc.l	$00000003				* atn(2^28)/2pi
00:000031C4 00000002        	  6804: 	dc.l	$00000002				* atn(2^29)/2pi
00:000031C8 00000001        	  6805: 	dc.l	$00000001				* atn(2^30)/2pi
00:000031CC 00000001        	  6806: 	dc.l	$00000001				* atn(2^31)/2pi
                            	  6807: 
                            	  6808: * table of constants for cordic ATN calculation
                            	  6809: * constants are normalised to two integer bits and are atn(2^-i)
                            	  6810: 
                            	  6811: TAB_ATNC
00:000031D0 1DAC6705        	  6812: 	dc.l	$1DAC6705				* atn(2^-1)
00:000031D4 0FADBAFD        	  6813: 	dc.l	$0FADBAFD				* atn(2^-2)
00:000031D8 07F56EA7        	  6814: 	dc.l	$07F56EA7				* atn(2^-3)
00:000031DC 03FEAB77        	  6815: 	dc.l	$03FEAB77				* atn(2^-4)
00:000031E0 01FFD55C        	  6816: 	dc.l	$01FFD55C				* atn(2^-5)
00:000031E4 00FFFAAB        	  6817: 	dc.l	$00FFFAAB				* atn(2^-6)
00:000031E8 007FFF55        	  6818: 	dc.l	$007FFF55				* atn(2^-7)
00:000031EC 003FFFEB        	  6819: 	dc.l	$003FFFEB				* atn(2^-8)
00:000031F0 001FFFFD        	  6820: 	dc.l	$001FFFFD				* atn(2^-9)
00:000031F4 00100000        	  6821: 	dc.l	$00100000				* atn(2^-10)
00:000031F8 00080000        	  6822: 	dc.l	$00080000				* atn(2^-11)
00:000031FC 00040000        	  6823: 	dc.l	$00040000				* atn(2^-12)
00:00003200 00020000        	  6824: 	dc.l	$00020000				* atn(2^-13)
00:00003204 00010000        	  6825: 	dc.l	$00010000				* atn(2^-14)
00:00003208 00008000        	  6826: 	dc.l	$00008000				* atn(2^-15)
00:0000320C 00004000        	  6827: 	dc.l	$00004000				* atn(2^-16)
00:00003210 00002000        	  6828: 	dc.l	$00002000				* atn(2^-17)
00:00003214 00001000        	  6829: 	dc.l	$00001000				* atn(2^-18)
00:00003218 00000800        	  6830: 	dc.l	$00000800				* atn(2^-19)
00:0000321C 00000400        	  6831: 	dc.l	$00000400				* atn(2^-20)
00:00003220 00000200        	  6832: 	dc.l	$00000200				* atn(2^-21)
00:00003224 00000100        	  6833: 	dc.l	$00000100				* atn(2^-22)
00:00003228 00000080        	  6834: 	dc.l	$00000080				* atn(2^-23)
00:0000322C 00000040        	  6835: 	dc.l	$00000040				* atn(2^-24)
00:00003230 00000020        	  6836: 	dc.l	$00000020				* atn(2^-25)
00:00003234 00000010        	  6837: 	dc.l	$00000010				* atn(2^-26)
00:00003238 00000008        	  6838: 	dc.l	$00000008				* atn(2^-27)
00:0000323C 00000004        	  6839: 	dc.l	$00000004				* atn(2^-28)
00:00003240 00000002        	  6840: 	dc.l	$00000002				* atn(2^-29)
00:00003244 00000001        	  6841: 	dc.l	$00000001				* atn(2^-30)
00:00003248 00000000        	  6842: 	dc.l	$00000000				* atn(2^-31)
00:0000324C 00000000        	  6843: 	dc.l	$00000000				* atn(2^-32)
                            	  6844: 
                            	  6845: * constants are normalised to n integer bits and are tanh(2^-i)
                            	  6846: n	equ	2
                            	  6847: TAB_HTHET
00:00003250 E327D4F4        	  6848: 	dc.l	$8C9F53D0>>n			* atnh(2^-1)	.549306144
00:00003254 1058AEFA        	  6849: 	dc.l	$4162BBE8>>n			* atnh(2^-2)	.255412812
00:00003258 080AC48E        	  6850: 	dc.l	$202B1238>>n			* atnh(2^-3)
00:0000325C 04015622        	  6851: 	dc.l	$10055888>>n			* atnh(2^-4)
00:00003260 02002AB0        	  6852: 	dc.l	$0800AAC0>>n			* atnh(2^-5)
00:00003264 01000554        	  6853: 	dc.l	$04001550>>n			* atnh(2^-6)
00:00003268 008000AA        	  6854: 	dc.l	$020002A8>>n			* atnh(2^-7)
00:0000326C 00400014        	  6855: 	dc.l	$01000050>>n			* atnh(2^-8)
00:00003270 00200002        	  6856: 	dc.l	$00800008>>n			* atnh(2^-9)
00:00003274 00100000        	  6857: 	dc.l	$00400000>>n			* atnh(2^-10)
00:00003278 00080000        	  6858: 	dc.l	$00200000>>n			* atnh(2^-11)
00:0000327C 00040000        	  6859: 	dc.l	$00100000>>n			* atnh(2^-12)
00:00003280 00020000        	  6860: 	dc.l	$00080000>>n			* atnh(2^-13)
00:00003284 00010000        	  6861: 	dc.l	$00040000>>n			* atnh(2^-14)
00:00003288 00008000        	  6862: 	dc.l	$00020000>>n			* atnh(2^-15)
00:0000328C 00004000        	  6863: 	dc.l	$00010000>>n			* atnh(2^-16)
00:00003290 00002000        	  6864: 	dc.l	$00008000>>n			* atnh(2^-17)
00:00003294 00001000        	  6865: 	dc.l	$00004000>>n			* atnh(2^-18)
00:00003298 00000800        	  6866: 	dc.l	$00002000>>n			* atnh(2^-19)
00:0000329C 00000400        	  6867: 	dc.l	$00001000>>n			* atnh(2^-20)
00:000032A0 00000200        	  6868: 	dc.l	$00000800>>n			* atnh(2^-21)
00:000032A4 00000100        	  6869: 	dc.l	$00000400>>n			* atnh(2^-22)
00:000032A8 00000080        	  6870: 	dc.l	$00000200>>n			* atnh(2^-23)
00:000032AC 00000040        	  6871: 	dc.l	$00000100>>n			* atnh(2^-24)
00:000032B0 00000020        	  6872: 	dc.l	$00000080>>n			* atnh(2^-25)
00:000032B4 00000010        	  6873: 	dc.l	$00000040>>n			* atnh(2^-26)
00:000032B8 00000008        	  6874: 	dc.l	$00000020>>n			* atnh(2^-27)
00:000032BC 00000004        	  6875: 	dc.l	$00000010>>n			* atnh(2^-28)
00:000032C0 00000002        	  6876: 	dc.l	$00000008>>n			* atnh(2^-29)
00:000032C4 00000001        	  6877: 	dc.l	$00000004>>n			* atnh(2^-30)
00:000032C8 00000000        	  6878: 	dc.l	$00000002>>n			* atnh(2^-31)
00:000032CC 00000000        	  6879: 	dc.l	$00000001>>n			* atnh(2^-32)
                            	  6880: 
                            	  6881: KFCTSEED	equ	$9A8F4441>>n		* $26A3D110
                            	  6882: 
                            	  6883: * command vector table
                            	  6884: 
                            	  6885: LAB_CTBL
00:000032D0 DB16            	  6886: 	dc.w	LAB_END-LAB_CTBL			* END
00:000032D2 DA4E            	  6887: 	dc.w	LAB_FOR-LAB_CTBL			* FOR
00:000032D4 E068            	  6888: 	dc.w	LAB_NEXT-LAB_CTBL			* NEXT
00:000032D6 DC6C            	  6889: 	dc.w	LAB_DATA-LAB_CTBL			* DATA
00:000032D8 DF5C            	  6890: 	dc.w	LAB_INPUT-LAB_CTBL		* INPUT
00:000032DA E434            	  6891: 	dc.w	LAB_DIM-LAB_CTBL			* DIM
00:000032DC DF82            	  6892: 	dc.w	LAB_READ-LAB_CTBL			* READ
00:000032DE DD8E            	  6893: 	dc.w	LAB_LET-LAB_CTBL			* LET
00:000032E0 DD2C            	  6894: 	dc.w	LAB_DEC-LAB_CTBL			* DEC
00:000032E2 DBD4            	  6895: 	dc.w	LAB_GOTO-LAB_CTBL			* GOTO
00:000032E4 DB9A            	  6896: 	dc.w	LAB_RUN-LAB_CTBL			* RUN
00:000032E6 DC94            	  6897: 	dc.w	LAB_IF-LAB_CTBL			* IF
00:000032E8 DB44            	  6898: 	dc.w	LAB_RESTORE-LAB_CTBL		* RESTORE
00:000032EA DBC2            	  6899: 	dc.w	LAB_GOSUB-LAB_CTBL		* GOSUB
00:000032EC DC58            	  6900: 	dc.w	LAB_RETURN-LAB_CTBL		* RETURN
00:000032EE DCB2            	  6901: 	dc.w	LAB_REM-LAB_CTBL			* REM
00:000032F0 DB1E            	  6902: 	dc.w	LAB_STOP-LAB_CTBL			* STOP
00:000032F2 DCBA            	  6903: 	dc.w	LAB_ON-LAB_CTBL			* ON
00:000032F4 DB72            	  6904: 	dc.w	LAB_NULL-LAB_CTBL			* NULL
00:000032F6 DD32            	  6905: 	dc.w	LAB_INC-LAB_CTBL			* INC
00:000032F8 ED40            	  6906: 	dc.w	LAB_WAIT-LAB_CTBL			* WAIT
00:000032FA ED2E            	  6907: 	dc.w	LAB_LOAD-LAB_CTBL			* LOAD
00:000032FC ED32            	  6908: 	dc.w	LAB_SAVE-LAB_CTBL			* SAVE
00:000032FE E7C8            	  6909: 	dc.w	LAB_DEF-LAB_CTBL			* DEF
00:00003300 ECB0            	  6910: 	dc.w	LAB_POKE-LAB_CTBL			* POKE
00:00003302 ECE0            	  6911: 	dc.w	LAB_DOKE-LAB_CTBL			* DOKE
00:00003304 ECE6            	  6912: 	dc.w	LAB_LOKE-LAB_CTBL			* LOKE
00:00003306 ED36            	  6913: 	dc.w	LAB_CALL-LAB_CTBL			* CALL
00:00003308 DBB0            	  6914: 	dc.w	LAB_DO-LAB_CTBL			* DO
00:0000330A DC02            	  6915: 	dc.w	LAB_LOOP-LAB_CTBL			* LOOP
00:0000330C DE22            	  6916: 	dc.w	LAB_PRINT-LAB_CTBL		* PRINT
00:0000330E DB7C            	  6917: 	dc.w	LAB_CONT-LAB_CTBL			* CONT
00:00003310 D998            	  6918: 	dc.w	LAB_LIST-LAB_CTBL			* LIST
00:00003312 D994            	  6919: 	dc.w	LAB_CLEAR-LAB_CTBL		* CLEAR
00:00003314 D948            	  6920: 	dc.w	LAB_NEW-LAB_CTBL			* NEW
00:00003316 F952            	  6921: 	dc.w	LAB_WDTH-LAB_CTBL			* WIDTH
00:00003318 DDE8            	  6922: 	dc.w	LAB_GET-LAB_CTBL			* GET
00:0000331A ECFA            	  6923: 	dc.w	LAB_SWAP-LAB_CTBL			* SWAP
00:0000331C F7D4            	  6924: 	dc.w	LAB_BITSET-LAB_CTBL		* BITSET
00:0000331E F7E4            	  6925: 	dc.w	LAB_BITCLR-LAB_CTBL		* BITCLR
                            	  6926: 
                            	  6927: * function pre process routine table
                            	  6928: 
                            	  6929: LAB_FTPP
00:00003320 E2E0            	  6930: 	dc.w	LAB_PPFN-LAB_FTPP			* SGN(n)	process numeric expression in ()
00:00003322 E2E0            	  6931: 	dc.w	LAB_PPFN-LAB_FTPP			* INT(n)		"
00:00003324 E2E0            	  6932: 	dc.w	LAB_PPFN-LAB_FTPP			* ABS(n)		"
00:00003326 E0E8            	  6933: 	dc.w	LAB_EVEZ-LAB_FTPP			* USR(x)	process any expression
00:00003328 E234            	  6934: 	dc.w	LAB_1BF7-LAB_FTPP			* FRE(x)	process any expression in ()
00:0000332A E234            	  6935: 	dc.w	LAB_1BF7-LAB_FTPP			* POS(x)		"
00:0000332C E2E0            	  6936: 	dc.w	LAB_PPFN-LAB_FTPP			* SQR(n)	process numeric expression in ()
00:0000332E E2E0            	  6937: 	dc.w	LAB_PPFN-LAB_FTPP			* RND(n)		"
00:00003330 E2E0            	  6938: 	dc.w	LAB_PPFN-LAB_FTPP			* LOG(n)		"
00:00003332 E2E0            	  6939: 	dc.w	LAB_PPFN-LAB_FTPP			* EXP(n)		"
00:00003334 E2E0            	  6940: 	dc.w	LAB_PPFN-LAB_FTPP			* COS(n)		"
00:00003336 E2E0            	  6941: 	dc.w	LAB_PPFN-LAB_FTPP			* SIN(n)		"
00:00003338 E2E0            	  6942: 	dc.w	LAB_PPFN-LAB_FTPP			* TAN(n)		"
00:0000333A E2E0            	  6943: 	dc.w	LAB_PPFN-LAB_FTPP			* ATN(n)		"
00:0000333C E2E0            	  6944: 	dc.w	LAB_PPFN-LAB_FTPP			* PEEK(n)		"
00:0000333E E2E0            	  6945: 	dc.w	LAB_PPFN-LAB_FTPP			* DEEK(n)		"
00:00003340 E2E0            	  6946: 	dc.w	LAB_PPFN-LAB_FTPP			* LEEK(n)		"
00:00003342 E2D2            	  6947: 	dc.w	LAB_PPFS-LAB_FTPP			* LEN($)	process string expression in ()
00:00003344 E2E0            	  6948: 	dc.w	LAB_PPFN-LAB_FTPP			* STR$(n)	process numeric expression in ()
00:00003346 E2D2            	  6949: 	dc.w	LAB_PPFS-LAB_FTPP			* VAL($)	process string expression in ()
00:00003348 E2D2            	  6950: 	dc.w	LAB_PPFS-LAB_FTPP			* ASC($)		"
00:0000334A E2D2            	  6951: 	dc.w	LAB_PPFS-LAB_FTPP			* UCASE$($)		"
00:0000334C E2D2            	  6952: 	dc.w	LAB_PPFS-LAB_FTPP			* LCASE$($)		"
00:0000334E E2E0            	  6953: 	dc.w	LAB_PPFN-LAB_FTPP			* CHR$(n)	process numeric expression in ()
00:00003350 E31A            	  6954: 	dc.w	LAB_BHSS-LAB_FTPP			* HEX$()	bin/hex pre process
00:00003352 E31A            	  6955: 	dc.w	LAB_BHSS-LAB_FTPP			* BIN$()		"
00:00003354 0000            	  6956: 	dc.w	$0000					* BITTST()	none
00:00003356 0000            	  6957: 	dc.w	$0000					* MAX()		"
00:00003358 0000            	  6958: 	dc.w	$0000					* MIN()		"
00:0000335A E2EE            	  6959: 	dc.w	LAB_PPBI-LAB_FTPP			* RAMBASE	advance pointer
00:0000335C E2EE            	  6960: 	dc.w	LAB_PPBI-LAB_FTPP			* PI			"
00:0000335E E2EE            	  6961: 	dc.w	LAB_PPBI-LAB_FTPP			* TWOPI		"
00:00003360 0000            	  6962: 	dc.w	$0000					* VARPTR()	none
00:00003362 0000            	  6963: 	dc.w	$0000					* SADD()		"
00:00003364 E2F8            	  6964: 	dc.w	LAB_LRMS-LAB_FTPP			* LEFT$()	process string expression
00:00003366 E2F8            	  6965: 	dc.w	LAB_LRMS-LAB_FTPP			* RIGHT$()		"
00:00003368 E2F8            	  6966: 	dc.w	LAB_LRMS-LAB_FTPP			* MID$()		"
                            	  6967: 
                            	  6968: * action addresses for functions
                            	  6969: 
                            	  6970: LAB_FTBL
00:0000336A F078            	  6971: 	dc.w	LAB_SGN-LAB_FTBL			* SGN()
00:0000336C F0FC            	  6972: 	dc.w	LAB_INT-LAB_FTBL			* INT()
00:0000336E F08A            	  6973: 	dc.w	LAB_ABS-LAB_FTBL			* ABS()
00:00003370 EC8C            	  6974: 	dc.w	LAB_USR-LAB_FTBL			* USR()
00:00003372 E6E6            	  6975: 	dc.w	LAB_FRE-LAB_FTBL			* FRE()
00:00003374 E718            	  6976: 	dc.w	LAB_POS-LAB_FTBL			* POS()
00:00003376 F938            	  6977: 	dc.w	LAB_SQR-LAB_FTBL			* SQR()
00:00003378 F54E            	  6978: 	dc.w	LAB_RND-LAB_FTBL			* RND()
00:0000337A ED90            	  6979: 	dc.w	LAB_LOG-LAB_FTBL			* LOG()
00:0000337C F434            	  6980: 	dc.w	LAB_EXP-LAB_FTBL			* EXP()
00:0000337E F5A2            	  6981: 	dc.w	LAB_COS-LAB_FTBL			* COS()
00:00003380 F5BA            	  6982: 	dc.w	LAB_SIN-LAB_FTBL			* SIN()
00:00003382 F580            	  6983: 	dc.w	LAB_TAN-LAB_FTBL			* TAN()
00:00003384 F686            	  6984: 	dc.w	LAB_ATN-LAB_FTBL			* ATN()
00:00003386 EC0A            	  6985: 	dc.w	LAB_PEEK-LAB_FTBL			* PEEK()
00:00003388 EC1C            	  6986: 	dc.w	LAB_DEEK-LAB_FTBL			* DEEK()
00:0000338A EC32            	  6987: 	dc.w	LAB_LEEK-LAB_FTBL			* LEEK()
00:0000338C EB4E            	  6988: 	dc.w	LAB_LENS-LAB_FTBL			* LEN()
00:0000338E E81A            	  6989: 	dc.w	LAB_STRS-LAB_FTBL			* STR$()
00:00003390 EB92            	  6990: 	dc.w	LAB_VAL-LAB_FTBL			* VAL()
00:00003392 EB56            	  6991: 	dc.w	LAB_ASC-LAB_FTBL			* ASC()
00:00003394 EB04            	  6992: 	dc.w	LAB_UCASE-LAB_FTBL		* UCASE$()
00:00003396 EAD4            	  6993: 	dc.w	LAB_LCASE-LAB_FTBL		* LCASE$()
00:00003398 EA3C            	  6994: 	dc.w	LAB_CHRS-LAB_FTBL			* CHR$()
00:0000339A F7DA            	  6995: 	dc.w	LAB_HEXS-LAB_FTBL			* HEX$()
00:0000339C F788            	  6996: 	dc.w	LAB_BINS-LAB_FTBL			* BIN$()
00:0000339E F75A            	  6997: 	dc.w	LAB_BTST-LAB_FTBL			* BITTST()
00:000033A0 F846            	  6998: 	dc.w	LAB_MAX-LAB_FTBL			* MAX()
00:000033A2 F85C            	  6999: 	dc.w	LAB_MIN-LAB_FTBL			* MIN()
00:000033A4 F9AA            	  7000: 	dc.w	LAB_RAM-LAB_FTBL			* RAMBASE
00:000033A6 F9B4            	  7001: 	dc.w	LAB_PI-LAB_FTBL			* PI
00:000033A8 F9C4            	  7002: 	dc.w	LAB_TWOPI-LAB_FTBL		* TWOPI
00:000033AA F99A            	  7003: 	dc.w	LAB_VARPTR-LAB_FTBL		* VARPTR()
00:000033AC EB36            	  7004: 	dc.w	LAB_SADD-LAB_FTBL			* SADD()
00:000033AE EA4C            	  7005: 	dc.w	LAB_LEFT-LAB_FTBL			* LEFT$()
00:000033B0 EA60            	  7006: 	dc.w	LAB_RIGHT-LAB_FTBL		* RIGHT$()
00:000033B2 EA90            	  7007: 	dc.w	LAB_MIDS-LAB_FTBL			* MID$()
                            	  7008: 
                            	  7009: * hierarchy and action addresses for operator
                            	  7010: 
                            	  7011: LAB_OPPT
00:000033B4 0079            	  7012: 	dc.w	$0079					* +
00:000033B6 EC94            	  7013: 	dc.w	LAB_ADD-LAB_OPPT
00:000033B8 0079            	  7014: 	dc.w	$0079					* -
00:000033BA EC80            	  7015: 	dc.w	LAB_SUBTRACT-LAB_OPPT
00:000033BC 007B            	  7016: 	dc.w	$007B					* *
00:000033BE EE38            	  7017: 	dc.w	LAB_MULTIPLY-LAB_OPPT
00:000033C0 007B            	  7018: 	dc.w	$007B					* /
00:000033C2 EECA            	  7019: 	dc.w	LAB_DIVIDE-LAB_OPPT
00:000033C4 007F            	  7020: 	dc.w	$007F					* ^
00:000033C6 F334            	  7021: 	dc.w	LAB_POWER-LAB_OPPT
00:000033C8 0050            	  7022: 	dc.w	$0050					* AND
00:000033CA E2C8            	  7023: 	dc.w	LAB_AND-LAB_OPPT
00:000033CC 0046            	  7024: 	dc.w	$0046					* EOR
00:000033CE E2B8            	  7025: 	dc.w	LAB_EOR-LAB_OPPT
00:000033D0 0046            	  7026: 	dc.w	$0046					* OR
00:000033D2 E2C0            	  7027: 	dc.w	LAB_OR-LAB_OPPT
00:000033D4 0056            	  7028: 	dc.w	$0056					* >>
00:000033D6 E36C            	  7029: 	dc.w	LAB_RSHIFT-LAB_OPPT
00:000033D8 0056            	  7030: 	dc.w	$0056					* <<
00:000033DA E35C            	  7031: 	dc.w	LAB_LSHIFT-LAB_OPPT
00:000033DC 007D            	  7032: 	dc.w	$007D					* >
00:000033DE F398            	  7033: 	dc.w	LAB_GTHAN-LAB_OPPT		* used to evaluate -n
00:000033E0 005A            	  7034: 	dc.w	$005A					* =
00:000033E2 E2DE            	  7035: 	dc.w	LAB_EQUAL-LAB_OPPT		* used to evaluate NOT
00:000033E4 0064            	  7036: 	dc.w	$0064					* <
00:000033E6 E2E8            	  7037: 	dc.w	LAB_LTHAN-LAB_OPPT
                            	  7038: 
                            	  7039: 							* misc constants
                            	  7040: 
                            	  7041: * This table is used in converting numbers to ASCII.
                            	  7042: * first four entries for expansion to 9.25 digits
                            	  7043: 
                            	  7044: *	dc.l	$C4653600				* -1000000000
                            	  7045: *	dc.l	$05F5E100				* 100000000
                            	  7046: *	dc.l	$FF676980				* -10000000
                            	  7047: *	dc.l	$000F4240				* 1000000
                            	  7048: LAB_2A9A
00:000033E8 FFFE7960        	  7049: 	dc.l	$FFFE7960				* -100000
00:000033EC 00002710        	  7050: 	dc.l	$00002710				* 10000
00:000033F0 FFFFFC18        	  7051: 	dc.l	$FFFFFC18				* -1000
00:000033F4 00000064        	  7052: 	dc.l	$00000064				* 100
00:000033F8 FFFFFFF6        	  7053: 	dc.l	$FFFFFFF6				* -10
00:000033FC 00000001        	  7054: 	dc.l	$00000001				* 1
                            	  7055: 
                            	  7056: * new keyword tables
                            	  7057: 
                            	  7058: * offsets to keyword tables
                            	  7059: 
                            	  7060: TAB_CHRT
00:00003400 0000            	  7061: 	dc.w	TAB_STAR-TAB_STAR			* "*"	$2A
00:00003402 0002            	  7062: 	dc.w	TAB_PLUS-TAB_STAR			* "+"	$2B
00:00003404 FFFF            	  7063: 	dc.w	-1					* "," $2C no keywords
00:00003406 0004            	  7064: 	dc.w	TAB_MNUS-TAB_STAR			* "-"	$2D
00:00003408 FFFF            	  7065: 	dc.w	-1					* "." $2E no keywords
00:0000340A 0006            	  7066: 	dc.w	TAB_SLAS-TAB_STAR			* "/"	$2F
00:0000340C FFFF            	  7067: 	dc.w	-1					* "0" $30 no keywords
00:0000340E FFFF            	  7068: 	dc.w	-1					* "1" $31 no keywords
00:00003410 FFFF            	  7069: 	dc.w	-1					* "2" $32 no keywords
00:00003412 FFFF            	  7070: 	dc.w	-1					* "3" $33 no keywords
00:00003414 FFFF            	  7071: 	dc.w	-1					* "4" $34 no keywords
00:00003416 FFFF            	  7072: 	dc.w	-1					* "5" $35 no keywords
00:00003418 FFFF            	  7073: 	dc.w	-1					* "6" $36 no keywords
00:0000341A FFFF            	  7074: 	dc.w	-1					* "7" $37 no keywords
00:0000341C FFFF            	  7075: 	dc.w	-1					* "8" $38 no keywords
00:0000341E FFFF            	  7076: 	dc.w	-1					* "9" $39 no keywords
00:00003420 FFFF            	  7077: 	dc.w	-1					* ";" $3A no keywords
00:00003422 FFFF            	  7078: 	dc.w	-1					* ":" $3B no keywords
00:00003424 0008            	  7079: 	dc.w	TAB_LESS-TAB_STAR			* "<"	$3C
00:00003426 000C            	  7080: 	dc.w	TAB_EQUL-TAB_STAR			* "="	$3D
00:00003428 000E            	  7081: 	dc.w	TAB_MORE-TAB_STAR			* ">"	$3E
00:0000342A 0012            	  7082: 	dc.w	TAB_QEST-TAB_STAR			* "?"	$3F
00:0000342C FFFF            	  7083: 	dc.w	-1					* "@" $40 no keywords
00:0000342E 0014            	  7084: 	dc.w	TAB_ASCA-TAB_STAR			* "A"	$41
00:00003430 0024            	  7085: 	dc.w	TAB_ASCB-TAB_STAR			* "B"	$42
00:00003432 003D            	  7086: 	dc.w	TAB_ASCC-TAB_STAR			* "C"	$43
00:00003434 0054            	  7087: 	dc.w	TAB_ASCD-TAB_STAR			* "D"	$44
00:00003436 006D            	  7088: 	dc.w	TAB_ASCE-TAB_STAR			* "E"	$45
00:00003438 0078            	  7089: 	dc.w	TAB_ASCF-TAB_STAR			* "F"	$46
00:0000343A 0082            	  7090: 	dc.w	TAB_ASCG-TAB_STAR			* "G"	$47
00:0000343C 008F            	  7091: 	dc.w	TAB_ASCH-TAB_STAR			* "H"	$48
00:0000343E 0095            	  7092: 	dc.w	TAB_ASCI-TAB_STAR			* "I"	$49
00:00003440 FFFF            	  7093: 	dc.w	-1					* "J" $4A no keywords
00:00003442 FFFF            	  7094: 	dc.w	-1					* "K" $4B no keywords
00:00003444 00A4            	  7095: 	dc.w	TAB_ASCL-TAB_STAR			* "L"	$4C
00:00003446 00D2            	  7096: 	dc.w	TAB_ASCM-TAB_STAR			* "M"	$4D
00:00003448 00E0            	  7097: 	dc.w	TAB_ASCN-TAB_STAR			* "N"	$4E
00:0000344A 00EF            	  7098: 	dc.w	TAB_ASCO-TAB_STAR			* "O"	$4F
00:0000344C 00F4            	  7099: 	dc.w	TAB_ASCP-TAB_STAR			* "P"	$50
00:0000344E FFFF            	  7100: 	dc.w	-1					* "Q" $51 no keywords
00:00003450 0109            	  7101: 	dc.w	TAB_ASCR-TAB_STAR			* "R"	$52
00:00003452 0133            	  7102: 	dc.w	TAB_ASCS-TAB_STAR			* "S"	$53
00:00003454 015E            	  7103: 	dc.w	TAB_ASCT-TAB_STAR			* "T"	$54
00:00003456 0172            	  7104: 	dc.w	TAB_ASCU-TAB_STAR			* "U"	$55
00:00003458 0183            	  7105: 	dc.w	TAB_ASCV-TAB_STAR			* "V"	$56
00:0000345A 018F            	  7106: 	dc.w	TAB_ASCW-TAB_STAR			* "W"	$57
00:0000345C FFFF            	  7107: 	dc.w	-1					* "X" $58 no keywords
00:0000345E FFFF            	  7108: 	dc.w	-1					* "Y" $59 no keywords
00:00003460 FFFF            	  7109: 	dc.w	-1					* "Z" $5A no keywords
00:00003462 FFFF            	  7110: 	dc.w	-1					* "[" $5B no keywords
00:00003464 FFFF            	  7111: 	dc.w	-1					* "\" $5C no keywords
00:00003466 FFFF            	  7112: 	dc.w	-1					* "]" $5D no keywords
00:00003468 019E            	  7113: 	dc.w	TAB_POWR-TAB_STAR			* "^"	$5E
                            	  7114: 
                            	  7115: * Table of Basic keywords for LIST command
                            	  7116: * [byte]first character,[byte]remaining length -1
                            	  7117: * [word]offset from table start
                            	  7118: 
                            	  7119: LAB_KEYT
00:0000346A 45              	  7120: 	dc.b	'E',1
00:0000346B 01
00:0000346C 006D            	  7121: 	dc.w	KEY_END-TAB_STAR			* END
00:0000346E 46              	  7122: 	dc.b	'F',1
00:0000346F 01
00:00003470 0078            	  7123: 	dc.w	KEY_FOR-TAB_STAR			* FOR
00:00003472 4E              	  7124: 	dc.b	'N',2
00:00003473 02
00:00003474 00E3            	  7125: 	dc.w	KEY_NEXT-TAB_STAR			* NEXT
00:00003476 44              	  7126: 	dc.b	'D',2
00:00003477 02
00:00003478 0054            	  7127: 	dc.w	KEY_DATA-TAB_STAR			* DATA
00:0000347A 49              	  7128: 	dc.b	'I',3
00:0000347B 03
00:0000347C 009A            	  7129: 	dc.w	KEY_INPUT-TAB_STAR		* INPUT
00:0000347E 44              	  7130: 	dc.b	'D',1
00:0000347F 01
00:00003480 0063            	  7131: 	dc.w	KEY_DIM-TAB_STAR			* DIM
00:00003482 52              	  7132: 	dc.b	'R',2
00:00003483 02
00:00003484 0110            	  7133: 	dc.w	KEY_READ-TAB_STAR			* READ
00:00003486 4C              	  7134: 	dc.b	'L',1
00:00003487 01
00:00003488 00BA            	  7135: 	dc.w	KEY_LET-TAB_STAR			* LET
00:0000348A 44              	  7136: 	dc.b	'D',1
00:0000348B 01
00:0000348C 0058            	  7137: 	dc.w	KEY_DEC-TAB_STAR			* DEC
00:0000348E 47              	  7138: 	dc.b	'G',2
00:0000348F 02
00:00003490 0085            	  7139: 	dc.w	KEY_GOTO-TAB_STAR			* GOTO
00:00003492 52              	  7140: 	dc.b	'R',1
00:00003493 01
00:00003494 012F            	  7141: 	dc.w	KEY_RUN-TAB_STAR			* RUN
00:00003496 49              	  7142: 	dc.b	'I',0
00:00003497 00
00:00003498 0095            	  7143: 	dc.w	KEY_IF-TAB_STAR			* IF
00:0000349A 52              	  7144: 	dc.b	'R',5
00:0000349B 05
00:0000349C 0117            	  7145: 	dc.w	KEY_RESTORE-TAB_STAR		* RESTORE
00:0000349E 47              	  7146: 	dc.b	'G',3
00:0000349F 03
00:000034A0 0089            	  7147: 	dc.w	KEY_GOSUB-TAB_STAR		* GOSUB
00:000034A2 52              	  7148: 	dc.b	'R',4
00:000034A3 04
00:000034A4 011E            	  7149: 	dc.w	KEY_RETURN-TAB_STAR		* RETURN
00:000034A6 52              	  7150: 	dc.b	'R',1
00:000034A7 01
00:000034A8 0114            	  7151: 	dc.w	KEY_REM-TAB_STAR			* REM
00:000034AA 53              	  7152: 	dc.b	'S',2
00:000034AB 02
00:000034AC 0150            	  7153: 	dc.w	KEY_STOP-TAB_STAR			* STOP
00:000034AE 4F              	  7154: 	dc.b	'O',0
00:000034AF 00
00:000034B0 00EF            	  7155: 	dc.w	KEY_ON-TAB_STAR			* ON
00:000034B2 4E              	  7156: 	dc.b	'N',2
00:000034B3 02
00:000034B4 00EA            	  7157: 	dc.w	KEY_NULL-TAB_STAR			* NULL
00:000034B6 49              	  7158: 	dc.b	'I',1
00:000034B7 01
00:000034B8 0097            	  7159: 	dc.w	KEY_INC-TAB_STAR			* INC
00:000034BA 57              	  7160: 	dc.b	'W',2
00:000034BB 02
00:000034BC 018F            	  7161: 	dc.w	KEY_WAIT-TAB_STAR			* WAIT
00:000034BE 4C              	  7162: 	dc.b	'L',2
00:000034BF 02
00:000034C0 00C1            	  7163: 	dc.w	KEY_LOAD-TAB_STAR			* LOAD
00:000034C2 53              	  7164: 	dc.b	'S',2
00:000034C3 02
00:000034C4 0138            	  7165: 	dc.w	KEY_SAVE-TAB_STAR			* SAVE
00:000034C6 44              	  7166: 	dc.b	'D',1
00:000034C7 01
00:000034C8 0060            	  7167: 	dc.w	KEY_DEF-TAB_STAR			* DEF
00:000034CA 50              	  7168: 	dc.b	'P',2
00:000034CB 02
00:000034CC 00FB            	  7169: 	dc.w	KEY_POKE-TAB_STAR			* POKE
00:000034CE 44              	  7170: 	dc.b	'D',2
00:000034CF 02
00:000034D0 0066            	  7171: 	dc.w	KEY_DOKE-TAB_STAR			* DOKE
00:000034D2 4C              	  7172: 	dc.b	'L',2
00:000034D3 02
00:000034D4 00C9            	  7173: 	dc.w	KEY_LOKE-TAB_STAR			* LOKE
00:000034D6 43              	  7174: 	dc.b	'C',2
00:000034D7 02
00:000034D8 003D            	  7175: 	dc.w	KEY_CALL-TAB_STAR			* CALL
00:000034DA 44              	  7176: 	dc.b	'D',0
00:000034DB 00
00:000034DC 006A            	  7177: 	dc.w	KEY_DO-TAB_STAR			* DO
00:000034DE 4C              	  7178: 	dc.b	'L',2
00:000034DF 02
00:000034E0 00CD            	  7179: 	dc.w	KEY_LOOP-TAB_STAR			* LOOP
00:000034E2 50              	  7180: 	dc.b	'P',3
00:000034E3 03
00:000034E4 0103            	  7181: 	dc.w	KEY_PRINT-TAB_STAR		* PRINT
00:000034E6 43              	  7182: 	dc.b	'C',2
00:000034E7 02
00:000034E8 004B            	  7183: 	dc.w	KEY_CONT-TAB_STAR			* CONT
00:000034EA 4C              	  7184: 	dc.b	'L',2
00:000034EB 02
00:000034EC 00BD            	  7185: 	dc.w	KEY_LIST-TAB_STAR			* LIST
00:000034EE 43              	  7186: 	dc.b	'C',3
00:000034EF 03
00:000034F0 0046            	  7187: 	dc.w	KEY_CLEAR-TAB_STAR		* CLEAR
00:000034F2 4E              	  7188: 	dc.b	'N',1
00:000034F3 01
00:000034F4 00E0            	  7189: 	dc.w	KEY_NEW-TAB_STAR			* NEW
00:000034F6 57              	  7190: 	dc.b	'W',3
00:000034F7 03
00:000034F8 0198            	  7191: 	dc.w	KEY_WIDTH-TAB_STAR		* WIDTH
00:000034FA 47              	  7192: 	dc.b	'G',1
00:000034FB 01
00:000034FC 0082            	  7193: 	dc.w	KEY_GET-TAB_STAR			* GET
00:000034FE 53              	  7194: 	dc.b	'S',2
00:000034FF 02
00:00003500 0159            	  7195: 	dc.w	KEY_SWAP-TAB_STAR			* SWAP
00:00003502 42              	  7196: 	dc.b	'B',4
00:00003503 04
00:00003504 002F            	  7197: 	dc.w	KEY_BITSET-TAB_STAR		* BITSET
00:00003506 42              	  7198: 	dc.b	'B',4
00:00003507 04
00:00003508 0029            	  7199: 	dc.w	KEY_BITCLR-TAB_STAR		* BITCLR
00:0000350A 54              	  7200: 	dc.b	'T',2
00:0000350B 02
00:0000350C 015E            	  7201: 	dc.w	KEY_TAB-TAB_STAR			* TAB(
                            	  7202: 
00:0000350E 54              	  7203: 	dc.b	'T',0
00:0000350F 00
00:00003510 016A            	  7204: 	dc.w	KEY_TO-TAB_STAR			* TO
00:00003512 46              	  7205: 	dc.b	'F',0
00:00003513 00
00:00003514 007B            	  7206: 	dc.w	KEY_FN-TAB_STAR			* FN
00:00003516 53              	  7207: 	dc.b	'S',2
00:00003517 02
00:00003518 0144            	  7208: 	dc.w	KEY_SPC-TAB_STAR			* SPC(
00:0000351A 54              	  7209: 	dc.b	'T',2
00:0000351B 02
00:0000351C 0166            	  7210: 	dc.w	KEY_THEN-TAB_STAR			* THEN
00:0000351E 4E              	  7211: 	dc.b	'N',1
00:0000351F 01
00:00003520 00E7            	  7212: 	dc.w	KEY_NOT-TAB_STAR			* NOT
00:00003522 53              	  7213: 	dc.b	'S',2
00:00003523 02
00:00003524 014C            	  7214: 	dc.w	KEY_STEP-TAB_STAR			* STEP
00:00003526 55              	  7215: 	dc.b	'U',3
00:00003527 03
00:00003528 0179            	  7216: 	dc.w	KEY_UNTIL-TAB_STAR		* UNTIL
00:0000352A 57              	  7217: 	dc.b	'W',3
00:0000352B 03
00:0000352C 0193            	  7218: 	dc.w	KEY_WHILE-TAB_STAR		* WHILE
                            	  7219: 
00:0000352E 2B              	  7220: 	dc.b	'+',-1
00:0000352F FF
00:00003530 0002            	  7221: 	dc.w	KEY_PLUS-TAB_STAR			* +
00:00003532 2D              	  7222: 	dc.b	'-',-1
00:00003533 FF
00:00003534 0004            	  7223: 	dc.w	KEY_MINUS-TAB_STAR		* -
00:00003536 2A              	  7224: 	dc.b	'*',-1
00:00003537 FF
00:00003538 0000            	  7225: 	dc.w	KEY_MULT-TAB_STAR			* *
00:0000353A 2F              	  7226: 	dc.b	'/',-1
00:0000353B FF
00:0000353C 0006            	  7227: 	dc.w	KEY_DIV-TAB_STAR			* /
00:0000353E 5E              	  7228: 	dc.b	'^',-1
00:0000353F FF
00:00003540 019E            	  7229: 	dc.w	KEY_POWER-TAB_STAR		* ^
00:00003542 41              	  7230: 	dc.b	'A',1
00:00003543 01
00:00003544 0018            	  7231: 	dc.w	KEY_AND-TAB_STAR			* AND
00:00003546 45              	  7232: 	dc.b	'E',1
00:00003547 01
00:00003548 0070            	  7233: 	dc.w	KEY_EOR-TAB_STAR			* EOR
00:0000354A 4F              	  7234: 	dc.b	'O',0
00:0000354B 00
00:0000354C 00F1            	  7235: 	dc.w	KEY_OR-TAB_STAR			* OR
00:0000354E 3E              	  7236: 	dc.b	'>',0
00:0000354F 00
00:00003550 000E            	  7237: 	dc.w	KEY_RSHIFT-TAB_STAR		* >>
00:00003552 3C              	  7238: 	dc.b	'<',0
00:00003553 00
00:00003554 0008            	  7239: 	dc.w	KEY_LSHIFT-TAB_STAR		* <<
00:00003556 3E              	  7240: 	dc.b	'>',-1
00:00003557 FF
00:00003558 0010            	  7241: 	dc.w	KEY_GT-TAB_STAR			* >
00:0000355A 3D              	  7242: 	dc.b	'=',-1
00:0000355B FF
00:0000355C 000C            	  7243: 	dc.w	KEY_EQUAL-TAB_STAR		* =
00:0000355E 3C              	  7244: 	dc.b	'<',-1
00:0000355F FF
00:00003560 000A            	  7245: 	dc.w	KEY_LT-TAB_STAR			* <
                            	  7246: 
00:00003562 53              	  7247: 	dc.b	'S',2
00:00003563 02
00:00003564 013C            	  7248: 	dc.w	KEY_SGN-TAB_STAR			* SGN(
00:00003566 49              	  7249: 	dc.b	'I',2
00:00003567 02
00:00003568 009F            	  7250: 	dc.w	KEY_INT-TAB_STAR			* INT(
00:0000356A 41              	  7251: 	dc.b	'A',2
00:0000356B 02
00:0000356C 0014            	  7252: 	dc.w	KEY_ABS-TAB_STAR			* ABS(
00:0000356E 55              	  7253: 	dc.b	'U',2
00:0000356F 02
00:00003570 017E            	  7254: 	dc.w	KEY_USR-TAB_STAR			* USR(
00:00003572 46              	  7255: 	dc.b	'F',2
00:00003573 02
00:00003574 007D            	  7256: 	dc.w	KEY_FRE-TAB_STAR			* FRE(
00:00003576 50              	  7257: 	dc.b	'P',2
00:00003577 02
00:00003578 00FF            	  7258: 	dc.w	KEY_POS-TAB_STAR			* POS(
00:0000357A 53              	  7259: 	dc.b	'S',2
00:0000357B 02
00:0000357C 0148            	  7260: 	dc.w	KEY_SQR-TAB_STAR			* SQR(
00:0000357E 52              	  7261: 	dc.b	'R',2
00:0000357F 02
00:00003580 012B            	  7262: 	dc.w	KEY_RND-TAB_STAR			* RND(
00:00003582 4C              	  7263: 	dc.b	'L',2
00:00003583 02
00:00003584 00C5            	  7264: 	dc.w	KEY_LOG-TAB_STAR			* LOG(
00:00003586 45              	  7265: 	dc.b	'E',2
00:00003587 02
00:00003588 0073            	  7266: 	dc.w	KEY_EXP-TAB_STAR			* EXP(
00:0000358A 43              	  7267: 	dc.b	'C',2
00:0000358B 02
00:0000358C 004F            	  7268: 	dc.w	KEY_COS-TAB_STAR			* COS(
00:0000358E 53              	  7269: 	dc.b	'S',2
00:0000358F 02
00:00003590 0140            	  7270: 	dc.w	KEY_SIN-TAB_STAR			* SIN(
00:00003592 54              	  7271: 	dc.b	'T',2
00:00003593 02
00:00003594 0162            	  7272: 	dc.w	KEY_TAN-TAB_STAR			* TAN(
00:00003596 41              	  7273: 	dc.b	'A',2
00:00003597 02
00:00003598 001F            	  7274: 	dc.w	KEY_ATN-TAB_STAR			* ATN(
00:0000359A 50              	  7275: 	dc.b	'P',3
00:0000359B 03
00:0000359C 00F4            	  7276: 	dc.w	KEY_PEEK-TAB_STAR			* PEEK(
00:0000359E 44              	  7277: 	dc.b	'D',3
00:0000359F 03
00:000035A0 005B            	  7278: 	dc.w	KEY_DEEK-TAB_STAR			* DEEK(
00:000035A2 4C              	  7279: 	dc.b	'L',3
00:000035A3 03
00:000035A4 00AB            	  7280: 	dc.w	KEY_LEEK-TAB_STAR			* LEEK(
00:000035A6 4C              	  7281: 	dc.b	'L',2
00:000035A7 02
00:000035A8 00B6            	  7282: 	dc.w	KEY_LEN-TAB_STAR			* LEN(
00:000035AA 53              	  7283: 	dc.b	'S',3
00:000035AB 03
00:000035AC 0154            	  7284: 	dc.w	KEY_STRS-TAB_STAR			* STR$(
00:000035AE 56              	  7285: 	dc.b	'V',2
00:000035AF 02
00:000035B0 0183            	  7286: 	dc.w	KEY_VAL-TAB_STAR			* VAL(
00:000035B2 41              	  7287: 	dc.b	'A',2
00:000035B3 02
00:000035B4 001B            	  7288: 	dc.w	KEY_ASC-TAB_STAR			* ASC(
00:000035B6 55              	  7289: 	dc.b	'U',5
00:000035B7 05
00:000035B8 0172            	  7290: 	dc.w	KEY_UCASES-TAB_STAR		* UCASE$(
00:000035BA 4C              	  7291: 	dc.b	'L',5
00:000035BB 05
00:000035BC 00A4            	  7292: 	dc.w	KEY_LCASES-TAB_STAR		* LCASE$(
00:000035BE 43              	  7293: 	dc.b	'C',3
00:000035BF 03
00:000035C0 0041            	  7294: 	dc.w	KEY_CHRS-TAB_STAR			* CHR$(
00:000035C2 48              	  7295: 	dc.b	'H',3
00:000035C3 03
00:000035C4 008F            	  7296: 	dc.w	KEY_HEXS-TAB_STAR			* HEX$(
00:000035C6 42              	  7297: 	dc.b	'B',3
00:000035C7 03
00:000035C8 0024            	  7298: 	dc.w	KEY_BINS-TAB_STAR			* BIN$(
00:000035CA 42              	  7299: 	dc.b	'B',5
00:000035CB 05
00:000035CC 0035            	  7300: 	dc.w	KEY_BITTST-TAB_STAR		* BITTST(
00:000035CE 4D              	  7301: 	dc.b	'M',2
00:000035CF 02
00:000035D0 00D2            	  7302: 	dc.w	KEY_MAX-TAB_STAR			* MAX(
00:000035D2 4D              	  7303: 	dc.b	'M',2
00:000035D3 02
00:000035D4 00DB            	  7304: 	dc.w	KEY_MIN-TAB_STAR			* MIN(
00:000035D6 52              	  7305: 	dc.b	'R',5
00:000035D7 05
00:000035D8 0109            	  7306: 	dc.w	KEY_RAM-TAB_STAR			* RAMBASE
00:000035DA 50              	  7307: 	dc.b	'P',0
00:000035DB 00
00:000035DC 00F9            	  7308: 	dc.w	KEY_PI-TAB_STAR			* PI
00:000035DE 54              	  7309: 	dc.b	'T',3
00:000035DF 03
00:000035E0 016C            	  7310: 	dc.w	KEY_TWOPI-TAB_STAR		* TWOPI
00:000035E2 56              	  7311: 	dc.b	'V',5
00:000035E3 05
00:000035E4 0187            	  7312: 	dc.w	KEY_VPTR-TAB_STAR			* VARPTR(
00:000035E6 53              	  7313: 	dc.b	'S',3
00:000035E7 03
00:000035E8 0133            	  7314: 	dc.w	KEY_SADD-TAB_STAR			* SADD(
00:000035EA 4C              	  7315: 	dc.b	'L',4
00:000035EB 04
00:000035EC 00B0            	  7316: 	dc.w	KEY_LEFTS-TAB_STAR		* LEFT$(
00:000035EE 52              	  7317: 	dc.b	'R',5
00:000035EF 05
00:000035F0 0124            	  7318: 	dc.w	KEY_RIGHTS-TAB_STAR		* RIGHT$(
00:000035F2 4D              	  7319: 	dc.b	'M',3
00:000035F3 03
00:000035F4 00D6            	  7320: 	dc.w	KEY_MIDS-TAB_STAR			* MID$(
                            	  7321: 
                            	  7322: * BASIC error messages
                            	  7323: 
                            	  7324: LAB_BAER
00:000035F6 002C            	  7325: 	dc.w	LAB_NF-LAB_BAER			* $00 NEXT without FOR
00:000035F8 003D            	  7326: 	dc.w	LAB_SN-LAB_BAER			* $02 syntax
00:000035FA 0044            	  7327: 	dc.w	LAB_RG-LAB_BAER			* $04 RETURN without GOSUB
00:000035FC 0059            	  7328: 	dc.w	LAB_OD-LAB_BAER			* $06 out of data
00:000035FE 0065            	  7329: 	dc.w	LAB_FC-LAB_BAER			* $08 function call
00:00003600 0073            	  7330: 	dc.w	LAB_OV-LAB_BAER			* $0A overflow
00:00003602 007C            	  7331: 	dc.w	LAB_OM-LAB_BAER			* $0C out of memory
00:00003604 008A            	  7332: 	dc.w	LAB_US-LAB_BAER			* $0E undefined statement
00:00003606 009E            	  7333: 	dc.w	LAB_BS-LAB_BAER			* $10 array bounds
00:00003608 00AB            	  7334: 	dc.w	LAB_DD-LAB_BAER			* $12 double dimension array
00:0000360A 00BC            	  7335: 	dc.w	LAB_D0-LAB_BAER			* $14 divide by 0
00:0000360C 00CB            	  7336: 	dc.w	LAB_ID-LAB_BAER			* $16 illegal direct
00:0000360E 00DA            	  7337: 	dc.w	LAB_TM-LAB_BAER			* $18 type mismatch
00:00003610 00E8            	  7338: 	dc.w	LAB_LS-LAB_BAER			* $1A long string
00:00003612 00F8            	  7339: 	dc.w	LAB_ST-LAB_BAER			* $1C string too complex
00:00003614 010B            	  7340: 	dc.w	LAB_CN-LAB_BAER			* $1E continue error
00:00003616 011A            	  7341: 	dc.w	LAB_UF-LAB_BAER			* $20 undefined function
00:00003618 012D            	  7342: 	dc.w	LAB_LD-LAB_BAER			* $22 LOOP without DO
00:0000361A 013D            	  7343: 	dc.w	LAB_UV-LAB_BAER			* $24 undefined variable
00:0000361C 0150            	  7344: 	dc.w	LAB_UA-LAB_BAER			* $26 undimensioned array
00:0000361E 0164            	  7345: 	dc.w	LAB_WD-LAB_BAER			* $28 wrong dimensions
00:00003620 0175            	  7346: 	dc.w	LAB_AD-LAB_BAER			* $2A address
                            	  7347: 
00:00003622 4E45585420776974	  7348: LAB_NF	dc.b	'NEXT without FOR',$00
00:0000362A 686F757420464F52
00:00003632 00
00:00003633 53796E746178    	  7349: LAB_SN	dc.b	'Syntax',$00
00:00003639 00
00:0000363A 52455455524E2077	  7350: LAB_RG	dc.b	'RETURN without GOSUB',$00
00:00003642 6974686F75742047
00:0000364A 4F535542
00:0000364E 00
00:0000364F 4F7574206F662044	  7351: LAB_OD	dc.b	'Out of DATA',$00
00:00003657 415441
00:0000365A 00
00:0000365B 46756E6374696F6E	  7352: LAB_FC	dc.b	'Function call',$00
00:00003663 2063616C6C
00:00003668 00
00:00003669 4F766572666C6F77	  7353: LAB_OV	dc.b	'Overflow',$00
00:00003671 00
00:00003672 4F7574206F66206D	  7354: LAB_OM	dc.b	'Out of memory',$00
00:0000367A 656D6F7279
00:0000367F 00
00:00003680 556E646566696E65	  7355: LAB_US	dc.b	'Undefined statement',$00
00:00003688 642073746174656D
00:00003690 656E74
00:00003693 00
00:00003694 417272617920626F	  7356: LAB_BS	dc.b	'Array bounds',$00
00:0000369C 756E6473
00:000036A0 00
00:000036A1 446F75626C652064	  7357: LAB_DD	dc.b	'Double dimension',$00
00:000036A9 696D656E73696F6E
00:000036B1 00
00:000036B2 4469766964652062	  7358: LAB_D0	dc.b	'Divide by zero',$00
00:000036BA 79207A65726F
00:000036C0 00
00:000036C1 496C6C6567616C20	  7359: LAB_ID	dc.b	'Illegal direct',$00
00:000036C9 646972656374
00:000036CF 00
00:000036D0 54797065206D6973	  7360: LAB_TM	dc.b	'Type mismatch',$00
00:000036D8 6D61746368
00:000036DD 00
00:000036DE 537472696E672074	  7361: LAB_LS	dc.b	'String too long',$00
00:000036E6 6F6F206C6F6E67
00:000036ED 00
00:000036EE 537472696E672074	  7362: LAB_ST	dc.b	'String too complex',$00
00:000036F6 6F6F20636F6D706C
00:000036FE 6578
00:00003700 00
00:00003701 43616E277420636F	  7363: LAB_CN	dc.b	'Can''t continue',$00
00:00003709 6E74696E7565
00:0000370F 00
00:00003710 556E646566696E65	  7364: LAB_UF	dc.b	'Undefined function',$00
00:00003718 642066756E637469
00:00003720 6F6E
00:00003722 00
00:00003723 4C4F4F5020776974	  7365: LAB_LD	dc.b	'LOOP without DO',$00
00:0000372B 686F757420444F
00:00003732 00
00:00003733 556E646566696E65	  7366: LAB_UV	dc.b	'Undefined variable',$00
00:0000373B 6420766172696162
00:00003743 6C65
00:00003745 00
00:00003746 556E64696D656E73	  7367: LAB_UA	dc.b	'Undimensioned array',$00
00:0000374E 696F6E6564206172
00:00003756 726179
00:00003759 00
00:0000375A 57726F6E67206469	  7368: LAB_WD	dc.b	'Wrong dimensions',$00
00:00003762 6D656E73696F6E73
00:0000376A 00
00:0000376B 41646472657373  	  7369: LAB_AD	dc.b	'Address',$00
00:00003772 00
                            	  7370: 
                            	  7371: * keyword table for line (un)crunching
                            	  7372: 
                            	  7373: * [keyword,token
                            	  7374: * [keyword,token]]
                            	  7375: * end marker (#$00)
                            	  7376: 
                            	  7377: TAB_STAR
                            	  7378: KEY_MULT
00:00003773 B3              	  7379: 	dc.b TK_MULT,$00				* *
00:00003774 00
                            	  7380: TAB_PLUS
                            	  7381: KEY_PLUS
00:00003775 B1              	  7382: 	dc.b TK_PLUS,$00				* +
00:00003776 00
                            	  7383: TAB_MNUS
                            	  7384: KEY_MINUS
00:00003777 B2              	  7385: 	dc.b TK_MINUS,$00				* -
00:00003778 00
                            	  7386: TAB_SLAS
                            	  7387: KEY_DIV
00:00003779 B4              	  7388: 	dc.b TK_DIV,$00				* /
00:0000377A 00
                            	  7389: TAB_LESS
                            	  7390: KEY_LSHIFT
00:0000377B 3C              	  7391: 	dc.b	'<',TK_LSHIFT			* <<
00:0000377C BA
                            	  7392: KEY_LT
00:0000377D BD              	  7393: 	dc.b TK_LT					* <
00:0000377E 00              	  7394: 	dc.b	$00
                            	  7395: TAB_EQUL
                            	  7396: KEY_EQUAL
00:0000377F BC              	  7397: 	dc.b TK_EQUAL,$00				* =
00:00003780 00
                            	  7398: TAB_MORE
                            	  7399: KEY_RSHIFT
00:00003781 3E              	  7400: 	dc.b	'>',TK_RSHIFT			* >>
00:00003782 B9
                            	  7401: KEY_GT
00:00003783 BB              	  7402: 	dc.b TK_GT					* >
00:00003784 00              	  7403: 	dc.b	$00
                            	  7404: TAB_QEST
00:00003785 9E              	  7405: 	dc.b TK_PRINT,$00				* ?
00:00003786 00
                            	  7406: TAB_ASCA
                            	  7407: KEY_ABS
00:00003787 425328          	  7408: 	dc.b	'BS(',TK_ABS			* ABS(
00:0000378A C0
                            	  7409: KEY_AND
00:0000378B 4E44            	  7410: 	dc.b	'ND',TK_AND				* AND
00:0000378D B6
                            	  7411: KEY_ASC
00:0000378E 534328          	  7412: 	dc.b	'SC(',TK_ASC			* ASC(
00:00003791 D2
                            	  7413: KEY_ATN
00:00003792 544E28          	  7414: 	dc.b	'TN(',TK_ATN			* ATN(
00:00003795 CB
00:00003796 00              	  7415: 	dc.b	$00
                            	  7416: TAB_ASCB
                            	  7417: KEY_BINS
00:00003797 494E2428        	  7418: 	dc.b	'IN$(',TK_BINS			* BIN$(
00:0000379B D7
                            	  7419: KEY_BITCLR
00:0000379C 4954434C52      	  7420: 	dc.b	'ITCLR',TK_BITCLR			* BITCLR
00:000037A1 A7
                            	  7421: KEY_BITSET
00:000037A2 4954534554      	  7422: 	dc.b	'ITSET',TK_BITSET			* BITSET
00:000037A7 A6
                            	  7423: KEY_BITTST
00:000037A8 495454535428    	  7424: 	dc.b	'ITTST(',TK_BITTST		* BITTST(
00:000037AE D8
00:000037AF 00              	  7425: 	dc.b	$00
                            	  7426: TAB_ASCC
                            	  7427: KEY_CALL
00:000037B0 414C4C          	  7428: 	dc.b	'ALL',TK_CALL			* CALL
00:000037B3 9B
                            	  7429: KEY_CHRS
00:000037B4 48522428        	  7430: 	dc.b	'HR$(',TK_CHRS			* CHR$(
00:000037B8 D5
                            	  7431: KEY_CLEAR
00:000037B9 4C454152        	  7432: 	dc.b	'LEAR',TK_CLEAR			* CLEAR
00:000037BD A1
                            	  7433: KEY_CONT
00:000037BE 4F4E54          	  7434: 	dc.b	'ONT',TK_CONT			* CONT
00:000037C1 9F
                            	  7435: KEY_COS
00:000037C2 4F5328          	  7436: 	dc.b	'OS(',TK_COS			* COS(
00:000037C5 C8
00:000037C6 00              	  7437: 	dc.b	$00
                            	  7438: TAB_ASCD
                            	  7439: KEY_DATA
00:000037C7 415441          	  7440: 	dc.b	'ATA',TK_DATA			* DATA
00:000037CA 83
                            	  7441: KEY_DEC
00:000037CB 4543            	  7442: 	dc.b	'EC',TK_DEC				* DEC
00:000037CD 88
                            	  7443: KEY_DEEK
00:000037CE 45454B28        	  7444: 	dc.b	'EEK(',TK_DEEK			* DEEK(
00:000037D2 CD
                            	  7445: KEY_DEF
00:000037D3 4546            	  7446: 	dc.b	'EF',TK_DEF				* DEF
00:000037D5 97
                            	  7447: KEY_DIM
00:000037D6 494D            	  7448: 	dc.b	'IM',TK_DIM				* DIM
00:000037D8 85
                            	  7449: KEY_DOKE
00:000037D9 4F4B45          	  7450: 	dc.b	'OKE',TK_DOKE			* DOKE
00:000037DC 99
                            	  7451: KEY_DO
00:000037DD 4F              	  7452: 	dc.b	'O',TK_DO				* DO
00:000037DE 9C
00:000037DF 00              	  7453: 	dc.b	$00
                            	  7454: TAB_ASCE
                            	  7455: KEY_END
00:000037E0 4E44            	  7456: 	dc.b	'ND',TK_END				* END
00:000037E2 80
                            	  7457: KEY_EOR
00:000037E3 4F52            	  7458: 	dc.b	'OR',TK_EOR				* EOR
00:000037E5 B7
                            	  7459: KEY_EXP
00:000037E6 585028          	  7460: 	dc.b	'XP(',TK_EXP			* EXP(
00:000037E9 C7
00:000037EA 00              	  7461: 	dc.b	$00
                            	  7462: TAB_ASCF
                            	  7463: KEY_FOR
00:000037EB 4F52            	  7464: 	dc.b	'OR',TK_FOR				* FOR
00:000037ED 81
                            	  7465: KEY_FN
00:000037EE 4E              	  7466: 	dc.b	'N',TK_FN				* FN
00:000037EF AA
                            	  7467: KEY_FRE
00:000037F0 524528          	  7468: 	dc.b	'RE(',TK_FRE			* FRE(
00:000037F3 C2
00:000037F4 00              	  7469: 	dc.b	$00
                            	  7470: TAB_ASCG
                            	  7471: KEY_GET
00:000037F5 4554            	  7472: 	dc.b	'ET',TK_GET				* GET
00:000037F7 A4
                            	  7473: KEY_GOTO
00:000037F8 4F544F          	  7474: 	dc.b	'OTO',TK_GOTO			* GOTO
00:000037FB 89
                            	  7475: KEY_GOSUB
00:000037FC 4F535542        	  7476: 	dc.b	'OSUB',TK_GOSUB			* GOSUB
00:00003800 8D
00:00003801 00              	  7477: 	dc.b	$00
                            	  7478: TAB_ASCH
                            	  7479: KEY_HEXS
00:00003802 45582428        	  7480: 	dc.b	'EX$(',TK_HEXS,$00		* HEX$(
00:00003806 D6
00:00003807 00
                            	  7481: TAB_ASCI
                            	  7482: KEY_IF
00:00003808 46              	  7483: 	dc.b	'F',TK_IF				* IF
00:00003809 8B
                            	  7484: KEY_INC
00:0000380A 4E43            	  7485: 	dc.b	'NC',TK_INC				* INC
00:0000380C 93
                            	  7486: KEY_INPUT
00:0000380D 4E505554        	  7487: 	dc.b	'NPUT',TK_INPUT			* INPUT
00:00003811 84
                            	  7488: KEY_INT
00:00003812 4E5428          	  7489: 	dc.b	'NT(',TK_INT			* INT(
00:00003815 BF
00:00003816 00              	  7490: 	dc.b	$00
                            	  7491: TAB_ASCL
                            	  7492: KEY_LCASES
00:00003817 434153452428    	  7493: 	dc.b	'CASE$(',TK_LCASES		* LCASE$(
00:0000381D D4
                            	  7494: KEY_LEEK
00:0000381E 45454B28        	  7495: 	dc.b	'EEK(',TK_LEEK			* LEEK(
00:00003822 CE
                            	  7496: KEY_LEFTS
00:00003823 4546542428      	  7497: 	dc.b	'EFT$(',TK_LEFTS			* LEFT$(
00:00003828 E0
                            	  7498: KEY_LEN
00:00003829 454E28          	  7499: 	dc.b	'EN(',TK_LEN			* LEN(
00:0000382C CF
                            	  7500: KEY_LET
00:0000382D 4554            	  7501: 	dc.b	'ET',TK_LET				* LET
00:0000382F 87
                            	  7502: KEY_LIST
00:00003830 495354          	  7503: 	dc.b	'IST',TK_LIST			* LIST
00:00003833 A0
                            	  7504: KEY_LOAD
00:00003834 4F4144          	  7505: 	dc.b	'OAD',TK_LOAD			* LOAD
00:00003837 95
                            	  7506: KEY_LOG
00:00003838 4F4728          	  7507: 	dc.b	'OG(',TK_LOG			* LOG(
00:0000383B C6
                            	  7508: KEY_LOKE
00:0000383C 4F4B45          	  7509: 	dc.b	'OKE',TK_LOKE			* LOKE
00:0000383F 9A
                            	  7510: KEY_LOOP
00:00003840 4F4F50          	  7511: 	dc.b	'OOP',TK_LOOP			* LOOP
00:00003843 9D
00:00003844 00              	  7512: 	dc.b	$00
                            	  7513: TAB_ASCM
                            	  7514: KEY_MAX
00:00003845 415828          	  7515: 	dc.b	'AX(',TK_MAX			* MAX(
00:00003848 D9
                            	  7516: KEY_MIDS
00:00003849 49442428        	  7517: 	dc.b	'ID$(',TK_MIDS			* MID$(
00:0000384D E2
                            	  7518: KEY_MIN
00:0000384E 494E28          	  7519: 	dc.b	'IN(',TK_MIN			* MIN(
00:00003851 DA
00:00003852 00              	  7520: 	dc.b	$00
                            	  7521: TAB_ASCN
                            	  7522: KEY_NEW
00:00003853 4557            	  7523: 	dc.b	'EW',TK_NEW				* NEW
00:00003855 A2
                            	  7524: KEY_NEXT
00:00003856 455854          	  7525: 	dc.b	'EXT',TK_NEXT			* NEXT
00:00003859 82
                            	  7526: KEY_NOT
00:0000385A 4F54            	  7527: 	dc.b	'OT',TK_NOT				* NOT
00:0000385C AD
                            	  7528: KEY_NULL
00:0000385D 554C4C          	  7529: 	dc.b	'ULL',TK_NULL			* NULL
00:00003860 92
00:00003861 00              	  7530: 	dc.b	$00
                            	  7531: TAB_ASCO
                            	  7532: KEY_ON
00:00003862 4E              	  7533: 	dc.b	'N',TK_ON				* ON
00:00003863 91
                            	  7534: KEY_OR
00:00003864 52              	  7535: 	dc.b	'R',TK_OR				* OR
00:00003865 B8
00:00003866 00              	  7536: 	dc.b	$00
                            	  7537: TAB_ASCP
                            	  7538: KEY_PEEK
00:00003867 45454B28        	  7539: 	dc.b	'EEK(',TK_PEEK			* PEEK(
00:0000386B CC
                            	  7540: KEY_PI
00:0000386C 49              	  7541: 	dc.b	'I',TK_PI				* PI
00:0000386D DC
                            	  7542: KEY_POKE
00:0000386E 4F4B45          	  7543: 	dc.b	'OKE',TK_POKE			* POKE
00:00003871 98
                            	  7544: KEY_POS
00:00003872 4F5328          	  7545: 	dc.b	'OS(',TK_POS			* POS(
00:00003875 C3
                            	  7546: KEY_PRINT
00:00003876 52494E54        	  7547: 	dc.b	'RINT',TK_PRINT			* PRINT
00:0000387A 9E
00:0000387B 00              	  7548: 	dc.b	$00
                            	  7549: TAB_ASCR
                            	  7550: KEY_RAM
00:0000387C 414D42415345    	  7551: 	dc.b	'AMBASE',TK_RAM			* RAMBASE
00:00003882 DB
                            	  7552: KEY_READ
00:00003883 454144          	  7553: 	dc.b	'EAD',TK_READ			* READ
00:00003886 86
                            	  7554: KEY_REM
00:00003887 454D            	  7555: 	dc.b	'EM',TK_REM				* REM
00:00003889 8F
                            	  7556: KEY_RESTORE
00:0000388A 4553544F5245    	  7557: 	dc.b	'ESTORE',TK_RESTORE		* RESTORE
00:00003890 8C
                            	  7558: KEY_RETURN
00:00003891 455455524E      	  7559: 	dc.b	'ETURN',TK_RETURN			* RETURN
00:00003896 8E
                            	  7560: KEY_RIGHTS
00:00003897 494748542428    	  7561: 	dc.b	'IGHT$(',TK_RIGHTS		* RIGHT$(
00:0000389D E1
                            	  7562: KEY_RND
00:0000389E 4E4428          	  7563: 	dc.b	'ND(',TK_RND			* RND(
00:000038A1 C5
                            	  7564: KEY_RUN
00:000038A2 554E            	  7565: 	dc.b	'UN',TK_RUN				* RUN
00:000038A4 8A
00:000038A5 00              	  7566: 	dc.b	$00
                            	  7567: TAB_ASCS
                            	  7568: KEY_SADD
00:000038A6 41444428        	  7569: 	dc.b	'ADD(',TK_SADD			* SADD(
00:000038AA DF
                            	  7570: KEY_SAVE
00:000038AB 415645          	  7571: 	dc.b	'AVE',TK_SAVE			* SAVE
00:000038AE 96
                            	  7572: KEY_SGN
00:000038AF 474E28          	  7573: 	dc.b	'GN(',TK_SGN			* SGN(
00:000038B2 BE
                            	  7574: KEY_SIN
00:000038B3 494E28          	  7575: 	dc.b	'IN(',TK_SIN			* SIN(
00:000038B6 C9
                            	  7576: KEY_SPC
00:000038B7 504328          	  7577: 	dc.b	'PC(',TK_SPC			* SPC(
00:000038BA AB
                            	  7578: KEY_SQR
00:000038BB 515228          	  7579: 	dc.b	'QR(',TK_SQR			* SQR(
00:000038BE C4
                            	  7580: KEY_STEP
00:000038BF 544550          	  7581: 	dc.b	'TEP',TK_STEP			* STEP
00:000038C2 AE
                            	  7582: KEY_STOP
00:000038C3 544F50          	  7583: 	dc.b	'TOP',TK_STOP			* STOP
00:000038C6 90
                            	  7584: KEY_STRS
00:000038C7 54522428        	  7585: 	dc.b	'TR$(',TK_STRS			* STR$(
00:000038CB D0
                            	  7586: KEY_SWAP
00:000038CC 574150          	  7587: 	dc.b	'WAP',TK_SWAP			* SWAP
00:000038CF A5
00:000038D0 00              	  7588: 	dc.b	$00
                            	  7589: TAB_ASCT
                            	  7590: KEY_TAB
00:000038D1 414228          	  7591: 	dc.b	'AB(',TK_TAB			* TAB(
00:000038D4 A8
                            	  7592: KEY_TAN
00:000038D5 414E28          	  7593: 	dc.b	'AN(',TK_TAN			* TAN
00:000038D8 CA
                            	  7594: KEY_THEN
00:000038D9 48454E          	  7595: 	dc.b	'HEN',TK_THEN			* THEN
00:000038DC AC
                            	  7596: KEY_TO
00:000038DD 4F              	  7597: 	dc.b	'O',TK_TO				* TO
00:000038DE A9
                            	  7598: KEY_TWOPI
00:000038DF 574F5049        	  7599: 	dc.b	'WOPI',TK_TWOPI			* TWOPI
00:000038E3 DD
00:000038E4 00              	  7600: 	dc.b	$00
                            	  7601: TAB_ASCU
                            	  7602: KEY_UCASES
00:000038E5 434153452428    	  7603: 	dc.b	'CASE$(',TK_UCASES		* UCASE$(
00:000038EB D3
                            	  7604: KEY_UNTIL
00:000038EC 4E54494C        	  7605: 	dc.b	'NTIL',TK_UNTIL			* UNTIL
00:000038F0 AF
                            	  7606: KEY_USR
00:000038F1 535228          	  7607: 	dc.b	'SR(',TK_USR			* USR(
00:000038F4 C1
00:000038F5 00              	  7608: 	dc.b	$00
                            	  7609: TAB_ASCV
                            	  7610: KEY_VAL
00:000038F6 414C28          	  7611: 	dc.b	'AL(',TK_VAL			* VAL(
00:000038F9 D1
                            	  7612: KEY_VPTR
00:000038FA 415250545228    	  7613: 	dc.b	'ARPTR(',TK_VPTR			* VARPTR(
00:00003900 DE
00:00003901 00              	  7614: 	dc.b	$00
                            	  7615: TAB_ASCW
                            	  7616: KEY_WAIT
00:00003902 414954          	  7617: 	dc.b	'AIT',TK_WAIT			* WAIT
00:00003905 94
                            	  7618: KEY_WHILE
00:00003906 48494C45        	  7619: 	dc.b	'HILE',TK_WHILE			* WHILE
00:0000390A B0
                            	  7620: KEY_WIDTH
00:0000390B 49445448        	  7621: 	dc.b	'IDTH',TK_WIDTH			* WIDTH
00:0000390F A3
00:00003910 00              	  7622: 	dc.b	$00
                            	  7623: TAB_POWR
                            	  7624: KEY_POWER
00:00003911 B5              	  7625: 	dc.b	TK_POWER,$00			* ^
00:00003912 00
                            	  7626: 
                            	  7627: * just messages
                            	  7628: 
                            	  7629: LAB_BMSG
00:00003913 0D              	  7630: 	dc.b	$0D,$0A,'Break',$00
00:00003914 0A
00:00003915 427265616B
00:0000391A 00
                            	  7631: LAB_EMSG
00:0000391B 204572726F72    	  7632: 	dc.b	' Error',$00
00:00003921 00
                            	  7633: LAB_LMSG
00:00003922 20696E206C696E65	  7634: 	dc.b	' in line ',$00
00:0000392A 20
00:0000392B 00
                            	  7635: LAB_IMSG
00:0000392C 4578747261206967	  7636: 	dc.b	'Extra ignored',$0D,$0A,$00
00:00003934 6E6F726564
00:00003939 0D
00:0000393A 0A
00:0000393B 00
                            	  7637: LAB_REDO
00:0000393C 5265646F2066726F	  7638: 	dc.b	'Redo from start',$0D,$0A,$00
00:00003944 6D207374617274
00:0000394B 0D
00:0000394C 0A
00:0000394D 00
                            	  7639: LAB_RMSG
00:0000394E 0D              	  7640: 	dc.b	$0D,$0A,'Ready',$0D,$0A,$00
00:0000394F 0A
00:00003950 5265616479
00:00003955 0D
00:00003956 0A
00:00003957 00
                            	  7641: LAB_SMSG
00:00003958 2042797465732066	  7642: 	dc.b	' Bytes free',$0D,$0A,$0A
00:00003960 726565
00:00003963 0D
00:00003964 0A
00:00003965 0A
00:00003966 456E68616E636564	  7643: 	dc.b	'Enhanced 68k BASIC Version 3.21',$0D,$0A
00:0000396E 2036386B20424153
00:00003976 4943205665727369
00:0000397E 6F6E20332E3231
00:00003985 0D
00:00003986 0A
                            	  7644: 
                            	  7645: *************************************************************************************
                            	  7646: * EhBASIC keywords quick reference list								*
                            	  7647: *************************************************************************************
                            	  7648: 
                            	  7649: * glossary
                            	  7650: 
                            	  7651: *		<.>		  required
                            	  7652: *		{.|.}		  one of required
                            	  7653: *		[.]		  optional
                            	  7654: *		...		  may repeat as last
                            	  7655: 
                            	  7656: *		any		= anything
                            	  7657: *		num		= number
                            	  7658: *		state		= statement
                            	  7659: *		pint		= positive integer
                            	  7660: *		str		= string
                            	  7661: *		var		= variable
                            	  7662: *		nvar		= numeric variable
                            	  7663: *		svar		= string variable
                            	  7664: *		expr		= expression
                            	  7665: *		nexpr		= numeric expression
                            	  7666: *		sexpr		= string expression
                            	  7667: 
                            	  7668: * statement separator
                            	  7669: 
                            	  7670: * :		. [state] : [state]						* done
                            	  7671: 
                            	  7672: * number bases
                            	  7673: 
                            	  7674: * %		. %<binary num>							* done
                            	  7675: * $		. $<hex num>							* done
                            	  7676: 
                            	  7677: * commands
                            	  7678: 
                            	  7679: * END		. END									* done
                            	  7680: * FOR		. FOR <nvar>=<nexpr> TO <nexpr> [STEP <nexpr>]		* done
                            	  7681: * NEXT	. NEXT [<nvar>[,<nvar>]...]					* done
                            	  7682: * DATA	. DATA [{num|["]str["]}[,{num|["]str["]}]...]		* done
                            	  7683: * INPUT	. INPUT [<">str<">;] <var>[,<var>[,<var>]...]		* done
                            	  7684: * DIM		. DIM <var>(<nexpr>[,<nexpr>[,<nexpr>]])			* done
                            	  7685: * READ	. READ <var>[,<var>[,<var>]...]				* done
                            	  7686: * LET		. [LET] <var>=<expr>						* done
                            	  7687: * DEC		. DEC <nvar>[,<nvar>[,<nvar>]...]				* done
                            	  7688: * GOTO	. GOTO <pint>							* done
                            	  7689: * RUN		. RUN [pint]							* done
                            	  7690: * IF		. IF <nexpr> {THEN {pint|state}|GOTO <pint>}		* done
                            	  7691: * RESTORE	. RESTORE [pint]							* done
                            	  7692: * GOSUB	. GOSUB <pint>							* done
                            	  7693: * RETURN	. RETURN								* done
                            	  7694: * REM		. REM [any]								* done
                            	  7695: * STOP	. STOP								* done
                            	  7696: * ON		. ON <nexpr> {GOTO|GOSUB} <pint>[,<pint>[,<pint>]...]	* done
                            	  7697: * NULL	. NULL <nexpr>							* done
                            	  7698: * INC		. INC <nvar>[,<nvar>[,<nvar>]...]				* done
                            	  7699: * WAIT	. WAIT <nexpr>,<nexpr>[,<nexpr>]				* done
                            	  7700: * LOAD	. LOAD <sexpr>							* done for simulator
                            	  7701: * SAVE	. SAVE <sexpr>							* done for simulator
                            	  7702: * DEF		. DEF FN<var>(<var>)=<expr>					* done
                            	  7703: * POKE	. POKE <nexpr>,<nexpr>						* done
                            	  7704: * DOKE	. DOKE <nexpr>,<nexpr>					 	* done
                            	  7705: * LOKE	. LOKE <nexpr>,<nexpr>					 	* done
                            	  7706: * CALL	. CALL <nexpr>							* done
                            	  7707: * DO		. DO									* done
                            	  7708: * LOOP	. LOOP [{WHILE|UNTIL}<nexpr>]					* done
                            	  7709: * PRINT	. PRINT [{;|,}][expr][{;|,}[expr][{;|,}[expr]]...]	* done
                            	  7710: * CONT	. CONT								* done
                            	  7711: * LIST	. LIST [pint][-pint]						* done
                            	  7712: * CLEAR	. CLEAR								* done
                            	  7713: * NEW		. NEW									* done
                            	  7714: * WIDTH	. WIDTH [<pint>][,<pint>]					* done
                            	  7715: * GET		. GET <var>								* done
                            	  7716: * SWAP	. SWAP <var>,<var>						* done
                            	  7717: * BITSET	. BITSET <nexpr>,<nexpr>					* done
                            	  7718: * BITCLR	. BITCLR <nexpr>,<nexpr>					* done
                            	  7719: 
                            	  7720: * sub commands (may not start a statement)
                            	  7721: 
                            	  7722: * TAB		. TAB(<nexpr>)							* done
                            	  7723: * TO		. FOR <nvar>=<nexpr> TO <nexpr> [STEP <nexpr>]		* done
                            	  7724: * FN		. FN<var>(<expr>)							* done
                            	  7725: * SPC		. SPC(<nexpr>)							* done
                            	  7726: * THEN	. IF <nexpr> {THEN {pint|comm}|GOTO <pint>}		* done
                            	  7727: * NOT		. NOT <nexpr>							* done
                            	  7728: * STEP	. FOR <nvar>=<nexpr> TO <nexpr> [STEP <nexpr>]		* done
                            	  7729: * UNTIL	. LOOP [{WHILE|UNTIL}<nexpr>]					* done
                            	  7730: * WHILE	. LOOP [{WHILE|UNTIL}<nexpr>]					* done
                            	  7731: 
                            	  7732: * operators
                            	  7733: 
                            	  7734: * +		. [expr] + <expr>							* done
                            	  7735: * -		. [nexpr] - <nexpr>						* done
                            	  7736: * *		. <nexpr> * <nexpr>						* done fast hardware
                            	  7737: * /		. <nexpr> / <nexpr>						* done fast hardware
                            	  7738: * ^		. <nexpr> ^ <nexpr>						* done
                            	  7739: * AND		. <nexpr> AND <nexpr>						* done
                            	  7740: * EOR		. <nexpr> EOR <nexpr>						* done
                            	  7741: * OR		. <nexpr> OR <nexpr>						* done
                            	  7742: * >>		. <nexpr> >> <nexpr>						* done
                            	  7743: * <<		. <nexpr> << <nexpr>						* done
                            	  7744: 
                            	  7745: * compare functions
                            	  7746: 
                            	  7747: * <		. <expr> < <expr>							* done
                            	  7748: * =		. <expr> = <expr>							* done
                            	  7749: * >		. <expr> > <expr>							* done
                            	  7750: 
                            	  7751: * functions
                            	  7752: 
                            	  7753: * SGN		. SGN(<nexpr>)							* done
                            	  7754: * INT		. INT(<nexpr>)							* done
                            	  7755: * ABS		. ABS(<nexpr>)							* done
                            	  7756: * USR		. USR(<expr>)							* done
                            	  7757: * FRE		. FRE(<expr>)							* done
                            	  7758: * POS		. POS(<expr>)							* done
                            	  7759: * SQR		. SQR(<nexpr>)							* done fast shift/sub
                            	  7760: * RND		. RND(<nexpr>)							* done 32 bit PRNG
                            	  7761: * LOG		. LOG(<nexpr>)							* done fast cordic
                            	  7762: * EXP		. EXP(<nexpr>)							* done fast cordic
                            	  7763: * COS		. COS(<nexpr>)							* done fast cordic
                            	  7764: * SIN		. SIN(<nexpr>)							* done fast cordic
                            	  7765: * TAN		. TAN(<nexpr>)							* done fast cordic
                            	  7766: * ATN		. ATN(<nexpr>)							* done fast cordic
                            	  7767: * PEEK	. PEEK(<nexpr>)							* done
                            	  7768: * DEEK	. DEEK(<nexpr>)							* done
                            	  7769: * LEEK	. LEEK(<nexpr>)							* done
                            	  7770: * LEN		. LEN(<sexpr>)							* done
                            	  7771: * STR$	. STR$(<nexpr>)							* done
                            	  7772: * VAL		. VAL(<sexpr>)							* done
                            	  7773: * ASC		. ASC(<sexpr>)							* done
                            	  7774: * UCASE$	. UCASE$(<sexpr>)							* done
                            	  7775: * LCASE$	. LCASE$(<sexpr>)							* done
                            	  7776: * CHR$	. CHR$(<nexpr>)							* done
                            	  7777: * HEX$	. HEX$(<nexpr>)							* done
                            	  7778: * BIN$	. BIN$(<nexpr>)							* done
                            	  7779: * BTST	. BTST(<nexpr>,<nexpr>)						* done
                            	  7780: * MAX		. MAX(<nexpr>[,<nexpr>[,<nexpr>]...])			* done
                            	  7781: * MIN		. MIN(<nexpr>[,<nexpr>[,<nexpr>]...])			* done
                            	  7782: * PI		. PI									* done
                            	  7783: * TWOPI	. TWOPI								* done
                            	  7784: * VARPTR	. VARPTR(<var>)							* done
                            	  7785: * SADD	. SADD(<svar>)							* done
                            	  7786: * LEFT$	. LEFT$(<sexpr>,<nexpr>)					* done
                            	  7787: * RIGHT$	. RIGHT$(<sexpr>,<nexpr>)					* done
                            	  7788: * MID$	. MID$(<sexpr>,<nexpr>[,<nexpr>])				* done
                            	  7789: 
                            	  7790: 	END	code_start
                            	  7791: 

Source: "rom.s"
                            	   641: 
                            	   642: end_of_rom
                            	   643: 


Symbols by name:
AC1gtAC2                        00:000022B6
Asptl                            S:000005A8
Asrch                            S:000005DA
Astrtl                           S:000005AC
BHsend                           S:000005D6
Bin2dec                         00:00002F52
BinPr                           00:00002B36
Binss                            S:000005B6
Blinel                           S:00000456
Breakf                           S:000005DC
CORE_CR                          E:00000481
CORE_FILE_DATA                   E:00000484
CORE_INPUT0                      E:00000488
CORE_ROMS                        E:00000482
CORE_SR                          E:00000480
Cflag                            S:000005E1
Clinel                           S:00000452
Cpntrl                           S:0000045A
Decss                            S:000005C6
Defdim                           S:000005B4
Dimcnt                           S:000005DB
Dlinel                           S:0000045E
DoCmp                           00:00000F08
DoRest                          00:00000EF4
Dptrl                            S:00000462
Dtypef                           E:000005B5
Earryl                           S:00000442
Ememl                            S:0000044A
EndBHS                          00:00002B10
FAC1_e                           S:00000594
FAC1_m                           S:00000590
FAC1_s                           E:00000595
FAC2_e                           S:0000059C
FAC2_m                           S:00000598
FAC2_s                           E:0000059D
FAC_sc                           E:0000059E
Gclctd                           S:000005DE
GetFirst                        00:00001684
GetPair                         00:00001740
GoPr                            00:00002B40
Hexss                            S:000005CE
INGET                           00:00002B94
Ibuffe                           S:00000590
Ibuffs                           S:00000490
Iclim                            S:000005E7
Imode                            S:000005E0
Itemp                            S:0000042A
KEYBOARD_CR                      E:00000601
KEY_ABS                         00:00003787
KEY_AND                         00:0000378B
KEY_ASC                         00:0000378E
KEY_ATN                         00:00003792
KEY_BINS                        00:00003797
KEY_BITCLR                      00:0000379C
KEY_BITSET                      00:000037A2
KEY_BITTST                      00:000037A8
KEY_CALL                        00:000037B0
KEY_CHRS                        00:000037B4
KEY_CLEAR                       00:000037B9
KEY_CONT                        00:000037BE
KEY_COS                         00:000037C2
KEY_DATA                        00:000037C7
KEY_DEC                         00:000037CB
KEY_DEEK                        00:000037CE
KEY_DEF                         00:000037D3
KEY_DIM                         00:000037D6
KEY_DIV                         00:00003779
KEY_DO                          00:000037DD
KEY_DOKE                        00:000037D9
KEY_END                         00:000037E0
KEY_EOR                         00:000037E3
KEY_EQUAL                       00:0000377F
KEY_EXP                         00:000037E6
KEY_FN                          00:000037EE
KEY_FOR                         00:000037EB
KEY_FRE                         00:000037F0
KEY_GET                         00:000037F5
KEY_GOSUB                       00:000037FC
KEY_GOTO                        00:000037F8
KEY_GT                          00:00003783
KEY_HEXS                        00:00003802
KEY_IF                          00:00003808
KEY_INC                         00:0000380A
KEY_INPUT                       00:0000380D
KEY_INT                         00:00003812
KEY_LCASES                      00:00003817
KEY_LEEK                        00:0000381E
KEY_LEFTS                       00:00003823
KEY_LEN                         00:00003829
KEY_LET                         00:0000382D
KEY_LIST                        00:00003830
KEY_LOAD                        00:00003834
KEY_LOG                         00:00003838
KEY_LOKE                        00:0000383C
KEY_LOOP                        00:00003840
KEY_LSHIFT                      00:0000377B
KEY_LT                          00:0000377D
KEY_MAX                         00:00003845
KEY_MIDS                        00:00003849
KEY_MIN                         00:0000384E
KEY_MINUS                       00:00003777
KEY_MULT                        00:00003773
KEY_NEW                         00:00003853
KEY_NEXT                        00:00003856
KEY_NOT                         00:0000385A
KEY_NULL                        00:0000385D
KEY_ON                          00:00003862
KEY_OR                          00:00003864
KEY_PEEK                        00:00003867
KEY_PI                          00:0000386C
KEY_PLUS                        00:00003775
KEY_POKE                        00:0000386E
KEY_POS                         00:00003872
KEY_POWER                       00:00003911
KEY_PRINT                       00:00003876
KEY_RAM                         00:0000387C
KEY_READ                        00:00003883
KEY_REM                         00:00003887
KEY_RESTORE                     00:0000388A
KEY_RETURN                      00:00003891
KEY_RIGHTS                      00:00003897
KEY_RND                         00:0000389E
KEY_RSHIFT                      00:00003781
KEY_RUN                         00:000038A2
KEY_SADD                        00:000038A6
KEY_SAVE                        00:000038AB
KEY_SGN                         00:000038AF
KEY_SIN                         00:000038B3
KEY_SPC                         00:000038B7
KEY_SQR                         00:000038BB
KEY_STEP                        00:000038BF
KEY_STOP                        00:000038C3
KEY_STRS                        00:000038C7
KEY_SWAP                        00:000038CC
KEY_TAB                         00:000038D1
KEY_TAN                         00:000038D5
KEY_THEN                        00:000038D9
KEY_TO                          00:000038DD
KEY_TWOPI                       00:000038DF
KEY_UCASES                      00:000038E5
KEY_UNTIL                       00:000038EC
KEY_USR                         00:000038F1
KEY_VAL                         00:000038F6
KEY_VPTR                        00:000038FA
KEY_WAIT                        00:00003902
KEY_WHILE                       00:00003906
KEY_WIDTH                       00:0000390B
KFCTSEED                         E:E6A3D110
LAB_11A5                        00:00001358
LAB_11A6                        00:0000135A
LAB_11BD                        00:00001366
LAB_1269                        00:000009E4
LAB_1274                        00:000009F2
LAB_127D                        00:000009FA
LAB_127E                        00:00000A08
LAB_1295                        00:00000A1C
LAB_12AE                        00:00000A3E
LAB_12B0                        00:00000A40
LAB_12E6                        00:00000A60
LAB_12FF                        00:00000A92
LAB_1301                        00:00000A94
LAB_1303                        00:00000AB2
LAB_1325                        00:00000ACA
LAB_132E                        00:00000ABA
LAB_1330                        00:00000ABC
LAB_134B                        00:00000AD8
LAB_1357                        00:00000AEA
LAB_1359                        00:00000AF0
LAB_1374                        00:00000B10
LAB_1378                        00:00000B16
LAB_137F                        00:00000B22
LAB_138E                        00:00000B28
LAB_13A6                        00:00000B2C
LAB_13AC                        00:00000B34
LAB_13CC                        00:00000B60
LAB_13D6                        00:00000B82
LAB_13D8                        00:00000B88
LAB_13EA                        00:00000B94
LAB_13EC                        00:00000B96
LAB_13FF                        00:00000BAE
LAB_1401                        00:00000BB2
LAB_1408                        00:00000BBE
LAB_1410                        00:00000BCA
LAB_1417                        00:00000BD4
LAB_141B                        00:00000BD6
LAB_141F                        00:00000BE6
LAB_142A                        00:00000BEC
LAB_142C                        00:00000BF8
LAB_145E                        00:00000C12
LAB_145F                        00:00000C04
LAB_1463                        00:00000C1A
LAB_1477                        00:00000C26
LAB_147A                        00:00000C2C
LAB_1491                        00:00000C4C
LAB_14BD                        00:00000C7C
LAB_14C0                        00:00000C80
LAB_14D4                        00:00000CA0
LAB_14E2                        00:00000CBC
LAB_150C                        00:00000CCA
LAB_1519                        00:00000CDA
LAB_152E                        00:00000CE6
LAB_1540                        00:00000D12
LAB_15B3                        00:00000D66
LAB_15C2                        00:00000D90
LAB_15D1                        00:00000D9C
LAB_15DC                        00:00000D78
LAB_15F6                        00:00000D8A
LAB_15FF                        00:00000DB2
LAB_1602                        00:00000DB6
LAB_1624                        00:00000E3A
LAB_1629                        00:00000DDA
LAB_1636                        00:00000DDE
LAB_1639                        00:00000DE4
LAB_163B                        00:00000DF0
LAB_1647                        00:00000DFC
LAB_164F                        00:00000E02
LAB_16B0                        00:00000E9C
LAB_16D0                        00:00000EC0
LAB_1723                        00:00000F5A
LAB_1725                        00:00000F5E
LAB_172C                        00:00000F4A
LAB_172D                        00:00000F52
LAB_174B                        00:00000F7A
LAB_1754                        00:00000DAA
LAB_176C                        00:00000FA4
LAB_1773                        00:00000FAE
LAB_1785                        00:00000FCA
LAB_1786                        00:00000FF6
LAB_17B7                        00:0000100C
LAB_17B8                        00:00001008
LAB_17D5                        00:00001086
LAB_17D6                        00:0000108A
LAB_1810                        00:0000109C
LAB_1811                        00:000010AC
LAB_1813                        00:000010B2
LAB_1829                        00:000010EA
LAB_182C                        00:000010EE
LAB_1831                        00:000010F4
LAB_185E                        00:00001134
LAB_1866                        00:00001138
LAB_1880                        00:000011FA
LAB_1886                        00:00001204
LAB_188A                        00:00001208
LAB_188B                        00:00001146
LAB_1898                        00:00001154
LAB_18A2                        00:0000115E
LAB_18B7                        00:00001180
LAB_18B8                        00:0000118C
LAB_18BD                        00:00001192
LAB_18C3                        00:0000119C
LAB_18C6                        00:000011A0
LAB_18CD                        00:000011AA
LAB_18E3                        00:000011B4
LAB_18F0                        00:000011D4
LAB_18F7                        00:000011E2
LAB_18F9                        00:000011E6
LAB_1904                        00:0000120C
LAB_1913                        00:0000121E
LAB_1934                        00:00001244
LAB_1953                        00:00001258
LAB_195B                        00:00001260
LAB_1984                        00:0000128A
LAB_1985                        00:0000128E
LAB_1986                        00:00001292
LAB_1999                        00:000012A6
LAB_19B0                        00:000012B8
LAB_19B6                        00:000012C8
LAB_19C2                        00:000012D8
LAB_19DD                        00:000012EC
LAB_19F6                        00:0000130C
LAB_1A03                        00:0000131A
LAB_1A0E                        00:0000132A
LAB_1A1B                        00:00001330
LAB_1A46                        00:0000134A
LAB_1A90                        00:000013C8
LAB_1A9B                        00:000013D6
LAB_1ABA                        00:00001400
LAB_1ACD                        00:00001428
LAB_1ADB                        00:00001434
LAB_1ADE                        00:00001438
LAB_1AE0                        00:0000144E
LAB_1AFA                        00:00001468
LAB_1B0B                        00:00001480
LAB_1B13                        00:00001488
LAB_1B1C                        00:0000149A
LAB_1B1D                        00:0000149C
LAB_1B2A                        00:000014B0
LAB_1B3C                        00:000014CC
LAB_1B43                        00:0000140C
LAB_1B78                        00:000014D8
LAB_1B7B                        00:000014DC
LAB_1B7D                        00:000014DE
LAB_1B84                        00:000014E8
LAB_1B86                        00:000014EC
LAB_1B9D                        00:00001510
LAB_1BC1                        00:00001542
LAB_1BD0                        00:000015A6
LAB_1BE7                        00:000015C0
LAB_1BF3                        00:0000154E
LAB_1BF7                        00:00001554
LAB_1BFB                        00:00001558
LAB_1C01                        00:00001560
LAB_1C11                        00:00001582
LAB_1C13                        00:00001584
LAB_1C18                        00:0000158C
LAB_1C19                        00:00001590
LAB_1C1A                        00:000015A0
LAB_1C2A                        00:000015FE
LAB_1CAE                        00:000016A8
LAB_1CB5                        00:000016C6
LAB_1CD4                        00:000016D0
LAB_1CD5                        00:000016D6
LAB_1CD6                        00:000016D8
LAB_1CDB                        00:000016E8
LAB_1CE6                        00:000016DA
LAB_1CF2                        00:000016EA
LAB_1CFE                        00:00001700
LAB_1D10                        00:00001774
LAB_1D12                        00:00001778
LAB_1D2D                        00:0000178A
LAB_1D2E                        00:00001796
LAB_1D44                        00:000017B2
LAB_1D45                        00:000017C2
LAB_1D48                        00:000017D6
LAB_1D49                        00:000017DE
LAB_1D4A                        00:000017E2
LAB_1D4B                        00:000017F2
LAB_1D5D                        00:000017FA
LAB_1D5E                        00:00001800
LAB_1D83                        00:00001768
LAB_1D8A                        00:00001762
LAB_1D96                        00:00002F76
LAB_1D98                        00:00001818
LAB_1DAC                        00:00001832
LAB_1DAE                        00:00001834
LAB_1DAF                        00:00001840
LAB_1DB0                        00:0000184E
LAB_1DB1                        00:00001852
LAB_1DB2                        00:00001856
LAB_1DD7                        00:0000186E
LAB_1DD8                        00:00001882
LAB_1DD9                        00:0000188E
LAB_1DE6                        00:00001896
LAB_1E17                        00:000018D8
LAB_1E1F                        00:000018DE
LAB_1E5C                        00:00001918
LAB_1E8D                        00:00001934
LAB_1EA1                        00:00001950
LAB_1EC0                        00:00001978
LAB_1ED6                        00:000019A4
LAB_1ED8                        00:000019B2
LAB_1EDF                        00:00001964
LAB_1F07                        00:000019C4
LAB_1F28                        00:000019DE
LAB_1F2C                        00:000019E4
LAB_1F5A                        00:000019F2
LAB_1F6A                        00:00001A1A
LAB_1F6B                        00:00001A26
LAB_1F7C                        00:00001A2C
LAB_1FB4                        00:00001A5A
LAB_1FD0                        00:00001A86
LAB_201E                        00:00001AEC
LAB_2043                        00:00001B3A
LAB_2044                        00:00001B6C
LAB_2045                        00:00001B76
LAB_204S                        00:00001B3C
LAB_204T                        00:00001B6A
LAB_20AE                        00:00001B88
LAB_20B4                        00:00001B8C
LAB_20BE                        00:00001B92
LAB_20C9                        00:00001BB6
LAB_20CB                        00:00001BA2
LAB_20D0                        00:00001BAA
LAB_20D8                        00:00001BC0
LAB_20E0                        00:00001BC8
LAB_2115                        00:00001BE8
LAB_2117                        00:00001C00
LAB_2128                        00:00001C1A
LAB_2137                        00:00001C1E
LAB_214B                        00:00001C3E
LAB_2161                        00:00001C54
LAB_2176                        00:00001C5C
LAB_217E                        00:00001C6A
LAB_2183                        00:00001C84
LAB_218B                        00:00001C8C
LAB_218F                        00:00001C8E
LAB_21C2                        00:00001C9A
LAB_21C4                        00:00001CA0
LAB_21D1                        00:00001CD4
LAB_2206                        00:00001CDA
LAB_2212                        00:00001D02
LAB_2216                        00:00001CC4
LAB_2240                        00:00001CCC
LAB_224D                        00:00001D08
LAB_229E                        00:00001D5A
LAB_22A0                        00:00001D66
LAB_22B6                        00:00001D74
LAB_22BA                        00:00001D78
LAB_22BD                        00:00001D82
LAB_22E6                        00:00001D9C
LAB_2316                        00:00001DDC
LAB_2317                        00:00001DDE
LAB_231C                        00:00001DE2
LAB_2358                        00:00001E16
LAB_2368                        00:00001E36
LAB_2441                        00:00002026
LAB_2445                        00:0000202A
LAB_2467                        00:0000207A
LAB_2468                        00:0000207E
LAB_249C                        00:0000206C
LAB_24A8                        00:00002082
LAB_24B4                        00:000020AC
LAB_24D0                        00:000020B8
LAB_24D5                        00:000020C4
LAB_24D6                        00:000020DE
LAB_24D7                        00:000020EC
LAB_24D8                        00:000020F2
LAB_24D9                        00:000020D2
LAB_24DA                        00:000020F8
LAB_24F7                        00:0000209C
LAB_24F8                        00:000020A2
LAB_2778                        00:0000236A
LAB_277C                        00:0000236C
LAB_279B                        00:00002390
LAB_27BA                        00:0000239E
LAB_27C3                        00:000023BA
LAB_27C4                        00:000023C4
LAB_27CA                        00:000023CA
LAB_27CE                        00:000023D2
LAB_27D0                        00:000023D6
LAB_27DB                        00:000023E4
LAB_27F0                        00:000026AC
LAB_27F1                        00:000026C2
LAB_27F2                        00:000026C8
LAB_27F3                        00:000026CA
LAB_27FA                        00:000023FC
LAB_2828                        00:0000241C
LAB_282E                        00:00002422
LAB_282F                        00:00002424
LAB_2831                        00:00002428
LAB_284G                        00:0000244A
LAB_284H                        00:0000245E
LAB_284J                        00:00002460
LAB_284L                        00:00002454
LAB_2887                        00:00002D3E
LAB_289A                        00:00002D68
LAB_289C                        00:00002D6E
LAB_289D                        00:00002D74
LAB_28FD                        00:00002D90
LAB_28FE                        00:00002D96
LAB_28FF                        00:00002D9C
LAB_2900                        00:00002DAA
LAB_2901                        00:00002DB2
LAB_2902                        00:00002E04
LAB_2903                        00:00002E0C
LAB_2904                        00:00002E0E
LAB_2953                        00:00002480
LAB_295E                        00:0000248C
LAB_2967                        00:00002498
LAB_2968                        00:000024A0
LAB_2969                        00:000024B2
LAB_296A                        00:000024BC
LAB_2970                        00:000024D2
LAB_2978                        00:000024E6
LAB_2989                        00:000024F4
LAB_299C                        00:0000251E
LAB_29A7                        00:00002548
LAB_29B7                        00:00002560
LAB_29B9                        00:0000256E
LAB_29C0                        00:0000259A
LAB_29C3                        00:000025B2
LAB_29D9                        00:000025CE
LAB_29E4                        00:000025E0
LAB_29F7                        00:000025F4
LAB_29FB                        00:000025F8
LAB_29FD                        00:00002600
LAB_2A18                        00:00002610
LAB_2A1A                        00:00002612
LAB_2A21                        00:0000261A
LAB_2A3B                        00:0000263C
LAB_2A4B                        00:0000264A
LAB_2A58                        00:0000265E
LAB_2A68                        00:00002676
LAB_2A74                        00:00002682
LAB_2A89                        00:0000269E
LAB_2A8C                        00:000026A2
LAB_2A91                        00:000026A8
LAB_2A9A                        00:000033E8
LAB_2X01                        00:00002DCA
LAB_2X02                        00:00002DD2
LAB_2X03                        00:00002DE0
LAB_2X04                        00:00002DE6
LAB_2X05                        00:00002DFC
LAB_2Y01                        00:00002E1C
LAB_2Y02                        00:00002E24
LAB_2Y03                        00:00002E30
LAB_2Y04                        00:00002E36
LAB_3216                        00:00002304
LAB_32_16                       00:00002302
LAB_ABER                        00:000009A6
LAB_ABS                         00:000023F4
LAB_AD                          00:0000376B
LAB_ADD                         00:00002048
LAB_ADER                        00:00000972
LAB_AND                         00:0000167C
LAB_ASC                         00:00001EC0
LAB_ATCD                        00:00002A50
LAB_ATGO                        00:00002A0E
LAB_ATLE                        00:00002A2C
LAB_ATN                         00:000029F0
LAB_ATNP                        00:00002A4A
LAB_AYFC                        00:00001A66
LAB_BAER                        00:000035F6
LAB_BHCB                        00:00001662
LAB_BHSS                        00:0000163A
LAB_BINS                        00:00002AF2
LAB_BITCLR                      00:00002AB4
LAB_BITSET                      00:00002AA4
LAB_BMSG                        00:00003913
LAB_BS                          00:00003694
LAB_BTST                        00:00002AC4
LAB_CALL                        00:00002006
LAB_CASC                        00:00001752
LAB_CATN                        00:00002A56
LAB_CAUC                        00:00001758
LAB_CBIN                        00:00002EF0
LAB_CBX1                        00:00002F0A
LAB_CBXN                        00:00002EF8
LAB_CCER                        00:0000098A
LAB_CHEX                        00:00002E8E
LAB_CHRS                        00:00001DA6
LAB_CHX1                        00:00002EB4
LAB_CHX2                        00:00002ED8
LAB_CHX3                        00:00002ED0
LAB_CHXX                        00:00002E96
LAB_CKRN                        00:00001A8E
LAB_CKTM                        00:000013F2
LAB_CLEAR                       00:00000C64
LAB_CN                          00:00003701
LAB_COLD                        00:000008B4
LAB_CONT                        00:00000E4C
LAB_CORD                        00:00002982
LAB_COS                         00:0000290C
LAB_CRLF                        00:0000113E
LAB_CTBL                        00:000032D0
LAB_CTNM                        00:000013F0
LAB_D0                          00:000036B2
LAB_DATA                        00:00000F3C
LAB_DD                          00:000036A1
LAB_DDER                        00:000009A2
LAB_DEC                         00:00000FFC
LAB_DECI                        00:0000105A
LAB_DEEK                        00:00001F86
LAB_DEF                         00:00001A98
LAB_DEFV                        00:00001ACC
LAB_DIM                         00:00001704
LAB_DIV0                        00:000022FA
LAB_DIVIDE                      00:0000227E
LAB_DIVX                        00:000022CE
LAB_DO                          00:00000E80
LAB_DOKE                        00:00001FB0
LAB_DZER                        00:0000099E
LAB_EMSG                        00:0000391B
LAB_END                         00:00000DE6
LAB_EOR                         00:0000166C
LAB_EQUAL                       00:00001692
LAB_ESML                        00:00002822
LAB_EVBY                        00:00001ED8
LAB_EVEX                        00:00001406
LAB_EVEZ                        00:00001408
LAB_EVIN                        00:000018A2
LAB_EVIR                        00:000018B2
LAB_EVNM                        00:000013EE
LAB_EVPI                        00:000018AA
LAB_EX1                         00:0000275A
LAB_EXAD                        00:000028AC
LAB_EXCC                        00:00002892
LAB_EXCM                        00:000027C4
LAB_EXNN                        00:0000287E
LAB_EXOF                        00:0000277E
LAB_EXOL                        00:00002794
LAB_EXOU                        00:0000276A
LAB_EXP                         00:0000279E
LAB_EXPL                        00:00002878
LAB_EXPS                        00:000027D6
LAB_EXRN                        00:00002884
LAB_FB95                        00:00002BA4
LAB_FBA0                        00:00002B88
LAB_FC                          00:0000365B
LAB_FCER                        00:000009B6
LAB_FOR                         00:00000D1E
LAB_FRE                         00:00001A50
LAB_FTBL                        00:0000336A
LAB_FTPP                        00:00003320
LAB_GADB                        00:00001F2A
LAB_GADW                        00:00001F3E
LAB_GARB                        00:00001C34
LAB_GBYT                        00:0000156C
LAB_GEAD                        00:00001F5E
LAB_GET                         00:000010B8
LAB_GETS                        00:000010D2
LAB_GFPN                        00:00000FBE
LAB_GOSUB                       00:00000E92
LAB_GOTO                        00:00000EA4
LAB_GOTs                        00:00000EB4
LAB_GSCH                        00:00000E32
LAB_GTBY                        00:00001ED4
LAB_GTHAN                       00:0000274C
LAB_GTWO                        00:00001EE8
LAB_GVAL                        00:00001516
LAB_GVAR                        00:0000176E
LAB_HEXS                        00:00002B44
LAB_ID                          00:000036C1
LAB_IDER                        00:0000099A
LAB_IF                          00:00000F64
LAB_IGBY                        00:0000156A
LAB_IMSG                        00:0000392C
LAB_INC                         00:00001002
LAB_INCI                        00:00001050
LAB_INCT                        00:00001042
LAB_INLN                        00:00000AE0
LAB_INPUT                       00:0000122C
LAB_INT                         00:00002466
LAB_IRTS                        00:0000247E
LAB_ISHN                        00:00002EB0
LAB_KEYT                        00:0000346A
LAB_LAAD                        00:00002172
LAB_LCASE                       00:00001E3E
LAB_LD                          00:00003723
LAB_LDER                        00:00000982
LAB_LEEK                        00:00001F9C
LAB_LEFT                        00:00001DB6
LAB_LENS                        00:00001EB8
LAB_LET                         00:0000105E
LAB_LIST                        00:00000C68
LAB_LMSG                        00:00003922
LAB_LOAD                        00:00001FFE
LAB_LOCC                        00:00002178
LAB_LOCX                        00:00002194
LAB_LOG                         00:000020FA
LAB_LOKE                        00:00001FB6
LAB_LOLP                        00:00002182
LAB_LONE                        00:000021B0
LAB_LONN                        00:00002198
LAB_LOOP                        00:00000ED2
LAB_LOWZ                        00:000021EA
LAB_LOXO                        00:000021B6
LAB_LOXP                        00:000021A6
LAB_LRMS                        00:00001618
LAB_LS                          00:000036DE
LAB_LSHIFT                      00:00001710
LAB_LTHAN                       00:0000169C
LAB_LTPF                        00:00002992
LAB_LTPT                        00:000029A2
LAB_LT_1                        00:00002310
LAB_MADD                        00:0000221E
LAB_MAN1                        00:000022F4
LAB_MAX                         00:00002BB0
LAB_MAXN                        00:00002BBC
LAB_MIDS                        00:00001DFA
LAB_MIN                         00:00002BC6
LAB_MINN                        00:00002BD2
LAB_MMEC                        00:00002BDC
LAB_MNOC                        00:00002216
LAB_MUEX                        00:0000226C
LAB_MUF1                        00:00002248
LAB_MUF2                        00:00002252
LAB_MUF3                        00:00002268
LAB_MULTIPLY                    00:000021EC
LAB_MUUF                        00:00002272
LAB_NB1T                        00:00002348
LAB_NEW                         00:00000C18
LAB_NEXT                        00:00001338
LAB_NF                          00:00003622
LAB_NFER                        00:000009C6
LAB_NSTT                        00:00002C42
LAB_NULL                        00:00000E42
LAB_NoSt                        00:000010E4
LAB_OD                          00:0000364F
LAB_ODER                        00:000009BA
LAB_OFER                        00:000009B2
LAB_OM                          00:00003672
LAB_OMER                        00:000009AE
LAB_ON                          00:00000F8A
LAB_OPPT                        00:000033B4
LAB_OR                          00:00001674
LAB_OV                          00:00003669
LAB_PEEK                        00:00001F74
LAB_PFAC                        00:00002352
LAB_PHFA                        00:00002BEC
LAB_PI                          00:00002D1E
LAB_POKE                        00:00001F80
LAB_POON                        00:000026CC
LAB_POS                         00:00001A82
LAB_POWER                       00:000026E8
LAB_POWP                        00:0000271A
LAB_POZE                        00:000026DC
LAB_PPBI                        00:0000160E
LAB_PPFN                        00:00001600
LAB_PPFS                        00:000015F2
LAB_PRINT                       00:000010F2
LAB_PRNA                        00:000011B6
LAB_P_10                        00:00003062
LAB_RAM                         00:00002D14
LAB_READ                        00:00001252
LAB_REDO                        00:0000393C
LAB_REM                         00:00000F82
LAB_REMM                        00:00002328
LAB_RESTORE                     00:00000E14
LAB_RESs                        00:00000E26
LAB_RETURN                      00:00000F28
LAB_RG                          00:0000363A
LAB_RGER                        00:000009BE
LAB_RIGHT                       00:00001DCA
LAB_RMSG                        00:0000394E
LAB_RND                         00:000028B8
LAB_RSED                        00:00002F7A
LAB_RSHIFT                      00:00001720
LAB_RTST                        00:00001BCE
LAB_RUN                         00:00000E6A
LAB_RUNn                        00:00000E7A
LAB_SADD                        00:00001EA0
LAB_SAVE                        00:00002002
LAB_SCCA                        00:00001562
LAB_SCER                        00:0000098E
LAB_SCGB                        00:0000155C
LAB_SCL0                        00:00002978
LAB_SCLN                        00:00000C06
LAB_SCZE                        00:0000296A
LAB_SET1                        00:000022D6
LAB_SGBY                        00:00001ED0
LAB_SGN                         00:000023E2
LAB_SIN                         00:00002924
LAB_SLER                        00:00000992
LAB_SMSG                        00:00003958
LAB_SN                          00:00003633
LAB_SNBS                        00:00000F42
LAB_SNER                        00:000009C2
LAB_SQE1                        00:00002CC6
LAB_SQE2                        00:00002CCC
LAB_SQNA                        00:00002CF4
LAB_SQNS                        00:00002CDE
LAB_SQR                         00:00002CA2
LAB_SSLN                        00:00000BFE
LAB_ST                          00:000036EE
LAB_STOP                        00:00000DEE
LAB_STRS                        00:00001B84
LAB_SUBTRACT                    00:00002034
LAB_SVTB                        00:00002C74
LAB_SWAP                        00:00001FCA
LAB_TAN                         00:000028EA
LAB_TBSZ                        00:00002C54
LAB_TBYT                        00:0000156E
LAB_TM                          00:000036D0
LAB_TMER                        00:00000996
LAB_TWOPI                       00:00002D2E
LAB_UA                          00:00003746
LAB_UCASE                       00:00001E6E
LAB_UDER                        00:0000097A
LAB_UF                          00:00003710
LAB_UFAC                        00:00002336
LAB_UFER                        00:00000986
LAB_US                          00:00003680
LAB_USER                        00:000009AA
LAB_USR                         00:00001FF6
LAB_UV                          00:00003733
LAB_UVER                        00:0000097E
LAB_VAL                         00:00001EFC
LAB_VALZ                        00:00001F24
LAB_VARPTR                      00:00002D04
LAB_WAIT                        00:00002010
LAB_WARM                         S:00000400
LAB_WD                          00:0000375A
LAB_WDER                        00:00000976
LAB_WDLP                        00:00002C88
LAB_WDTH                        00:00002C22
LAB_XDIV                        00:000022E8
LAB_XERR                        00:000009C8
LAB_XGADW                       00:00001F58
LAB_exxf                        00:00002EDE
LAB_ret0                        00:00002E7C
LAB_rtn0                        00:00002E7E
LAB_sizok                       00:000008C0
LC_loop                         00:00001E54
LOAD_ascii                      00:00000794
LOAD_close                      00:00000784
LOAD_eof                        00:000007C8
LOAD_exit                       00:00000788
LOAD_in                         00:000007A4
L_DDIV                          00:00002330
L_DIVRND                        00:000022DA
LoopAlways                      00:00000F0E
LoopDone                        00:00000F22
Lvarpl                           S:00000472
MIX_SID0_LEFT                    E:00000580
NextB1                          00:00002B02
NextB2                          00:00002B28
NextH1                          00:00002B54
NextPRN                         00:000028C6
Ninc0                           00:000028CE
Ninc1                           00:000028D4
NoLcase                         00:00001E96
NoShift                         00:0000171C
NoString                        00:00001E9C
NoUcase                         00:00001E66
Not2Big                         00:00001734
Nullct                           S:000005E4
Oquote                           S:000005DD
PRNlword                         S:000005A0
RETCHR                          00:00000712
RTS_001                         00:00001580
RTS_005                         00:00000C62
RTS_006                         00:00000E40
RTS_007                         00:00000F40
RTS_007a                        00:00000F56
RTS_008                         00:000010B6
RTS_009                         00:000011B2
RTS_011                         00:00001A2A
RTS_012                         00:00001D06
RTS_013                         00:00001D72
RTS_015                         00:00001FC8
RTS_016                         00:000020A0
RTS_017                         00:000023C8
RTS_020                         00:00002758
RTS_021                         00:00002AA2
RTS_022                         00:00002B92
RTS_023                         00:00002CA0
RTS_024                         00:00002EEE
RTS_025                         00:00002F50
Rdptrl                           S:00000466
SAVE_OUT                        00:0000088E
SAVE_bas                        00:00000850
SAVE_close                      00:0000087E
SAVE_exit                       00:00000882
SID0_F                           E:00000500
SID0_V                           E:0000051B
SID1_V                           E:0000053B
Sarryl                           S:0000043E
Sfncl                            S:00000432
Smeml                            S:0000042E
Sstorl                           S:00000446
Sstrl                            S:0000043A
Sufnxf                           S:000005DF
Sutill                           S:0000044E
Svarl                            S:00000436
TAB_ASCA                        00:00003787
TAB_ASCB                        00:00003797
TAB_ASCC                        00:000037B0
TAB_ASCD                        00:000037C7
TAB_ASCE                        00:000037E0
TAB_ASCF                        00:000037EB
TAB_ASCG                        00:000037F5
TAB_ASCH                        00:00003802
TAB_ASCI                        00:00003808
TAB_ASCL                        00:00003817
TAB_ASCM                        00:00003845
TAB_ASCN                        00:00003853
TAB_ASCO                        00:00003862
TAB_ASCP                        00:00003867
TAB_ASCR                        00:0000387C
TAB_ASCS                        00:000038A6
TAB_ASCT                        00:000038D1
TAB_ASCU                        00:000038E5
TAB_ASCV                        00:000038F6
TAB_ASCW                        00:00003902
TAB_ATNC                        00:000031D0
TAB_CHRT                        00:00003400
TAB_EQUL                        00:0000377F
TAB_HTHET                       00:00003250
TAB_LESS                        00:0000377B
TAB_MNUS                        00:00003777
TAB_MORE                        00:00003781
TAB_PLUS                        00:00003775
TAB_POWR                        00:00003911
TAB_QEST                        00:00003785
TAB_SLAS                        00:00003779
TAB_SNCO                        00:00003150
TAB_STAR                        00:00003773
TERMINAL_HEIGHT                  E:00000014
TERMINAL_HPITCH                  E:00000080
TERMINAL_VPITCH                  E:00000020
TERMINAL_WIDTH                   E:00000050
TIMER_SR                         E:00000440
TK_ABS                           E:000000C0
TK_AND                           E:000000B6
TK_ASC                           E:000000D2
TK_ATN                           E:000000CB
TK_BINS                          E:000000D7
TK_BITCLR                        E:000000A7
TK_BITSET                        E:000000A6
TK_BITTST                        E:000000D8
TK_CALL                          E:0000009B
TK_CHRS                          E:000000D5
TK_CLEAR                         E:000000A1
TK_CONT                          E:0000009F
TK_COS                           E:000000C8
TK_DATA                          E:00000083
TK_DEC                           E:00000088
TK_DEEK                          E:000000CD
TK_DEF                           E:00000097
TK_DIM                           E:00000085
TK_DIV                           E:000000B4
TK_DO                            E:0000009C
TK_DOKE                          E:00000099
TK_END                           E:00000080
TK_EOR                           E:000000B7
TK_EQUAL                         E:000000BC
TK_EXP                           E:000000C7
TK_FN                            E:000000AA
TK_FOR                           E:00000081
TK_FRE                           E:000000C2
TK_GET                           E:000000A4
TK_GOSUB                         E:0000008D
TK_GOTO                          E:00000089
TK_GT                            E:000000BB
TK_HEXS                          E:000000D6
TK_IF                            E:0000008B
TK_INC                           E:00000093
TK_INPUT                         E:00000084
TK_INT                           E:000000BF
TK_LCASES                        E:000000D4
TK_LEEK                          E:000000CE
TK_LEFTS                         E:000000E0
TK_LEN                           E:000000CF
TK_LET                           E:00000087
TK_LIST                          E:000000A0
TK_LOAD                          E:00000095
TK_LOG                           E:000000C6
TK_LOKE                          E:0000009A
TK_LOOP                          E:0000009D
TK_LSHIFT                        E:000000BA
TK_LT                            E:000000BD
TK_MAX                           E:000000D9
TK_MIDS                          E:000000E2
TK_MIN                           E:000000DA
TK_MINUS                         E:000000B2
TK_MULT                          E:000000B3
TK_NEW                           E:000000A2
TK_NEXT                          E:00000082
TK_NOT                           E:000000AD
TK_NULL                          E:00000092
TK_ON                            E:00000091
TK_OR                            E:000000B8
TK_PEEK                          E:000000CC
TK_PI                            E:000000DC
TK_PLUS                          E:000000B1
TK_POKE                          E:00000098
TK_POS                           E:000000C3
TK_POWER                         E:000000B5
TK_PRINT                         E:0000009E
TK_RAM                           E:000000DB
TK_READ                          E:00000086
TK_REM                           E:0000008F
TK_RESTORE                       E:0000008C
TK_RETURN                        E:0000008E
TK_RIGHTS                        E:000000E1
TK_RND                           E:000000C5
TK_RSHIFT                        E:000000B9
TK_RUN                           E:0000008A
TK_SADD                          E:000000DF
TK_SAVE                          E:00000096
TK_SGN                           E:000000BE
TK_SIN                           E:000000C9
TK_SPC                           E:000000AB
TK_SQR                           E:000000C4
TK_STEP                          E:000000AE
TK_STOP                          E:00000090
TK_STRS                          E:000000D0
TK_SWAP                          E:000000A5
TK_TAB                           E:000000A8
TK_TAN                           E:000000CA
TK_THEN                          E:000000AC
TK_TO                            E:000000A9
TK_TWOPI                         E:000000DD
TK_UCASES                        E:000000D3
TK_UNTIL                         E:000000AF
TK_USR                           E:000000C1
TK_VAL                           E:000000D1
TK_VPTR                          E:000000DE
TK_WAIT                          E:00000094
TK_WHILE                         E:000000B0
TK_WIDTH                         E:000000A3
TPos                             S:000005E5
TWidth                           S:000005E6
TabSiz                           S:000005E2
TooBig                          00:0000173A
UC_loop                         00:00001E84
Usdss                            S:000005CC
Usrjmp                           S:00000406
VDC_BG_COLOR                     E:00000404
VDC_BORDER_COLOR                 E:00000402
VDC_BORDER_SIZE                  E:00000403
VDC_CR                           E:00000401
VDC_CURRENT_LAYER                E:00000406
VDC_CURRENT_SPRITE               E:00000407
VDC_IRQ_SCANLINE_LSB             E:0000040F
VDC_LAYER0_COLORS                E:00003000
VDC_LAYER0_TILES                 E:00002000
VDC_LAYER_FLAGS0                 E:00000414
VDC_LAYER_Y_MSB                  E:00000412
VDC_SPRITE_FLAGS0                E:00000424
VDC_SPRITE_X_LSB                 E:00000421
VDC_SPRITE_X_MSB                 E:00000420
VDC_SPRITE_Y_LSB                 E:00000423
VDC_SR                           E:00000400
VEC_ADDR_ERROR                   E:0000000C
VEC_CC                          00:00002B6E
VEC_ILLEGAL_INSTR                E:00000010
VEC_IN                          00:00000700
VEC_LD                          00:00000724
VEC_LVL1_IRQ_AUTO                E:00000064
VEC_LVL2_IRQ_AUTO                E:00000068
VEC_LVL4_IRQ_AUTO                E:00000070
VEC_LVL6_IRQ_AUTO                E:00000078
VEC_OUT                         00:000006F0
VEC_PRIVILEGE_VIOLATION          E:00000020
VEC_SPURIOUS_INTERRUPT           E:00000060
VEC_SV                          00:000007E2
VEC_TIMER0                       E:00000100
VEC_TIMER1                       E:00000104
VEC_TIMER2                       E:00000108
VEC_TIMER3                       E:0000010C
VEC_TIMER4                       E:00000110
VEC_TIMER5                       E:00000114
VEC_TIMER6                       E:00000118
VEC_TIMER7                       E:0000011C
VEC_TRAP14                       E:000000B8
VEC_TRAP15                       E:000000BC
V_CTLC                           S:00000424
V_INPT                           S:0000040C
V_INPTv                          S:0000040E
V_LOAD                           S:00000418
V_OUTP                           S:00000412
V_OUTPv                          S:00000414
V_SAVE                           S:0000041E
Varname                          S:0000046A
WExit                           00:00002C78
Wrmjpv                           S:00000402
_jump                            A:00010094
_start                           A:00010024
binary_ready                     S:00006001
ccbyte                           S:000005E9
ccflag                           S:000005E8
ccnull                           S:000005EA
chunk_length                     S:0000600E
code_start                      00:000008A8
comp_f                           S:000005E3
cosout                           E:000005B4
cursor_color                     S:00006004
cursor_pos                       S:00006002
d1x02                           00:00002F2C
d1x10                           00:00002F42
d1x16                           00:00002F1E
des_sk                           S:0000048E
des_sk_e                         S:00000476
exc_addr_error                   A:0001010A
exc_illegal_instr                A:0001010E
exc_lvl1_irq_auto                A:00010120
exc_lvl2_irq_auto                A:00010122
exc_lvl4_irq_auto                A:0001025A
exc_lvl6_irq_auto                A:0001028A
exc_privilege_violation          A:00010116
exc_spurious_interrupt           A:0001011E
exc_trap14_handler               A:00010304
exc_trap15_handler               A:00010312
exec_address                     S:00006012
expcnt                           E:000005AD
expneg                           E:000005AF
file_byte                        S:000005EB
file_error                       A:00010616
file_id                          S:000005EC
file_loading1                    A:00010631
file_loading2                    A:00010647
file_loading3                    A:0001064A
file_loading4                    A:0001064D
flag                             E:0000059F
func_l                           S:000005B0
hex_values                       A:000106E0
init_vector_table                A:00010380
logo_animation                   S:00006000
logo_data                        A:00010660
logo_tiles                       A:000106A0
loop                             A:00010086
mainloop                        00:000029BA
n                                E:00000002
nexta                           00:000029CC
numexp                           E:000005AC
outloop                         00:000029DA
prg_strt                         S:000005F2
prstk                            S:000005D8
ram_base                         S:00000400
ram_top                          E:00040000
rnd_impl                         A:000105E6
rnda                             S:00006016
rndb                             S:00006017
rndc                             S:00006018
rndx                             S:00006019
sound_reset                      A:0001033E
subexit                         00:000029E4
subloop                         00:000029B2
terminal_add_bottom_row          A:000105B8
terminal_chars                   S:00006006
terminal_clear                   A:000104C8
terminal_colors                  S:0000600A
terminal_init                    A:000104AA
terminal_put_hex_number          A:0001057A
terminal_putchar                 A:000104F0
terminal_putstring               A:0001055E
timer_default_handler            A:00010336
tpower                           S:000005D9
vdc_copy_logo_tiles              A:00010462
vdc_copy_rom_font                A:0001043E
vdc_disable_logo                 A:000104A8
vdc_init_layer0                  A:00010412
vdc_init_logo                    A:0001047A

Symbols by value:
00000002 n
0000000C VEC_ADDR_ERROR
00000010 VEC_ILLEGAL_INSTR
00000014 TERMINAL_HEIGHT
00000020 VEC_PRIVILEGE_VIOLATION
00000020 TERMINAL_VPITCH
00000050 TERMINAL_WIDTH
00000060 VEC_SPURIOUS_INTERRUPT
00000064 VEC_LVL1_IRQ_AUTO
00000068 VEC_LVL2_IRQ_AUTO
00000070 VEC_LVL4_IRQ_AUTO
00000078 VEC_LVL6_IRQ_AUTO
00000080 TK_END
00000080 TERMINAL_HPITCH
00000081 TK_FOR
00000082 TK_NEXT
00000083 TK_DATA
00000084 TK_INPUT
00000085 TK_DIM
00000086 TK_READ
00000087 TK_LET
00000088 TK_DEC
00000089 TK_GOTO
0000008A TK_RUN
0000008B TK_IF
0000008C TK_RESTORE
0000008D TK_GOSUB
0000008E TK_RETURN
0000008F TK_REM
00000090 TK_STOP
00000091 TK_ON
00000092 TK_NULL
00000093 TK_INC
00000094 TK_WAIT
00000095 TK_LOAD
00000096 TK_SAVE
00000097 TK_DEF
00000098 TK_POKE
00000099 TK_DOKE
0000009A TK_LOKE
0000009B TK_CALL
0000009C TK_DO
0000009D TK_LOOP
0000009E TK_PRINT
0000009F TK_CONT
000000A0 TK_LIST
000000A1 TK_CLEAR
000000A2 TK_NEW
000000A3 TK_WIDTH
000000A4 TK_GET
000000A5 TK_SWAP
000000A6 TK_BITSET
000000A7 TK_BITCLR
000000A8 TK_TAB
000000A9 TK_TO
000000AA TK_FN
000000AB TK_SPC
000000AC TK_THEN
000000AD TK_NOT
000000AE TK_STEP
000000AF TK_UNTIL
000000B0 TK_WHILE
000000B1 TK_PLUS
000000B2 TK_MINUS
000000B3 TK_MULT
000000B4 TK_DIV
000000B5 TK_POWER
000000B6 TK_AND
000000B7 TK_EOR
000000B8 VEC_TRAP14
000000B8 TK_OR
000000B9 TK_RSHIFT
000000BA TK_LSHIFT
000000BB TK_GT
000000BC VEC_TRAP15
000000BC TK_EQUAL
000000BD TK_LT
000000BE TK_SGN
000000BF TK_INT
000000C0 TK_ABS
000000C1 TK_USR
000000C2 TK_FRE
000000C3 TK_POS
000000C4 TK_SQR
000000C5 TK_RND
000000C6 TK_LOG
000000C7 TK_EXP
000000C8 TK_COS
000000C9 TK_SIN
000000CA TK_TAN
000000CB TK_ATN
000000CC TK_PEEK
000000CD TK_DEEK
000000CE TK_LEEK
000000CF TK_LEN
000000D0 TK_STRS
000000D1 TK_VAL
000000D2 TK_ASC
000000D3 TK_UCASES
000000D4 TK_LCASES
000000D5 TK_CHRS
000000D6 TK_HEXS
000000D7 TK_BINS
000000D8 TK_BITTST
000000D9 TK_MAX
000000DA TK_MIN
000000DB TK_RAM
000000DC TK_PI
000000DD TK_TWOPI
000000DE TK_VPTR
000000DF TK_SADD
000000E0 TK_LEFTS
000000E1 TK_RIGHTS
000000E2 TK_MIDS
00000100 VEC_TIMER0
00000104 VEC_TIMER1
00000108 VEC_TIMER2
0000010C VEC_TIMER3
00000110 VEC_TIMER4
00000114 VEC_TIMER5
00000118 VEC_TIMER6
0000011C VEC_TIMER7
00000400 VDC_SR
00000400 LAB_WARM
00000400 ram_base
00000401 VDC_CR
00000402 Wrmjpv
00000402 VDC_BORDER_COLOR
00000403 VDC_BORDER_SIZE
00000404 VDC_BG_COLOR
00000406 Usrjmp
00000406 VDC_CURRENT_LAYER
00000407 VDC_CURRENT_SPRITE
0000040C V_INPT
0000040E V_INPTv
0000040F VDC_IRQ_SCANLINE_LSB
00000412 V_OUTP
00000412 VDC_LAYER_Y_MSB
00000414 VDC_LAYER_FLAGS0
00000414 V_OUTPv
00000418 V_LOAD
0000041E V_SAVE
00000420 VDC_SPRITE_X_MSB
00000421 VDC_SPRITE_X_LSB
00000423 VDC_SPRITE_Y_LSB
00000424 V_CTLC
00000424 VDC_SPRITE_FLAGS0
0000042A Itemp
0000042E Smeml
00000432 Sfncl
00000436 Svarl
0000043A Sstrl
0000043E Sarryl
00000440 TIMER_SR
00000442 Earryl
00000446 Sstorl
0000044A Ememl
0000044E Sutill
00000452 Clinel
00000456 Blinel
0000045A Cpntrl
0000045E Dlinel
00000462 Dptrl
00000466 Rdptrl
0000046A Varname
00000472 Lvarpl
00000476 des_sk_e
00000480 CORE_SR
00000481 CORE_CR
00000482 CORE_ROMS
00000484 CORE_FILE_DATA
00000488 CORE_INPUT0
0000048E des_sk
00000490 Ibuffs
00000500 SID0_F
0000051B SID0_V
0000053B SID1_V
00000580 MIX_SID0_LEFT
00000590 Ibuffe
00000590 FAC1_m
00000594 FAC1_e
00000595 FAC1_s
00000598 FAC2_m
0000059C FAC2_e
0000059D FAC2_s
0000059E FAC_sc
0000059F flag
000005A0 PRNlword
000005A8 Asptl
000005AC numexp
000005AC Astrtl
000005AD expcnt
000005AF expneg
000005B0 func_l
000005B4 cosout
000005B4 Defdim
000005B5 Dtypef
000005B6 Binss
000005C6 Decss
000005CC Usdss
000005CE Hexss
000005D6 BHsend
000005D8 prstk
000005D9 tpower
000005DA Asrch
000005DB Dimcnt
000005DC Breakf
000005DD Oquote
000005DE Gclctd
000005DF Sufnxf
000005E0 Imode
000005E1 Cflag
000005E2 TabSiz
000005E3 comp_f
000005E4 Nullct
000005E5 TPos
000005E6 TWidth
000005E7 Iclim
000005E8 ccflag
000005E9 ccbyte
000005EA ccnull
000005EB file_byte
000005EC file_id
000005F2 prg_strt
00000601 KEYBOARD_CR
000006F0 VEC_OUT
00000700 VEC_IN
00000712 RETCHR
00000724 VEC_LD
00000784 LOAD_close
00000788 LOAD_exit
00000794 LOAD_ascii
000007A4 LOAD_in
000007C8 LOAD_eof
000007E2 VEC_SV
00000850 SAVE_bas
0000087E SAVE_close
00000882 SAVE_exit
0000088E SAVE_OUT
000008A8 code_start
000008B4 LAB_COLD
000008C0 LAB_sizok
00000972 LAB_ADER
00000976 LAB_WDER
0000097A LAB_UDER
0000097E LAB_UVER
00000982 LAB_LDER
00000986 LAB_UFER
0000098A LAB_CCER
0000098E LAB_SCER
00000992 LAB_SLER
00000996 LAB_TMER
0000099A LAB_IDER
0000099E LAB_DZER
000009A2 LAB_DDER
000009A6 LAB_ABER
000009AA LAB_USER
000009AE LAB_OMER
000009B2 LAB_OFER
000009B6 LAB_FCER
000009BA LAB_ODER
000009BE LAB_RGER
000009C2 LAB_SNER
000009C6 LAB_NFER
000009C8 LAB_XERR
000009E4 LAB_1269
000009F2 LAB_1274
000009FA LAB_127D
00000A08 LAB_127E
00000A1C LAB_1295
00000A3E LAB_12AE
00000A40 LAB_12B0
00000A60 LAB_12E6
00000A92 LAB_12FF
00000A94 LAB_1301
00000AB2 LAB_1303
00000ABA LAB_132E
00000ABC LAB_1330
00000ACA LAB_1325
00000AD8 LAB_134B
00000AE0 LAB_INLN
00000AEA LAB_1357
00000AF0 LAB_1359
00000B10 LAB_1374
00000B16 LAB_1378
00000B22 LAB_137F
00000B28 LAB_138E
00000B2C LAB_13A6
00000B34 LAB_13AC
00000B60 LAB_13CC
00000B82 LAB_13D6
00000B88 LAB_13D8
00000B94 LAB_13EA
00000B96 LAB_13EC
00000BAE LAB_13FF
00000BB2 LAB_1401
00000BBE LAB_1408
00000BCA LAB_1410
00000BD4 LAB_1417
00000BD6 LAB_141B
00000BE6 LAB_141F
00000BEC LAB_142A
00000BF8 LAB_142C
00000BFE LAB_SSLN
00000C04 LAB_145F
00000C06 LAB_SCLN
00000C12 LAB_145E
00000C18 LAB_NEW
00000C1A LAB_1463
00000C26 LAB_1477
00000C2C LAB_147A
00000C4C LAB_1491
00000C62 RTS_005
00000C64 LAB_CLEAR
00000C68 LAB_LIST
00000C7C LAB_14BD
00000C80 LAB_14C0
00000CA0 LAB_14D4
00000CBC LAB_14E2
00000CCA LAB_150C
00000CDA LAB_1519
00000CE6 LAB_152E
00000D12 LAB_1540
00000D1E LAB_FOR
00000D66 LAB_15B3
00000D78 LAB_15DC
00000D8A LAB_15F6
00000D90 LAB_15C2
00000D9C LAB_15D1
00000DAA LAB_1754
00000DB2 LAB_15FF
00000DB6 LAB_1602
00000DDA LAB_1629
00000DDE LAB_1636
00000DE4 LAB_1639
00000DE6 LAB_END
00000DEE LAB_STOP
00000DF0 LAB_163B
00000DFC LAB_1647
00000E02 LAB_164F
00000E14 LAB_RESTORE
00000E26 LAB_RESs
00000E32 LAB_GSCH
00000E3A LAB_1624
00000E40 RTS_006
00000E42 LAB_NULL
00000E4C LAB_CONT
00000E6A LAB_RUN
00000E7A LAB_RUNn
00000E80 LAB_DO
00000E92 LAB_GOSUB
00000E9C LAB_16B0
00000EA4 LAB_GOTO
00000EB4 LAB_GOTs
00000EC0 LAB_16D0
00000ED2 LAB_LOOP
00000EF4 DoRest
00000F08 DoCmp
00000F0E LoopAlways
00000F22 LoopDone
00000F28 LAB_RETURN
00000F3C LAB_DATA
00000F40 RTS_007
00000F42 LAB_SNBS
00000F4A LAB_172C
00000F52 LAB_172D
00000F56 RTS_007a
00000F5A LAB_1723
00000F5E LAB_1725
00000F64 LAB_IF
00000F7A LAB_174B
00000F82 LAB_REM
00000F8A LAB_ON
00000FA4 LAB_176C
00000FAE LAB_1773
00000FBE LAB_GFPN
00000FCA LAB_1785
00000FF6 LAB_1786
00000FFC LAB_DEC
00001002 LAB_INC
00001008 LAB_17B8
0000100C LAB_17B7
00001042 LAB_INCT
00001050 LAB_INCI
0000105A LAB_DECI
0000105E LAB_LET
00001086 LAB_17D5
0000108A LAB_17D6
0000109C LAB_1810
000010AC LAB_1811
000010B2 LAB_1813
000010B6 RTS_008
000010B8 LAB_GET
000010D2 LAB_GETS
000010E4 LAB_NoSt
000010EA LAB_1829
000010EE LAB_182C
000010F2 LAB_PRINT
000010F4 LAB_1831
00001134 LAB_185E
00001138 LAB_1866
0000113E LAB_CRLF
00001146 LAB_188B
00001154 LAB_1898
0000115E LAB_18A2
00001180 LAB_18B7
0000118C LAB_18B8
00001192 LAB_18BD
0000119C LAB_18C3
000011A0 LAB_18C6
000011AA LAB_18CD
000011B2 RTS_009
000011B4 LAB_18E3
000011B6 LAB_PRNA
000011D4 LAB_18F0
000011E2 LAB_18F7
000011E6 LAB_18F9
000011FA LAB_1880
00001204 LAB_1886
00001208 LAB_188A
0000120C LAB_1904
0000121E LAB_1913
0000122C LAB_INPUT
00001244 LAB_1934
00001252 LAB_READ
00001258 LAB_1953
00001260 LAB_195B
0000128A LAB_1984
0000128E LAB_1985
00001292 LAB_1986
000012A6 LAB_1999
000012B8 LAB_19B0
000012C8 LAB_19B6
000012D8 LAB_19C2
000012EC LAB_19DD
0000130C LAB_19F6
0000131A LAB_1A03
0000132A LAB_1A0E
00001330 LAB_1A1B
00001338 LAB_NEXT
0000134A LAB_1A46
00001358 LAB_11A5
0000135A LAB_11A6
00001366 LAB_11BD
000013C8 LAB_1A90
000013D6 LAB_1A9B
000013EE LAB_EVNM
000013F0 LAB_CTNM
000013F2 LAB_CKTM
00001400 LAB_1ABA
00001406 LAB_EVEX
00001408 LAB_EVEZ
0000140C LAB_1B43
00001428 LAB_1ACD
00001434 LAB_1ADB
00001438 LAB_1ADE
0000144E LAB_1AE0
00001468 LAB_1AFA
00001480 LAB_1B0B
00001488 LAB_1B13
0000149A LAB_1B1C
0000149C LAB_1B1D
000014B0 LAB_1B2A
000014CC LAB_1B3C
000014D8 LAB_1B78
000014DC LAB_1B7B
000014DE LAB_1B7D
000014E8 LAB_1B84
000014EC LAB_1B86
00001510 LAB_1B9D
00001516 LAB_GVAL
00001542 LAB_1BC1
0000154E LAB_1BF3
00001554 LAB_1BF7
00001558 LAB_1BFB
0000155C LAB_SCGB
00001560 LAB_1C01
00001562 LAB_SCCA
0000156A LAB_IGBY
0000156C LAB_GBYT
0000156E LAB_TBYT
00001580 RTS_001
00001582 LAB_1C11
00001584 LAB_1C13
0000158C LAB_1C18
00001590 LAB_1C19
000015A0 LAB_1C1A
000015A6 LAB_1BD0
000015C0 LAB_1BE7
000015F2 LAB_PPFS
000015FE LAB_1C2A
00001600 LAB_PPFN
0000160E LAB_PPBI
00001618 LAB_LRMS
0000163A LAB_BHSS
00001662 LAB_BHCB
0000166C LAB_EOR
00001674 LAB_OR
0000167C LAB_AND
00001684 GetFirst
00001692 LAB_EQUAL
0000169C LAB_LTHAN
000016A8 LAB_1CAE
000016C6 LAB_1CB5
000016D0 LAB_1CD4
000016D6 LAB_1CD5
000016D8 LAB_1CD6
000016DA LAB_1CE6
000016E8 LAB_1CDB
000016EA LAB_1CF2
00001700 LAB_1CFE
00001704 LAB_DIM
00001710 LAB_LSHIFT
0000171C NoShift
00001720 LAB_RSHIFT
00001734 Not2Big
0000173A TooBig
00001740 GetPair
00001752 LAB_CASC
00001758 LAB_CAUC
00001762 LAB_1D8A
00001768 LAB_1D83
0000176E LAB_GVAR
00001774 LAB_1D10
00001778 LAB_1D12
0000178A LAB_1D2D
00001796 LAB_1D2E
000017B2 LAB_1D44
000017C2 LAB_1D45
000017D6 LAB_1D48
000017DE LAB_1D49
000017E2 LAB_1D4A
000017F2 LAB_1D4B
000017FA LAB_1D5D
00001800 LAB_1D5E
00001818 LAB_1D98
00001832 LAB_1DAC
00001834 LAB_1DAE
00001840 LAB_1DAF
0000184E LAB_1DB0
00001852 LAB_1DB1
00001856 LAB_1DB2
0000186E LAB_1DD7
00001882 LAB_1DD8
0000188E LAB_1DD9
00001896 LAB_1DE6
000018A2 LAB_EVIN
000018AA LAB_EVPI
000018B2 LAB_EVIR
000018D8 LAB_1E17
000018DE LAB_1E1F
00001918 LAB_1E5C
00001934 LAB_1E8D
00001950 LAB_1EA1
00001964 LAB_1EDF
00001978 LAB_1EC0
000019A4 LAB_1ED6
000019B2 LAB_1ED8
000019C4 LAB_1F07
000019DE LAB_1F28
000019E4 LAB_1F2C
000019F2 LAB_1F5A
00001A1A LAB_1F6A
00001A26 LAB_1F6B
00001A2A RTS_011
00001A2C LAB_1F7C
00001A50 LAB_FRE
00001A5A LAB_1FB4
00001A66 LAB_AYFC
00001A82 LAB_POS
00001A86 LAB_1FD0
00001A8E LAB_CKRN
00001A98 LAB_DEF
00001ACC LAB_DEFV
00001AEC LAB_201E
00001B3A LAB_2043
00001B3C LAB_204S
00001B6A LAB_204T
00001B6C LAB_2044
00001B76 LAB_2045
00001B84 LAB_STRS
00001B88 LAB_20AE
00001B8C LAB_20B4
00001B92 LAB_20BE
00001BA2 LAB_20CB
00001BAA LAB_20D0
00001BB6 LAB_20C9
00001BC0 LAB_20D8
00001BC8 LAB_20E0
00001BCE LAB_RTST
00001BE8 LAB_2115
00001C00 LAB_2117
00001C1A LAB_2128
00001C1E LAB_2137
00001C34 LAB_GARB
00001C3E LAB_214B
00001C54 LAB_2161
00001C5C LAB_2176
00001C6A LAB_217E
00001C84 LAB_2183
00001C8C LAB_218B
00001C8E LAB_218F
00001C9A LAB_21C2
00001CA0 LAB_21C4
00001CC4 LAB_2216
00001CCC LAB_2240
00001CD4 LAB_21D1
00001CDA LAB_2206
00001D02 LAB_2212
00001D06 RTS_012
00001D08 LAB_224D
00001D5A LAB_229E
00001D66 LAB_22A0
00001D72 RTS_013
00001D74 LAB_22B6
00001D78 LAB_22BA
00001D82 LAB_22BD
00001D9C LAB_22E6
00001DA6 LAB_CHRS
00001DB6 LAB_LEFT
00001DCA LAB_RIGHT
00001DDC LAB_2316
00001DDE LAB_2317
00001DE2 LAB_231C
00001DFA LAB_MIDS
00001E16 LAB_2358
00001E36 LAB_2368
00001E3E LAB_LCASE
00001E54 LC_loop
00001E66 NoUcase
00001E6E LAB_UCASE
00001E84 UC_loop
00001E96 NoLcase
00001E9C NoString
00001EA0 LAB_SADD
00001EB8 LAB_LENS
00001EC0 LAB_ASC
00001ED0 LAB_SGBY
00001ED4 LAB_GTBY
00001ED8 LAB_EVBY
00001EE8 LAB_GTWO
00001EFC LAB_VAL
00001F24 LAB_VALZ
00001F2A LAB_GADB
00001F3E LAB_GADW
00001F58 LAB_XGADW
00001F5E LAB_GEAD
00001F74 LAB_PEEK
00001F80 LAB_POKE
00001F86 LAB_DEEK
00001F9C LAB_LEEK
00001FB0 LAB_DOKE
00001FB6 LAB_LOKE
00001FC8 RTS_015
00001FCA LAB_SWAP
00001FF6 LAB_USR
00001FFE LAB_LOAD
00002000 VDC_LAYER0_TILES
00002002 LAB_SAVE
00002006 LAB_CALL
00002010 LAB_WAIT
00002026 LAB_2441
0000202A LAB_2445
00002034 LAB_SUBTRACT
00002048 LAB_ADD
0000206C LAB_249C
0000207A LAB_2467
0000207E LAB_2468
00002082 LAB_24A8
0000209C LAB_24F7
000020A0 RTS_016
000020A2 LAB_24F8
000020AC LAB_24B4
000020B8 LAB_24D0
000020C4 LAB_24D5
000020D2 LAB_24D9
000020DE LAB_24D6
000020EC LAB_24D7
000020F2 LAB_24D8
000020F8 LAB_24DA
000020FA LAB_LOG
00002172 LAB_LAAD
00002178 LAB_LOCC
00002182 LAB_LOLP
00002194 LAB_LOCX
00002198 LAB_LONN
000021A6 LAB_LOXP
000021B0 LAB_LONE
000021B6 LAB_LOXO
000021EA LAB_LOWZ
000021EC LAB_MULTIPLY
00002216 LAB_MNOC
0000221E LAB_MADD
00002248 LAB_MUF1
00002252 LAB_MUF2
00002268 LAB_MUF3
0000226C LAB_MUEX
00002272 LAB_MUUF
0000227E LAB_DIVIDE
000022B6 AC1gtAC2
000022CE LAB_DIVX
000022D6 LAB_SET1
000022DA L_DIVRND
000022E8 LAB_XDIV
000022F4 LAB_MAN1
000022FA LAB_DIV0
00002302 LAB_32_16
00002304 LAB_3216
00002310 LAB_LT_1
00002328 LAB_REMM
00002330 L_DDIV
00002336 LAB_UFAC
00002348 LAB_NB1T
00002352 LAB_PFAC
0000236A LAB_2778
0000236C LAB_277C
00002390 LAB_279B
0000239E LAB_27BA
000023BA LAB_27C3
000023C4 LAB_27C4
000023C8 RTS_017
000023CA LAB_27CA
000023D2 LAB_27CE
000023D6 LAB_27D0
000023E2 LAB_SGN
000023E4 LAB_27DB
000023F4 LAB_ABS
000023FC LAB_27FA
0000241C LAB_2828
00002422 LAB_282E
00002424 LAB_282F
00002428 LAB_2831
0000244A LAB_284G
00002454 LAB_284L
0000245E LAB_284H
00002460 LAB_284J
00002466 LAB_INT
0000247E LAB_IRTS
00002480 LAB_2953
0000248C LAB_295E
00002498 LAB_2967
000024A0 LAB_2968
000024B2 LAB_2969
000024BC LAB_296A
000024D2 LAB_2970
000024E6 LAB_2978
000024F4 LAB_2989
0000251E LAB_299C
00002548 LAB_29A7
00002560 LAB_29B7
0000256E LAB_29B9
0000259A LAB_29C0
000025B2 LAB_29C3
000025CE LAB_29D9
000025E0 LAB_29E4
000025F4 LAB_29F7
000025F8 LAB_29FB
00002600 LAB_29FD
00002610 LAB_2A18
00002612 LAB_2A1A
0000261A LAB_2A21
0000263C LAB_2A3B
0000264A LAB_2A4B
0000265E LAB_2A58
00002676 LAB_2A68
00002682 LAB_2A74
0000269E LAB_2A89
000026A2 LAB_2A8C
000026A8 LAB_2A91
000026AC LAB_27F0
000026C2 LAB_27F1
000026C8 LAB_27F2
000026CA LAB_27F3
000026CC LAB_POON
000026DC LAB_POZE
000026E8 LAB_POWER
0000271A LAB_POWP
0000274C LAB_GTHAN
00002758 RTS_020
0000275A LAB_EX1
0000276A LAB_EXOU
0000277E LAB_EXOF
00002794 LAB_EXOL
0000279E LAB_EXP
000027C4 LAB_EXCM
000027D6 LAB_EXPS
00002822 LAB_ESML
00002878 LAB_EXPL
0000287E LAB_EXNN
00002884 LAB_EXRN
00002892 LAB_EXCC
000028AC LAB_EXAD
000028B8 LAB_RND
000028C6 NextPRN
000028CE Ninc0
000028D4 Ninc1
000028EA LAB_TAN
0000290C LAB_COS
00002924 LAB_SIN
0000296A LAB_SCZE
00002978 LAB_SCL0
00002982 LAB_CORD
00002992 LAB_LTPF
000029A2 LAB_LTPT
000029B2 subloop
000029BA mainloop
000029CC nexta
000029DA outloop
000029E4 subexit
000029F0 LAB_ATN
00002A0E LAB_ATGO
00002A2C LAB_ATLE
00002A4A LAB_ATNP
00002A50 LAB_ATCD
00002A56 LAB_CATN
00002AA2 RTS_021
00002AA4 LAB_BITSET
00002AB4 LAB_BITCLR
00002AC4 LAB_BTST
00002AF2 LAB_BINS
00002B02 NextB1
00002B10 EndBHS
00002B28 NextB2
00002B36 BinPr
00002B40 GoPr
00002B44 LAB_HEXS
00002B54 NextH1
00002B6E VEC_CC
00002B88 LAB_FBA0
00002B92 RTS_022
00002B94 INGET
00002BA4 LAB_FB95
00002BB0 LAB_MAX
00002BBC LAB_MAXN
00002BC6 LAB_MIN
00002BD2 LAB_MINN
00002BDC LAB_MMEC
00002BEC LAB_PHFA
00002C22 LAB_WDTH
00002C42 LAB_NSTT
00002C54 LAB_TBSZ
00002C74 LAB_SVTB
00002C78 WExit
00002C88 LAB_WDLP
00002CA0 RTS_023
00002CA2 LAB_SQR
00002CC6 LAB_SQE1
00002CCC LAB_SQE2
00002CDE LAB_SQNS
00002CF4 LAB_SQNA
00002D04 LAB_VARPTR
00002D14 LAB_RAM
00002D1E LAB_PI
00002D2E LAB_TWOPI
00002D3E LAB_2887
00002D68 LAB_289A
00002D6E LAB_289C
00002D74 LAB_289D
00002D90 LAB_28FD
00002D96 LAB_28FE
00002D9C LAB_28FF
00002DAA LAB_2900
00002DB2 LAB_2901
00002DCA LAB_2X01
00002DD2 LAB_2X02
00002DE0 LAB_2X03
00002DE6 LAB_2X04
00002DFC LAB_2X05
00002E04 LAB_2902
00002E0C LAB_2903
00002E0E LAB_2904
00002E1C LAB_2Y01
00002E24 LAB_2Y02
00002E30 LAB_2Y03
00002E36 LAB_2Y04
00002E7C LAB_ret0
00002E7E LAB_rtn0
00002E8E LAB_CHEX
00002E96 LAB_CHXX
00002EB0 LAB_ISHN
00002EB4 LAB_CHX1
00002ED0 LAB_CHX3
00002ED8 LAB_CHX2
00002EDE LAB_exxf
00002EEE RTS_024
00002EF0 LAB_CBIN
00002EF8 LAB_CBXN
00002F0A LAB_CBX1
00002F1E d1x16
00002F2C d1x02
00002F42 d1x10
00002F50 RTS_025
00002F52 Bin2dec
00002F76 LAB_1D96
00002F7A LAB_RSED
00003000 VDC_LAYER0_COLORS
00003062 LAB_P_10
00003150 TAB_SNCO
000031D0 TAB_ATNC
00003250 TAB_HTHET
000032D0 LAB_CTBL
00003320 LAB_FTPP
0000336A LAB_FTBL
000033B4 LAB_OPPT
000033E8 LAB_2A9A
00003400 TAB_CHRT
0000346A LAB_KEYT
000035F6 LAB_BAER
00003622 LAB_NF
00003633 LAB_SN
0000363A LAB_RG
0000364F LAB_OD
0000365B LAB_FC
00003669 LAB_OV
00003672 LAB_OM
00003680 LAB_US
00003694 LAB_BS
000036A1 LAB_DD
000036B2 LAB_D0
000036C1 LAB_ID
000036D0 LAB_TM
000036DE LAB_LS
000036EE LAB_ST
00003701 LAB_CN
00003710 LAB_UF
00003723 LAB_LD
00003733 LAB_UV
00003746 LAB_UA
0000375A LAB_WD
0000376B LAB_AD
00003773 TAB_STAR
00003773 KEY_MULT
00003775 TAB_PLUS
00003775 KEY_PLUS
00003777 TAB_MNUS
00003777 KEY_MINUS
00003779 TAB_SLAS
00003779 KEY_DIV
0000377B KEY_LSHIFT
0000377B TAB_LESS
0000377D KEY_LT
0000377F KEY_EQUAL
0000377F TAB_EQUL
00003781 TAB_MORE
00003781 KEY_RSHIFT
00003783 KEY_GT
00003785 TAB_QEST
00003787 TAB_ASCA
00003787 KEY_ABS
0000378B KEY_AND
0000378E KEY_ASC
00003792 KEY_ATN
00003797 TAB_ASCB
00003797 KEY_BINS
0000379C KEY_BITCLR
000037A2 KEY_BITSET
000037A8 KEY_BITTST
000037B0 KEY_CALL
000037B0 TAB_ASCC
000037B4 KEY_CHRS
000037B9 KEY_CLEAR
000037BE KEY_CONT
000037C2 KEY_COS
000037C7 TAB_ASCD
000037C7 KEY_DATA
000037CB KEY_DEC
000037CE KEY_DEEK
000037D3 KEY_DEF
000037D6 KEY_DIM
000037D9 KEY_DOKE
000037DD KEY_DO
000037E0 KEY_END
000037E0 TAB_ASCE
000037E3 KEY_EOR
000037E6 KEY_EXP
000037EB KEY_FOR
000037EB TAB_ASCF
000037EE KEY_FN
000037F0 KEY_FRE
000037F5 TAB_ASCG
000037F5 KEY_GET
000037F8 KEY_GOTO
000037FC KEY_GOSUB
00003802 TAB_ASCH
00003802 KEY_HEXS
00003808 KEY_IF
00003808 TAB_ASCI
0000380A KEY_INC
0000380D KEY_INPUT
00003812 KEY_INT
00003817 KEY_LCASES
00003817 TAB_ASCL
0000381E KEY_LEEK
00003823 KEY_LEFTS
00003829 KEY_LEN
0000382D KEY_LET
00003830 KEY_LIST
00003834 KEY_LOAD
00003838 KEY_LOG
0000383C KEY_LOKE
00003840 KEY_LOOP
00003845 TAB_ASCM
00003845 KEY_MAX
00003849 KEY_MIDS
0000384E KEY_MIN
00003853 TAB_ASCN
00003853 KEY_NEW
00003856 KEY_NEXT
0000385A KEY_NOT
0000385D KEY_NULL
00003862 KEY_ON
00003862 TAB_ASCO
00003864 KEY_OR
00003867 TAB_ASCP
00003867 KEY_PEEK
0000386C KEY_PI
0000386E KEY_POKE
00003872 KEY_POS
00003876 KEY_PRINT
0000387C KEY_RAM
0000387C TAB_ASCR
00003883 KEY_READ
00003887 KEY_REM
0000388A KEY_RESTORE
00003891 KEY_RETURN
00003897 KEY_RIGHTS
0000389E KEY_RND
000038A2 KEY_RUN
000038A6 KEY_SADD
000038A6 TAB_ASCS
000038AB KEY_SAVE
000038AF KEY_SGN
000038B3 KEY_SIN
000038B7 KEY_SPC
000038BB KEY_SQR
000038BF KEY_STEP
000038C3 KEY_STOP
000038C7 KEY_STRS
000038CC KEY_SWAP
000038D1 TAB_ASCT
000038D1 KEY_TAB
000038D5 KEY_TAN
000038D9 KEY_THEN
000038DD KEY_TO
000038DF KEY_TWOPI
000038E5 TAB_ASCU
000038E5 KEY_UCASES
000038EC KEY_UNTIL
000038F1 KEY_USR
000038F6 KEY_VAL
000038F6 TAB_ASCV
000038FA KEY_VPTR
00003902 TAB_ASCW
00003902 KEY_WAIT
00003906 KEY_WHILE
0000390B KEY_WIDTH
00003911 KEY_POWER
00003911 TAB_POWR
00003913 LAB_BMSG
0000391B LAB_EMSG
00003922 LAB_LMSG
0000392C LAB_IMSG
0000393C LAB_REDO
0000394E LAB_RMSG
00003958 LAB_SMSG
00006000 logo_animation
00006001 binary_ready
00006002 cursor_pos
00006004 cursor_color
00006006 terminal_chars
0000600A terminal_colors
0000600E chunk_length
00006012 exec_address
00006016 rnda
00006017 rndb
00006018 rndc
00006019 rndx
00010024 _start
00010086 loop
00010094 _jump
0001010A exc_addr_error
0001010E exc_illegal_instr
00010116 exc_privilege_violation
0001011E exc_spurious_interrupt
00010120 exc_lvl1_irq_auto
00010122 exc_lvl2_irq_auto
0001025A exc_lvl4_irq_auto
0001028A exc_lvl6_irq_auto
00010304 exc_trap14_handler
00010312 exc_trap15_handler
00010336 timer_default_handler
0001033E sound_reset
00010380 init_vector_table
00010412 vdc_init_layer0
0001043E vdc_copy_rom_font
00010462 vdc_copy_logo_tiles
0001047A vdc_init_logo
000104A8 vdc_disable_logo
000104AA terminal_init
000104C8 terminal_clear
000104F0 terminal_putchar
0001055E terminal_putstring
0001057A terminal_put_hex_number
000105B8 terminal_add_bottom_row
000105E6 rnd_impl
00010616 file_error
00010631 file_loading1
00010647 file_loading2
0001064A file_loading3
0001064D file_loading4
00010660 logo_data
000106A0 logo_tiles
000106E0 hex_values
00040000 ram_top
E6A3D110 KFCTSEED
