Sections:
00: "org0001:10000" (10000-10678)


Source: "rom.s"
                            	     1: ; ----------------------------------------------------------------------
                            	     2: ; rom.s (assembles with vasmm68k_mot)
                            	     3: ; lime
                            	     4: ;
                            	     5: ; Copyright © 2025-2026 elmerucr. All rights reserved.
                            	     6: ; ----------------------------------------------------------------------
                            	     7: 
                            	     8: ; ----------------------------------------------------------------------
                            	     9: ; - Calling convention: D0-D1/A0-A1 are scratch registers, and need to
                            	    10: ;   be caller saved when to be kept
                            	    11: ; - tab size: 8
                            	    12: ;
                            	    13: ; ----------------------------------------------------------------------
                            	    14: 
                            	    15: 	include	"definitions.i"

Source: "definitions.i"
                            	     1: ; ----------------------------------------------------------------------
                            	     2: ; definitions.i
                            	     3: ; lime
                            	     4: ;
                            	     5: ; Copyright © 2025 elmerucr. All rights reserved.
                            	     6: ; ----------------------------------------------------------------------
                            	     7: 
                            	     8: ; vectors
                            	     9: VEC_ADDR_ERROR			equ	$000c
                            	    10: VEC_ILLEGAL_INSTR		equ	$0010
                            	    11: VEC_PRIVILEGE_VIOLATION	equ	$0020
                            	    12: VEC_SPURIOUS_INTERRUPT	equ	$0060
                            	    13: VEC_LVL1_IRQ_AUTO		equ	$0064
                            	    14: VEC_LVL2_IRQ_AUTO		equ	$0068	; entry point for core
                            	    15: VEC_LVL4_IRQ_AUTO		equ	$0070	; entry point for timer
                            	    16: VEC_LVL6_IRQ_AUTO		equ	$0078	; entry point for vdc
                            	    17: VEC_LVL7_IRQ_AUTO		equ	$007c	; currently unused
                            	    18: VEC_TRAP0			equ	$0080
                            	    19: VEC_TRAP1			equ	$0084
                            	    20: VEC_TRAP2			equ	$0088
                            	    21: VEC_TRAP3			equ	$008c
                            	    22: VEC_TRAP4			equ	$0090
                            	    23: VEC_TRAP5			equ	$0094
                            	    24: VEC_TRAP6			equ	$0098
                            	    25: VEC_TRAP7			equ	$009c
                            	    26: VEC_TRAP8			equ	$00a0
                            	    27: VEC_TRAP9			equ	$00a4
                            	    28: VEC_TRAP10			equ	$00a8
                            	    29: VEC_TRAP11			equ	$00ac
                            	    30: VEC_TRAP12			equ	$00b0
                            	    31: VEC_TRAP13			equ	$00b4
                            	    32: VEC_TRAP14			equ	$00b8
                            	    33: VEC_TRAP15			equ	$00bc
                            	    34: 
                            	    35: VEC_TIMER0			equ	$0100	; $0100 onwards, user vectors
                            	    36: VEC_TIMER1			equ	$0104
                            	    37: VEC_TIMER2			equ	$0108
                            	    38: VEC_TIMER3			equ	$010c
                            	    39: VEC_TIMER4			equ	$0110
                            	    40: VEC_TIMER5			equ	$0114
                            	    41: VEC_TIMER6			equ	$0118
                            	    42: VEC_TIMER7			equ	$011c
                            	    43: 
                            	    44: ; vdc (video display controller)
                            	    45: VDC_SR				equ	$0400
                            	    46: VDC_CR				equ	$0401
                            	    47: VDC_BG_COLOR			equ	$0404
                            	    48: VDC_CURRENT_LAYER		equ	$0406
                            	    49: VDC_CURRENT_SPRITE		equ	$0407
                            	    50: VDC_CURRENT_SCANLINE_MSB	equ	$040c
                            	    51: VDC_CURRENT_SCANLINE_LSB	equ	$040d
                            	    52: VDC_IRQ_SCANLINE_MSB		equ	$040e
                            	    53: VDC_IRQ_SCANLINE_LSB		equ	$040f
                            	    54: 
                            	    55: VDC_LAYER_X_MSB			equ	$0410
                            	    56: VDC_LAYER_X_LSB			equ	$0411
                            	    57: VDC_LAYER_Y_MSB			equ	$0412
                            	    58: VDC_LAYER_Y_LSB			equ	$0413
                            	    59: VDC_LAYER_FLAGS0		equ	$0414
                            	    60: VDC_LAYER_FLAGS1		equ	$0415
                            	    61: VDC_LAYER_COLOR0		equ	$0418
                            	    62: VDC_LAYER_COLOR1		equ	$0419
                            	    63: VDC_LAYER_COLOR2		equ	$041a
                            	    64: VDC_LAYER_COLOR3		equ	$041b
                            	    65: VDC_LAYER_TILES_MSB		equ	$041c
                            	    66: VDC_LAYER_TILES_LSB		equ	$041d
                            	    67: VDC_LAYER_TILESET_MSB		equ	$041e
                            	    68: VDC_LAYER_TILESET_LSB		equ	$041f
                            	    69: 
                            	    70: VDC_SPRITE_X_MSB		equ	$0420
                            	    71: VDC_SPRITE_X_LSB		equ	$0421
                            	    72: VDC_SPRITE_Y_MSB		equ	$0422
                            	    73: VDC_SPRITE_Y_LSB		equ	$0423
                            	    74: VDC_SPRITE_FLAGS0		equ	$0424
                            	    75: VDC_SPRITE_FLAGS1		equ	$0425
                            	    76: VDC_SPRITE_COLOR0		equ	$0428
                            	    77: VDC_SPRITE_COLOR1		equ	$0429
                            	    78: VDC_SPRITE_COLOR2		equ	$042a
                            	    79: VDC_SPRITE_COLOR3		equ	$042b
                            	    80: 
                            	    81: VDC_TILESET_ADDRESS		equ	$1000
                            	    82: 
                            	    83: VDC_LAYER0_COLORS		equ	$2000
                            	    84: VDC_LAYER1_COLORS		equ	$2800
                            	    85: VDC_LAYER2_COLORS		equ	$3000
                            	    86: VDC_LAYER3_COLORS		equ	$3800
                            	    87: 
                            	    88: VDC_LAYER0_TILES		equ	$4000
                            	    89: VDC_LAYER1_TILES		equ	$4800
                            	    90: VDC_LAYER2_TILES		equ	$5000
                            	    91: VDC_LAYER3_TILES		equ	$5800
                            	    92: 
                            	    93: ; sound devices
                            	    94: SID0_F				equ	$0500
                            	    95: SID0_PW				equ	$0502
                            	    96: SID0_V				equ	$051b
                            	    97: SID1_V				equ	$053b
                            	    98: MIX_SID0_LEFT			equ	$0580
                            	    99: MIX_SID0_RIGHT			equ	$0581
                            	   100: MIX_SID1_LEFT			equ	$0582
                            	   101: MIX_SID1_RIGHT			equ	$0583
                            	   102: MIX_ANA0_LEFT			equ	$0584
                            	   103: MIX_ANA0_RIGHT			equ	$0585
                            	   104: MIX_ANA1_LEFT			equ	$0586
                            	   105: MIX_ANA1_RIGHT			equ	$0587
                            	   106: 
                            	   107: ; timer
                            	   108: TIMER_SR			equ	$0440
                            	   109: TIMER_CR			equ	$0441
                            	   110: TIMER0_BPM			equ	$0450
                            	   111: TIMER1_BPM			equ	$0452
                            	   112: TIMER2_BPM			equ	$0454
                            	   113: TIMER3_BPM			equ	$0456
                            	   114: TIMER4_BPM			equ	$0458
                            	   115: TIMER5_BPM			equ	$045a
                            	   116: TIMER6_BPM			equ	$045c
                            	   117: TIMER7_BPM			equ	$045e
                            	   118: 
                            	   119: ; core
                            	   120: CORE_SR				equ	$0480
                            	   121: CORE_CR				equ	$0481
                            	   122: CORE_ROMS			equ	$0482
                            	   123: CORE_FILE_DATA			equ	$0484
                            	   124: CORE_INPUT0			equ	$0488
                            	   125: 
                            	   126: RAM_START			equ	$20000
                            	   127: 

Source: "rom.s"
                            	    16: 
                            	    17: logo_animation	equ	$6000	; 1 byte
                            	    18: binary_ready	equ	$6001	; 1 byte
                            	    19: cursor_pos	equ	$6002	; 1 word
                            	    20: cursor_color	equ	$6004	; 1 byte
                            	    21: ; available slot
                            	    22: terminal_chars	equ	$6006	; 1 word
                            	    23: terminal_colors	equ	$6008	; 1 word
                            	    24: chunk_length	equ	$600a	; 1 long
                            	    25: exec_address	equ	$600e	; 1 long
                            	    26: rnda		equ	$6012	; 1 byte
                            	    27: rndb		equ	$6013	; 1 byte
                            	    28: rndc		equ	$6014	; 1 byte
                            	    29: rndx		equ	$6015	; 1 byte
                            	    30: 
                            	    31: TERMINAL_HPITCH	equ	$40	; 64
                            	    32: TERMINAL_VPITCH	equ	$20	; 32
                            	    33: TERMINAL_WIDTH	equ	$28	; 40 columns
                            	    34: TERMINAL_HEIGHT	equ	$16	; 22 rows
                            	    35: ;TERMINAL_SIZE	equ	(TERMINAL_HPITCH*TERMINAL_VPITCH)
                            	    36: 
                            	    37: 
                            	    38: 	org	$00010000	; rom based at $10000
                            	    39: 
00:00010000 01000000        	    40: 	dc.l	$01000000	; initial ssp at end of ram
00:00010004 00010020        	    41: 	dc.l	_start		; reset vector
00:00010008 726F6D206D633638	    42: 	dc.b	"rom mc68000 0.8.20260128"
00:00010010 30303020302E382E
00:00010018 3230323630313238
                            	    43: 
                            	    44: 	align	2
                            	    45: 
                            	    46: _start
00:00010020 207C00010000    	    47: 	move.l	#$00010000,A0			; set usp
00:00010026 4E60            	    48: 	move.l	A0,USP
                            	    49: 
00:00010028 203C00008000    	    50: 	move.l	#$8000,D0			; small delay at reset
00:0001002E 5380            	    51: .1	subq.l	#1,D0
00:00010030 6600FFFC        	    52: 	bne	.1
                            	    53: 
00:00010034 4EB900010346    	    54: 	jsr	init_vector_table
00:0001003A 4EB9000103D0    	    55: 	jsr	vdc_init_layer0
00:00010040 4EB9000103E4    	    56: 	jsr	vdc_copy_rom_font
00:00010046 4EB900010408    	    57: 	jsr	vdc_copy_logo_tiles
00:0001004C 4EB900010420    	    58: 	jsr	vdc_init_logo
00:00010052 4EB900010304    	    59: 	jsr	sound_reset
00:00010058 4EB900010450    	    60: 	jsr	terminal_init
00:0001005E 4EB90001046A    	    61: 	jsr	terminal_clear
                            	    62: 
00:00010064 11FC00686000    	    63: 	move.b	#$68,logo_animation.w		; init variable for letter wobble
00:0001006A 13FC00B30000040F	    64: 	move.b	#$b3,VDC_IRQ_SCANLINE_LSB	; set rasterline 179
00:00010072 13FC000100000401	    65: 	move.b	#%00000001,VDC_CR		; enable irq's for vdc
                            	    66: 
00:0001007A 027C00FF        	    67: 	andi.w	#$00ff,SR			; jump to user mode, IPL reg = 0b000
                            	    68: 
00:0001007E 42386001        	    69: 	clr.b	binary_ready.w
                            	    70: 
00:00010082 42B900006012    	    71: 	clr.l	rnda				; init random generator, clears all: rnda, rndb, rndc and rndx
                            	    72: 
00:00010088 4A386001        	    73: loop	tst.b	binary_ready.w
00:0001008C 6700FFFA        	    74: 	beq	loop				; loop forever, wait for events
                            	    75: 
00:00010090 423900000481    	    76: _jump	clr.b	CORE_CR				; no irq when new bin inserted
00:00010096 423900000401    	    77: 	clr.b	VDC_CR				; stop interrupts at scanline 179
00:0001009C 4200            	    78: 	clr.b	D0
00:0001009E 13C000000407    	    79: .1	move.b	D0,VDC_CURRENT_SPRITE
00:000100A4 423900000424    	    80: 	clr.b	VDC_SPRITE_FLAGS0
00:000100AA 5200            	    81: 	addq.b	#1,D0
00:000100AC B03C0008        	    82: 	cmp.b	#8,D0
00:000100B0 6600FFEC        	    83: 	bne	.1
                            	    84: 
00:000100B4 4879000105E0    	    85: 	pea	file_loading4
00:000100BA 61000444        	    86: 	bsr	terminal_putstring
00:000100BE 588F            	    87: 	addq.l	#4,SP
                            	    88: 
00:000100C0 2F390000600E    	    89: 	move.l	exec_address,-(SP)
00:000100C6 1F3C0008        	    90: 	move.b	#8,-(SP)
00:000100CA 61000450        	    91: 	bsr	terminal_put_hex_number
00:000100CE 5C8F            	    92: 	addq.l	#6,SP
                            	    93: 
00:000100D0 203C000C0000    	    94: 	move.l	#$000c0000,D0
00:000100D6 5380            	    95: .2	subq.l	#1,D0
00:000100D8 6600FFFC        	    96: 	bne	.2
                            	    97: 
00:000100DC 6100038C        	    98: 	bsr	terminal_clear
                            	    99: 
00:000100E0 20790000600E    	   100: 	movea.l	exec_address,A0
00:000100E6 4ED0            	   101: 	jmp	(A0)
                            	   102: 
                            	   103: 
                            	   104: exc_addr_error
00:000100E8 6000FFFE        	   105: 	bra	exc_addr_error			; TODO: bsod when this happens?
                            	   106: 
                            	   107: 
                            	   108: exc_illegal_instr
00:000100EC 11FC00120404    	   109: 	move.b	#$12,VDC_BG_COLOR.w
00:000100F2 60FE            	   110: .1	bra.s	.1
                            	   111: 
                            	   112: 
                            	   113: exc_privilege_violation
00:000100F4 11FC00150404    	   114: 	move.b	#$15,VDC_BG_COLOR.w
00:000100FA 60FE            	   115: .1	bra.s	.1
                            	   116: 
                            	   117: 
                            	   118: exc_spurious_interrupt
00:000100FC 4E73            	   119: 	rte
                            	   120: 
                            	   121: 
                            	   122: exc_lvl1_irq_auto
00:000100FE 4E73            	   123: 	rte
                            	   124: 
                            	   125: 
                            	   126: exc_lvl2_irq_auto
00:00010100 48E7C000        	   127: 	movem.l	D0-D1,-(SP)
00:00010104 103900000480    	   128: 	move.b	CORE_SR,D0				; did core cause an irq?
00:0001010A 67000126        	   129: 	beq	.3					; no
00:0001010E 13C000000480    	   130: 	move.b	D0,CORE_SR				; yes, acknowledge
                            	   131: 
00:00010114 10380484        	   132: 	move.b	CORE_FILE_DATA.w,D0			; get first byte
00:00010118 B07C0001        	   133: 	cmp	#1,D0
00:0001011C 66000108        	   134: 	bne	.2					; it's not a valid file
                            	   135: 
00:00010120 4879000105C3    	   136: 	pea	file_loading1
00:00010126 610003D8        	   137: 	bsr	terminal_putstring
00:0001012A 588F            	   138: 	addq.l	#4,SP
                            	   139: 
00:0001012C 4879000105DA    	   140: .start	pea	file_loading2
00:00010132 610003CC        	   141: 	bsr	terminal_putstring
00:00010136 588F            	   142: 	addq.l	#4,SP
                            	   143: 
00:00010138 4280            	   144: 	clr.l	D0
00:0001013A 10380484        	   145: 	move.b	CORE_FILE_DATA.w,D0
00:0001013E 660000E6        	   146: 	bne	.2					; should be zero this first byte
00:00010142 10380484        	   147: 	move.b	CORE_FILE_DATA.w,D0
00:00010146 E188            	   148: 	lsl.l	#8,D0
00:00010148 10380484        	   149: 	move.b	CORE_FILE_DATA.w,D0
00:0001014C E188            	   150: 	lsl.l	#8,D0
00:0001014E 10380484        	   151: 	move.b	CORE_FILE_DATA.w,D0
                            	   152: 
00:00010152 23C00000600A    	   153: 	move.l	D0,chunk_length
                            	   154: 
00:00010158 2F00            	   155: 	move.l	D0,-(SP)
00:0001015A 1F3C0006        	   156: 	move.b	#6,-(SP)
00:0001015E 610003BC        	   157: 	bsr	terminal_put_hex_number
00:00010162 5C8F            	   158: 	addq.l	#6,SP
                            	   159: 
00:00010164 4879000105DD    	   160: 	pea	file_loading3
00:0001016A 61000394        	   161: 	bsr	terminal_putstring
00:0001016E 588F            	   162: 	addq.l	#4,SP
                            	   163: 
00:00010170 4281            	   164: 	clr.l	D1
00:00010172 12380484        	   165: 	move.b	CORE_FILE_DATA.w,D1
00:00010176 660000AE        	   166: 	bne	.2
00:0001017A 12380484        	   167: 	move.b	CORE_FILE_DATA.w,D1
00:0001017E E189            	   168: 	lsl.l	#8,D1
00:00010180 12380484        	   169: 	move.b	CORE_FILE_DATA.w,D1
00:00010184 E189            	   170: 	lsl.l	#8,D1
00:00010186 12380484        	   171: 	move.b	CORE_FILE_DATA.w,D1
                            	   172: 
00:0001018A 2F01            	   173: 	move.l	D1,-(SP)
00:0001018C 1F3C0006        	   174: 	move.b	#6,-(SP)
00:00010190 6100038A        	   175: 	bsr	terminal_put_hex_number
00:00010194 548F            	   176: 	addq.l	#2,SP
00:00010196 205F            	   177: 	movea.l	(SP)+,A0
                            	   178: 
00:00010198 20390000600A    	   179: 	move.l	chunk_length,D0
                            	   180: 
00:0001019E 10F80484        	   181: .1	move.b	CORE_FILE_DATA.w,(A0)+	; get data and store in memory
00:000101A2 5340            	   182: 	subq	#1,D0
00:000101A4 6600FFF8        	   183: 	bne	.1
                            	   184: 
00:000101A8 2F08            	   185: 	move.l	A0,-(SP)
00:000101AA 4879000105DD    	   186: 	pea	file_loading3
00:000101B0 6100034E        	   187: 	bsr	terminal_putstring
00:000101B4 588F            	   188: 	addq.l	#4,SP
00:000101B6 205F            	   189: 	movea.l	(SP)+,A0
                            	   190: 
00:000101B8 5348            	   191: 	subq.w	#1,A0			; now A0 contains the last address in which a byte was loaded
00:000101BA 2F08            	   192: 	move.l	A0,-(SP)
00:000101BC 1F3C0006        	   193: 	move.b	#6,-(SP)
00:000101C0 6100035A        	   194: 	bsr	terminal_put_hex_number
00:000101C4 5C8F            	   195: 	addq.l	#6,SP
                            	   196: 
00:000101C6 10380484        	   197: 	move.b	CORE_FILE_DATA.w,D0	; look for next chunk
00:000101CA B03C0001        	   198: 	cmp.b	#1,D0
00:000101CE 6700FF5C        	   199: 	beq	.start			; yes, another data chunk
00:000101D2 B03C00FE        	   200: 	cmp.b	#$fe,D0			; no, is this a postamble?
00:000101D6 6600004E        	   201: 	bne	.2			; no = error
                            	   202: 
00:000101DA 10380484        	   203: 	move.b	CORE_FILE_DATA.w,D0	; yes it's the postamble
00:000101DE 66000046        	   204: 	bne	.2			; should be zero
00:000101E2 10380484        	   205: 	move.b	CORE_FILE_DATA.w,D0
00:000101E6 6600003E        	   206: 	bne	.2			; should be zero
00:000101EA 10380484        	   207: 	move.b	CORE_FILE_DATA.w,D0
00:000101EE 66000036        	   208: 	bne	.2			; should be zero
00:000101F2 10380484        	   209: 	move.b	CORE_FILE_DATA.w,D0
00:000101F6 6600002E        	   210: 	bne	.2			; should be zero
                            	   211: 
00:000101FA 4280            	   212: 	clr.l	D0
00:000101FC 10380484        	   213: 	move.b	CORE_FILE_DATA.w,D0
00:00010200 66000024        	   214: 	bne	.2			; should be zero
00:00010204 10380484        	   215: 	move.b	CORE_FILE_DATA.w,D0
00:00010208 E188            	   216: 	lsl.l	#8,D0
00:0001020A 10380484        	   217: 	move.b	CORE_FILE_DATA.w,D0
00:0001020E E188            	   218: 	lsl.l	#8,D0
00:00010210 10380484        	   219: 	move.b	CORE_FILE_DATA.w,D0	; D0 contains starting address
00:00010214 23C00000600E    	   220: 	move.l	D0,exec_address
                            	   221: 
00:0001021A 13FC000100006001	   222: 	move.b	#1,binary_ready
00:00010222 6000000E        	   223: 	bra	.3
                            	   224: 
00:00010226 4879000105A8    	   225: .2	pea	file_error
00:0001022C 610002D2        	   226: 	bsr	terminal_putstring
00:00010230 588F            	   227: 	addq.l	#4,SP
00:00010232 4CDF0003        	   228: .3	movem.l	(SP)+,D0-D1
00:00010236 4E73            	   229: 	rte
                            	   230: 
                            	   231: 
                            	   232: exc_lvl4_irq_auto					; coupled to timer
00:00010238 207C00000100    	   233: 	movea.l	#VEC_TIMER0,A0
00:0001023E 103C0001        	   234: 	move.b	#%00000001,D0	; D0 contains the bit to be tested
                            	   235: 
00:00010242 1200            	   236: .1	move.b	D0,D1		; copy D0 to D1
00:00010244 C2380440        	   237: 	and.b	TIMER_SR.w,D1
00:00010248 6600000C        	   238: 	bne	.2		; it was this timer
00:0001024C 5848            	   239: 	addq	#4,A0
00:0001024E E300            	   240: 	asl.b	D0
00:00010250 6700000C        	   241: 	beq	.3
00:00010254 60EC            	   242: 	bra.s	.1
                            	   243: 
                            	   244: 	; code for dealing with this timer
00:00010256 11C00440        	   245: .2	move.b	D0,TIMER_SR.w	; confirm this irq
00:0001025A 2050            	   246: 	movea.l	(A0),A0
00:0001025C 4E90            	   247: 	jsr	(A0)
                            	   248: 
00:0001025E 4E73            	   249: .3	rte
                            	   250: 
                            	   251: 
                            	   252: exc_lvl6_irq_auto				; coupled to vdc
00:00010260 1F3900000407    	   253: 	move.b	VDC_CURRENT_SPRITE,-(SP)
                            	   254: 
00:00010266 10380400        	   255: 	move.b	VDC_SR.w,D0
00:0001026A 6700005E        	   256: 	beq	.end
00:0001026E 11C00400        	   257: 	move.b	D0,VDC_SR.w			; acknowledge irq
                            	   258: 
00:00010272 103900006000    	   259: 	move.b	logo_animation,D0
00:00010278 5200            	   260: 	addq.b	#$1,D0
00:0001027A B03C00B8        	   261: 	cmp.b	#$b8,D0				; did we reach x position $b8?
00:0001027E 6600000E        	   262: 	bne	.1				; no jump to .1
00:00010282 13FC000100000481	   263: 	move.b	#%00000001,CORE_CR		; yes, activate irq's for binary insert (each time we reach $b8)
                            	   264: 						; this makes sure letters wobble at least 1 time before binary
                            	   265: 						; load process starts
00:0001028A 103C0048        	   266: 	move.b	#$48,D0				; reset x position to $48
                            	   267: 
00:0001028E 13C000006000    	   268: .1	move.b	D0,logo_animation
                            	   269: 
00:00010294 123C0004        	   270: 	move.b	#4,D1				; start with sprite 4 (letter 'l')
00:00010298 13C100000407    	   271: .2	move.b	D1,VDC_CURRENT_SPRITE
00:0001029E 13FC005A00000423	   272: 	move.b	#90,VDC_SPRITE_Y_LSB		; base position for each letter
                            	   273: 
00:000102A6 103900000421    	   274: 	move.b	VDC_SPRITE_X_LSB,D0		; store x for current sprite in D0
00:000102AC 903900006000    	   275: 	sub.b	logo_animation,D0		; subtract logo_an x value from D0
                            	   276: 
00:000102B2 B03C0008        	   277: 	cmp.b	#8,D0
00:000102B6 64000008        	   278: 	bcc	.3				; if more than 8, jump to .3
                            	   279: 
00:000102BA 533900000423    	   280: 	subq.b	#1,VDC_SPRITE_Y_LSB		; move letter up 1 pixel
                            	   281: 
00:000102C0 5241            	   282: .3	addq	#1,D1				; move to next sprite
00:000102C2 B23C0008        	   283: 	cmp.b	#8,D1				; did we reach sprite 8?
00:000102C6 6600FFD0        	   284: 	bne	.2				; not yet, jump to .2
                            	   285: 
00:000102CA 11F804880404    	   286: .end	move.b	CORE_INPUT0.w,VDC_BG_COLOR.w
                            	   287: 
00:000102D0 13DF00000407    	   288: 	move.b	(SP)+,VDC_CURRENT_SPRITE
00:000102D6 4E73            	   289: 	rte
                            	   290: 
                            	   291: exc_trap15_handler
00:000102D8 B03C0001        	   292: 	cmp.b	#1,D0
00:000102DC 6600000C        	   293: 	bne	.1
00:000102E0 1F01            	   294: 	move.b	D1,-(SP)
00:000102E2 610001AE        	   295: 	bsr	terminal_putchar
00:000102E6 548F            	   296: 	addq.l	#2,SP
00:000102E8 4E73            	   297: 	rte
00:000102EA B03C0002        	   298: .1	cmp.b	#2,D0
00:000102EE 6600000A        	   299: 	bne	.2
00:000102F2 2F08            	   300: 	move.l	A0,-(SP)
00:000102F4 6100020A        	   301: 	bsr	terminal_putstring
00:000102F8 588F            	   302: 	addq.l	#4,SP
00:000102FA 4E73            	   303: .2	rte
                            	   304: 
                            	   305: timer_default_handler
00:000102FC 11FC00120404    	   306: 	move.b	#$12,VDC_BG_COLOR.w
00:00010302 4E75            	   307: 	rts
                            	   308: 
                            	   309: 
                            	   310: sound_reset
00:00010304 48E78080        	   311: 	movem.l	D0/A0,-(SP)
                            	   312: 
00:00010308 207C00000500    	   313: 	movea.l	#SID0_F,A0
                            	   314: 
00:0001030E 4218            	   315: .1	clr.b	(A0)+
00:00010310 B1FC00000540    	   316: 	cmpa.l	#SID0_F+$40,A0
00:00010316 6600FFF6        	   317: 	bne	.1
                            	   318: 
00:0001031A 103C007F        	   319: 	move.b	#$7f,D0
00:0001031E 207C00000580    	   320: 	movea.l	#MIX_SID0_LEFT,A0
                            	   321: 
00:00010324 10C0            	   322: .2	move.b	D0,(A0)+
00:00010326 B1FC00000588    	   323: 	cmpa.l	#MIX_SID0_LEFT+$8,A0
00:0001032C 6600FFF6        	   324: 	bne	.2
                            	   325: 
00:00010330 13FC000F0000051B	   326: 	move.b	#$f,SID0_V
00:00010338 13FC000F0000053B	   327: 	move.b	#$f,SID1_V
                            	   328: 
00:00010340 4CDF0101        	   329: 	movem.l	(SP)+,D0/A0
00:00010344 4E75            	   330: 	rts
                            	   331: 
                            	   332: 
                            	   333: init_vector_table
00:00010346 21FC000100E8000C	   334: 	move.l	#exc_addr_error,VEC_ADDR_ERROR.w
00:0001034E 21FC000100EC0010	   335: 	move.l	#exc_illegal_instr,VEC_ILLEGAL_INSTR.w
00:00010356 21FC000100F40020	   336: 	move.l	#exc_privilege_violation,VEC_PRIVILEGE_VIOLATION.w
00:0001035E 21FC000100FC0060	   337: 	move.l	#exc_spurious_interrupt,VEC_SPURIOUS_INTERRUPT.w
00:00010366 21FC000100FE0064	   338: 	move.l	#exc_lvl1_irq_auto,VEC_LVL1_IRQ_AUTO.w
00:0001036E 21FC000101000068	   339: 	move.l	#exc_lvl2_irq_auto,VEC_LVL2_IRQ_AUTO.w
00:00010376 21FC000102380070	   340: 	move.l	#exc_lvl4_irq_auto,VEC_LVL4_IRQ_AUTO.w
00:0001037E 21FC000102600078	   341: 	move.l	#exc_lvl6_irq_auto,VEC_LVL6_IRQ_AUTO.w
00:00010386 21FC000102D800BC	   342: 	move.l	#exc_trap15_handler,VEC_TRAP15.w
00:0001038E 21FC000102FC0100	   343: 	move.l	#timer_default_handler,VEC_TIMER0.w
00:00010396 21FC000102FC0104	   344: 	move.l	#timer_default_handler,VEC_TIMER1.w
00:0001039E 21FC000102FC0108	   345: 	move.l	#timer_default_handler,VEC_TIMER2.w
00:000103A6 21FC000102FC010C	   346: 	move.l	#timer_default_handler,VEC_TIMER3.w
00:000103AE 21FC000102FC0110	   347: 	move.l	#timer_default_handler,VEC_TIMER4.w
00:000103B6 21FC000102FC0114	   348: 	move.l	#timer_default_handler,VEC_TIMER5.w
00:000103BE 21FC000102FC0118	   349: 	move.l	#timer_default_handler,VEC_TIMER6.w
00:000103C6 21FC000102FC011C	   350: 	move.l	#timer_default_handler,VEC_TIMER7.w
00:000103CE 4E75            	   351: 	rts
                            	   352: 
                            	   353: 
                            	   354: vdc_init_layer0
00:000103D0 1F380406        	   355: 	move.b	VDC_CURRENT_LAYER.w,-(SP)
00:000103D4 42380406        	   356: 	clr.b	VDC_CURRENT_LAYER.w		; make layer 0 current
00:000103D8 11FC000D0414    	   357: 	move.b	#%1101,VDC_LAYER_FLAGS0.w	;
00:000103DE 11DF0406        	   358: 	move.b	(SP)+,VDC_CURRENT_LAYER.w
00:000103E2 4E75            	   359: 	rts
                            	   360: 
                            	   361: 
                            	   362: vdc_copy_rom_font
00:000103E4 1F380482        	   363: 	move.b	CORE_ROMS.w,-(SP)
                            	   364: 
00:000103E8 003800020482    	   365: 	or.b	#%00000010,CORE_ROMS.w			; make rom font visible to cpu
00:000103EE 207C00001000    	   366: 	movea.l	#VDC_TILESET_ADDRESS,A0
00:000103F4 227C00002000    	   367: 	movea.l	#VDC_TILESET_ADDRESS+$1000,A1
                            	   368: 
00:000103FA 20D0            	   369: .1	move.l	(A0),(A0)+				; copy rom font to underlying ram
00:000103FC B0C9            	   370: 	cmpa	A1,A0
00:000103FE 6600FFFA        	   371: 	bne	.1
                            	   372: 
00:00010402 11DF0482        	   373: 	move.b	(SP)+,CORE_ROMS.w
00:00010406 4E75            	   374: 	rts
                            	   375: 
                            	   376: 
                            	   377: vdc_copy_logo_tiles
00:00010408 207C00010628    	   378: 	movea.l	#logo_tiles,A0
00:0001040E 327C11C0        	   379: 	movea.w	#$11c0,A1		; start at tile $1c
                            	   380: 
00:00010412 12D8            	   381: .1	move.b	(A0)+,(A1)+
00:00010414 B1FC00010668    	   382: 	cmpa.l	#logo_tiles+64,A0	; 64 bytes = 4 tiles, 16 bytes/tile
00:0001041A 6600FFF6        	   383: 	bne	.1
                            	   384: 
00:0001041E 4E75            	   385: 	rts
                            	   386: 
                            	   387: 
                            	   388: ; setup sprites 0 - 7 (position, flags, index)
                            	   389: vdc_init_logo
00:00010420 207C000105F0    	   390: 	movea.l	#logo_data,A0
00:00010426 4200            	   391: 	clr.b	D0
                            	   392: 
00:00010428 13C000000407    	   393: .1	move.b	D0,VDC_CURRENT_SPRITE
00:0001042E 227C00000420    	   394: 	movea.l	#VDC_SPRITE_X_MSB,A1
                            	   395: 
00:00010434 12D8            	   396: .2	move.b	(A0)+,(A1)+
00:00010436 B3FC00000427    	   397: 	cmpa.l	#VDC_SPRITE_X_MSB+7,A1
00:0001043C 6600FFF6        	   398: 	bne	.2
00:00010440 5240            	   399: 	addq	#1,D0
00:00010442 B1FC00010628    	   400: 	cmpa.l	#logo_data+56,A0	; 8 * 7 bytes = 56 bytes
00:00010448 6600FFDE        	   401: 	bne	.1
                            	   402: 
00:0001044C 4E75            	   403: 	rts
                            	   404: 
                            	   405: 
                            	   406: vdc_disable_logo
                            	   407: 	; stop interrupt routine
                            	   408: 	; make sprites 0-7 hidden, but leave other data as it is
                            	   409: 	; <OR> restore original chars?
00:0001044E 4E75            	   410: 	rts
                            	   411: 
                            	   412: 
                            	   413: terminal_init
00:00010450 33FC400000006006	   414: 	move.w	#VDC_LAYER0_TILES,terminal_chars
00:00010458 33FC200000006008	   415: 	move.w	#VDC_LAYER0_COLORS,terminal_colors
00:00010460 13FC000200006004	   416: 	move.b	#$02,cursor_color
00:00010468 4E75            	   417: 	rts
                            	   418: 
                            	   419: 
                            	   420: terminal_clear
00:0001046A 303C0800        	   421: 	move.w	#(TERMINAL_HPITCH*TERMINAL_VPITCH),D0
00:0001046E 12386004        	   422: 	move.b	cursor_color.w,D1
00:00010472 307900006006    	   423: 	movea.w	terminal_chars,A0
00:00010478 327900006008    	   424: 	movea.w	terminal_colors,A1
                            	   425: 
00:0001047E 10FC0020        	   426: .1	move.b	#' ',(A0)+
00:00010482 12C1            	   427: 	move.b	D1,(A1)+
00:00010484 5340            	   428: 	subq.w	#1,D0
00:00010486 6600FFF6        	   429: 	bne	.1
                            	   430: 
00:0001048A 427900006002    	   431: 	clr.w	cursor_pos
00:00010490 4E75            	   432: 	rts
                            	   433: 
                            	   434: terminal_putchar
00:00010492 307900006006    	   435: 	movea.w	terminal_chars,A0
00:00010498 327900006008    	   436: 	movea.w	terminal_colors,A1
00:0001049E 303900006002    	   437: 	move.w	cursor_pos,D0
                            	   438: 
00:000104A4 0C2F000A0004    	   439: 	cmp.b	#$0a,(4,SP)		; check for newline
00:000104AA 6700002A        	   440: 	beq	.1
00:000104AE 0C2F000D0004    	   441: 	cmp.b	#$0d,(4,SP)		; check for carriage return
00:000104B4 67000024        	   442: 	beq	.2
                            	   443: 
00:000104B8 11AF00040000    	   444: 	move.b	(4,SP),(A0,D0)		; print char
00:000104BE 13B9000060040000	   445: 	move.b	cursor_color,(A1,D0)	; set color
                            	   446: 
00:000104C6 5240            	   447: 	addq.w	#1,D0			; move cursor 1 step
00:000104C8 3200            	   448: 	move.w	D0,D1
00:000104CA 0241003F        	   449: 	andi.w	#%111111,D1
00:000104CE B27C0028        	   450: 	cmp.w	#TERMINAL_WIDTH,D1	; are we at pos 40 or higher?
00:000104D2 65000024        	   451: 	blo	.3			; no
                            	   452: 
00:000104D6 06400040        	   453: .1	addi.w	#TERMINAL_HPITCH,D0	; yes, move cursor one line down
00:000104DA 0240FFC0        	   454: .2	andi.w	#%1111111111000000,D0	; cursor to beginning of line (carriage return)
                            	   455: 
00:000104DE B07C0580        	   456: 	cmp.w	#(TERMINAL_HPITCH*TERMINAL_HEIGHT),D0	; check for cursor out of screen
00:000104E2 65000014        	   457: 	blo	.3			; no
                            	   458: 
00:000104E6 04400040        	   459: 	subi.w	#TERMINAL_HPITCH,D0	; move cursor one line up
00:000104EA 33C000006002    	   460: 	move.w	D0,cursor_pos
00:000104F0 4EB90001055A    	   461: 	jsr	terminal_add_bottom_row
00:000104F6 4E75            	   462: 	rts
                            	   463: 
00:000104F8 33C000006002    	   464: .3	move.w	D0,cursor_pos
00:000104FE 4E75            	   465: 	rts
                            	   466: 
                            	   467: 
                            	   468: terminal_putstring
00:00010500 206F0004        	   469: 	movea.l	(4,SP),A0
00:00010504 1018            	   470: .1	move.b	(A0)+,D0
00:00010506 67000012        	   471: 	beq	.2
00:0001050A 2F08            	   472: 	move.l	A0,-(SP)
00:0001050C 1F00            	   473: 	move.b	D0,-(SP)
00:0001050E 6100FF82        	   474: 	bsr	terminal_putchar
00:00010512 548F            	   475: 	addq.l	#2,SP
00:00010514 205F            	   476: 	movea.l	(SP)+,A0
00:00010516 6000FFEC        	   477: 	bra	.1
00:0001051A 4E75            	   478: .2	rts
                            	   479: 
                            	   480: terminal_put_hex_number
00:0001051C 102F0004        	   481: 	move.b	(4,SP),D0	; D0 contains no of digits to print
00:00010520 67000036        	   482: 	beq	.2		; if this is 0, end this function
                            	   483: 
00:00010524 5300            	   484: 	subq.b	#1,D0		; reduce number of digits to print by 1
00:00010526 67000014        	   485: 	beq	.1		; if this is 0 (now), only one digit to print
                            	   486: 
00:0001052A 222F0006        	   487: 	move.l	(6,SP),D1	; D1 contains the number to be printed
                            	   488: 
00:0001052E E889            	   489: 	lsr.l	#4,D1
00:00010530 2F01            	   490: 	move.l	D1,-(SP)
00:00010532 1F00            	   491: 	move.b	D0,-(SP)
00:00010534 4EB90001051C    	   492: 	jsr	terminal_put_hex_number
00:0001053A 5C8F            	   493: 	addq.l	#6,SP
                            	   494: 
00:0001053C 202F0006        	   495: .1	move.l	(6,SP),D0
00:00010540 02800000000F    	   496: 	andi.l	#$f,D0
00:00010546 41F900010668    	   497: 	lea	hex_values,A0
00:0001054C 1F300000        	   498: 	move.b	(A0,D0),-(SP)
00:00010550 4EB900010492    	   499: 	jsr	terminal_putchar
00:00010556 548F            	   500: 	addq.l	#2,SP
                            	   501: 
00:00010558 4E75            	   502: .2	rts
                            	   503: 
                            	   504: terminal_add_bottom_row
00:0001055A 48E70030        	   505: 	movem.l	A2-A3,-(SP)
                            	   506: 
00:0001055E 307900006006    	   507: 	movea.w	terminal_chars,A0
00:00010564 43E80040        	   508: 	lea	(TERMINAL_HPITCH,A0),A1
00:00010568 347900006008    	   509: 	movea.w	terminal_colors,A2
00:0001056E 47EA0040        	   510: 	lea	(TERMINAL_HPITCH,A2),A3
                            	   511: 
00:00010572 303C0580        	   512: 	move.w	#(TERMINAL_HPITCH*TERMINAL_HEIGHT),D0	; use terminal size, then lowest row is filled properly
00:00010576 E448            	   513: 	lsr.w	#2,D0			; divide by 4
00:00010578 20D9            	   514: .1	move.l	(A1)+,(A0)+		; do 4 bytes at once
00:0001057A 24DB            	   515: 	move.l	(A3)+,(A2)+		; do 4 bytes at once
00:0001057C 5340            	   516: 	subq.w	#1,D0
00:0001057E 6600FFF8        	   517: 	bne	.1
                            	   518: 
00:00010582 4CDF0C00        	   519: 	movem.l	(SP)+,A2-A3
00:00010586 4E75            	   520: 	rts
                            	   521: 
                            	   522: ; see: https://www.stix.id.au/wiki/Fast_8-bit_pseudorandom_number_generator
                            	   523: rnd_impl
00:00010588 52386015        	   524: 	addq.b	#1,rndx.w
00:0001058C 10386012        	   525: 	move.b	rnda.w,D0
00:00010590 B1386014        	   526: 	eor.b	D0,rndc.w
00:00010594 B1386015        	   527: 	eor.b	D0,rndx.w
00:00010598 11C06012        	   528: 	move.b	D0,rnda.w
00:0001059C D0386013        	   529: 	add.b	rndb.w,D0
00:000105A0 11C06013        	   530: 	move.b	D0,rndb.w
00:000105A4 E208            	   531: 	lsr.b	D0
00:000105A6 4E75            	   532: 	rts
                            	   533: 
                            	   534: 
00:000105A8 0A              	   535: file_error	dc.b	$0a,"error: not a valid binary",0
00:000105A9 6572726F723A206E
00:000105B1 6F7420612076616C
00:000105B9 69642062696E6172
00:000105C1 79
00:000105C2 00
00:000105C3 0A              	   536: file_loading1	dc.b	$0a,"  size    from     to",0
00:000105C4 202073697A652020
00:000105CC 202066726F6D2020
00:000105D4 202020746F
00:000105D9 00
00:000105DA 0A              	   537: file_loading2	dc.b	$0a,"$",0
00:000105DB 24
00:000105DC 00
00:000105DD 2024            	   538: file_loading3	dc.b	" $",0
00:000105DF 00
00:000105E0 0A              	   539: file_loading4	dc.b	$0a,$0a," jumping to $",0
00:000105E1 0A
00:000105E2 206A756D70696E67
00:000105EA 20746F2024
00:000105EF 00
                            	   540: 
                            	   541: 	align	2
                            	   542: logo_data
00:000105F0 00              	   543: 	dc.b	0,152,0,74,%111,0,$1c	; icon top left
00:000105F1 98
00:000105F2 00
00:000105F3 4A
00:000105F4 07
00:000105F5 00
00:000105F6 1C
00:000105F7 00              	   544: 	dc.b	0,160,0,74,%111,0,$1d	; icon top right
00:000105F8 A0
00:000105F9 00
00:000105FA 4A
00:000105FB 07
00:000105FC 00
00:000105FD 1D
00:000105FE 00              	   545: 	dc.b	0,152,0,82,%111,0,$1e	; icon bottom left
00:000105FF 98
00:00010600 00
00:00010601 52
00:00010602 07
00:00010603 00
00:00010604 1E
00:00010605 00              	   546: 	dc.b	0,160,0,82,%111,0,$1f	; icon bottom right
00:00010606 A0
00:00010607 00
00:00010608 52
00:00010609 07
00:0001060A 00
00:0001060B 1F
00:0001060C 00              	   547: 	dc.b	0,147,0,90,%111,0,$6c	; l
00:0001060D 93
00:0001060E 00
00:0001060F 5A
00:00010610 07
00:00010611 00
00:00010612 6C
00:00010613 00              	   548: 	dc.b	0,152,0,90,%111,0,$69	; i
00:00010614 98
00:00010615 00
00:00010616 5A
00:00010617 07
00:00010618 00
00:00010619 69
00:0001061A 00              	   549: 	dc.b	0,158,0,90,%111,0,$6d	; m
00:0001061B 9E
00:0001061C 00
00:0001061D 5A
00:0001061E 07
00:0001061F 00
00:00010620 6D
00:00010621 00              	   550: 	dc.b	0,166,0,90,%111,0,$65	; e
00:00010622 A6
00:00010623 00
00:00010624 5A
00:00010625 07
00:00010626 00
00:00010627 65
                            	   551: 
                            	   552: 
                            	   553: logo_tiles
00:00010628 00              	   554: 	dc.b	%00000000,%00000000	; tile 1 (icon upper left)
00:00010629 00
00:0001062A 01              	   555: 	dc.b	%00000001,%00000000
00:0001062B 00
00:0001062C 07              	   556: 	dc.b	%00000111,%10000000
00:0001062D 80
00:0001062E 07              	   557: 	dc.b	%00000111,%10100000
00:0001062F A0
00:00010630 1E              	   558: 	dc.b	%00011110,%11111000
00:00010631 F8
00:00010632 1E              	   559: 	dc.b	%00011110,%10101111
00:00010633 AF
00:00010634 1E              	   560: 	dc.b	%00011110,%10101010
00:00010635 AA
00:00010636 1E              	   561: 	dc.b	%00011110,%10101111
00:00010637 AF
                            	   562: 
00:00010638 00              	   563: 	dc.b	%00000000,%00000000	; tile 2 (icon upper right)
00:00010639 00
00:0001063A 00              	   564: 	dc.b	%00000000,%00000000
00:0001063B 00
00:0001063C 00              	   565: 	dc.b	%00000000,%00000000
00:0001063D 00
00:0001063E 00              	   566: 	dc.b	%00000000,%00000000
00:0001063F 00
00:00010640 00              	   567: 	dc.b	%00000000,%00000000
00:00010641 00
00:00010642 00              	   568: 	dc.b	%00000000,%00000000
00:00010643 00
00:00010644 C0              	   569: 	dc.b	%11000000,%00000000
00:00010645 00
00:00010646 B0              	   570: 	dc.b	%10110000,%00000000
00:00010647 00
                            	   571: 
00:00010648 1E              	   572: 	dc.b	%00011110,%11111010	; tile 3 (icon bottom left)
00:00010649 FA
00:0001064A 07              	   573: 	dc.b	%00000111,%10101010
00:0001064B AA
00:0001064C 07              	   574: 	dc.b	%00000111,%10101011
00:0001064D AB
00:0001064E 01              	   575: 	dc.b	%00000001,%11101011
00:0001064F EB
00:00010650 00              	   576: 	dc.b	%00000000,%01111110
00:00010651 7E
00:00010652 00              	   577: 	dc.b	%00000000,%00010111
00:00010653 17
00:00010654 00              	   578: 	dc.b	%00000000,%00000001
00:00010655 01
00:00010656 00              	   579: 	dc.b	%00000000,%00000000
00:00010657 00
                            	   580: 
00:00010658 EC              	   581: 	dc.b	%11101100,%00000000	; tile 4 (icon bottom right)
00:00010659 00
00:0001065A EE              	   582: 	dc.b	%11101110,%00000000
00:0001065B 00
00:0001065C AB              	   583: 	dc.b	%10101011,%10000000
00:0001065D 80
00:0001065E AB              	   584: 	dc.b	%10101011,%10100000
00:0001065F A0
00:00010660 AA              	   585: 	dc.b	%10101010,%11110100
00:00010661 F4
00:00010662 FF              	   586: 	dc.b	%11111111,%01010000
00:00010663 50
00:00010664 55              	   587: 	dc.b	%01010101,%00000000
00:00010665 00
00:00010666 00              	   588: 	dc.b	%00000000,%00000000
00:00010667 00
                            	   589: 
                            	   590: hex_values
00:00010668 3031323334353637	   591: 	dc.b	"0123456789abcdef"
00:00010670 3839616263646566
                            	   592: 


Symbols by name:
CORE_CR                          E:00000481
CORE_FILE_DATA                   E:00000484
CORE_INPUT0                      E:00000488
CORE_ROMS                        E:00000482
CORE_SR                          E:00000480
MIX_SID0_LEFT                    E:00000580
SID0_F                           E:00000500
SID0_V                           E:0000051B
SID1_V                           E:0000053B
TERMINAL_HEIGHT                  E:00000016
TERMINAL_HPITCH                  E:00000040
TERMINAL_VPITCH                  E:00000020
TERMINAL_WIDTH                   E:00000028
TIMER_SR                         E:00000440
VDC_BG_COLOR                     E:00000404
VDC_CR                           E:00000401
VDC_CURRENT_LAYER                E:00000406
VDC_CURRENT_SPRITE               E:00000407
VDC_IRQ_SCANLINE_LSB             E:0000040F
VDC_LAYER0_COLORS                E:00002000
VDC_LAYER0_TILES                 E:00004000
VDC_LAYER_FLAGS0                 E:00000414
VDC_SPRITE_FLAGS0                E:00000424
VDC_SPRITE_X_LSB                 E:00000421
VDC_SPRITE_X_MSB                 E:00000420
VDC_SPRITE_Y_LSB                 E:00000423
VDC_SR                           E:00000400
VDC_TILESET_ADDRESS              E:00001000
VEC_ADDR_ERROR                   E:0000000C
VEC_ILLEGAL_INSTR                E:00000010
VEC_LVL1_IRQ_AUTO                E:00000064
VEC_LVL2_IRQ_AUTO                E:00000068
VEC_LVL4_IRQ_AUTO                E:00000070
VEC_LVL6_IRQ_AUTO                E:00000078
VEC_PRIVILEGE_VIOLATION          E:00000020
VEC_SPURIOUS_INTERRUPT           E:00000060
VEC_TIMER0                       E:00000100
VEC_TIMER1                       E:00000104
VEC_TIMER2                       E:00000108
VEC_TIMER3                       E:0000010C
VEC_TIMER4                       E:00000110
VEC_TIMER5                       E:00000114
VEC_TIMER6                       E:00000118
VEC_TIMER7                       E:0000011C
VEC_TRAP15                       E:000000BC
_jump                            A:00010090
_start                           A:00010020
binary_ready                     E:00006001
chunk_length                     E:0000600A
cursor_color                     E:00006004
cursor_pos                       E:00006002
exc_addr_error                   A:000100E8
exc_illegal_instr                A:000100EC
exc_lvl1_irq_auto                A:000100FE
exc_lvl2_irq_auto                A:00010100
exc_lvl4_irq_auto                A:00010238
exc_lvl6_irq_auto                A:00010260
exc_privilege_violation          A:000100F4
exc_spurious_interrupt           A:000100FC
exc_trap15_handler               A:000102D8
exec_address                     E:0000600E
file_error                       A:000105A8
file_loading1                    A:000105C3
file_loading2                    A:000105DA
file_loading3                    A:000105DD
file_loading4                    A:000105E0
hex_values                       A:00010668
init_vector_table                A:00010346
logo_animation                   E:00006000
logo_data                        A:000105F0
logo_tiles                       A:00010628
loop                             A:00010088
rnd_impl                         A:00010588
rnda                             E:00006012
rndb                             E:00006013
rndc                             E:00006014
rndx                             E:00006015
sound_reset                      A:00010304
terminal_add_bottom_row          A:0001055A
terminal_chars                   E:00006006
terminal_clear                   A:0001046A
terminal_colors                  E:00006008
terminal_init                    A:00010450
terminal_put_hex_number          A:0001051C
terminal_putchar                 A:00010492
terminal_putstring               A:00010500
timer_default_handler            A:000102FC
vdc_copy_logo_tiles              A:00010408
vdc_copy_rom_font                A:000103E4
vdc_disable_logo                 A:0001044E
vdc_init_layer0                  A:000103D0
vdc_init_logo                    A:00010420

Symbols by value:
0000000C VEC_ADDR_ERROR
00000010 VEC_ILLEGAL_INSTR
00000016 TERMINAL_HEIGHT
00000020 VEC_PRIVILEGE_VIOLATION
00000020 TERMINAL_VPITCH
00000028 TERMINAL_WIDTH
00000040 TERMINAL_HPITCH
00000060 VEC_SPURIOUS_INTERRUPT
00000064 VEC_LVL1_IRQ_AUTO
00000068 VEC_LVL2_IRQ_AUTO
00000070 VEC_LVL4_IRQ_AUTO
00000078 VEC_LVL6_IRQ_AUTO
000000BC VEC_TRAP15
00000100 VEC_TIMER0
00000104 VEC_TIMER1
00000108 VEC_TIMER2
0000010C VEC_TIMER3
00000110 VEC_TIMER4
00000114 VEC_TIMER5
00000118 VEC_TIMER6
0000011C VEC_TIMER7
00000400 VDC_SR
00000401 VDC_CR
00000404 VDC_BG_COLOR
00000406 VDC_CURRENT_LAYER
00000407 VDC_CURRENT_SPRITE
0000040F VDC_IRQ_SCANLINE_LSB
00000414 VDC_LAYER_FLAGS0
00000420 VDC_SPRITE_X_MSB
00000421 VDC_SPRITE_X_LSB
00000423 VDC_SPRITE_Y_LSB
00000424 VDC_SPRITE_FLAGS0
00000440 TIMER_SR
00000480 CORE_SR
00000481 CORE_CR
00000482 CORE_ROMS
00000484 CORE_FILE_DATA
00000488 CORE_INPUT0
00000500 SID0_F
0000051B SID0_V
0000053B SID1_V
00000580 MIX_SID0_LEFT
00001000 VDC_TILESET_ADDRESS
00002000 VDC_LAYER0_COLORS
00004000 VDC_LAYER0_TILES
00006000 logo_animation
00006001 binary_ready
00006002 cursor_pos
00006004 cursor_color
00006006 terminal_chars
00006008 terminal_colors
0000600A chunk_length
0000600E exec_address
00006012 rnda
00006013 rndb
00006014 rndc
00006015 rndx
00010020 _start
00010088 loop
00010090 _jump
000100E8 exc_addr_error
000100EC exc_illegal_instr
000100F4 exc_privilege_violation
000100FC exc_spurious_interrupt
000100FE exc_lvl1_irq_auto
00010100 exc_lvl2_irq_auto
00010238 exc_lvl4_irq_auto
00010260 exc_lvl6_irq_auto
000102D8 exc_trap15_handler
000102FC timer_default_handler
00010304 sound_reset
00010346 init_vector_table
000103D0 vdc_init_layer0
000103E4 vdc_copy_rom_font
00010408 vdc_copy_logo_tiles
00010420 vdc_init_logo
0001044E vdc_disable_logo
00010450 terminal_init
0001046A terminal_clear
00010492 terminal_putchar
00010500 terminal_putstring
0001051C terminal_put_hex_number
0001055A terminal_add_bottom_row
00010588 rnd_impl
000105A8 file_error
000105C3 file_loading1
000105DA file_loading2
000105DD file_loading3
000105E0 file_loading4
000105F0 logo_data
00010628 logo_tiles
00010668 hex_values
