Sections:
00: "code" (0-8D0)


Source: "rom.s"
                            	     1: ;-----------------------------------------------------------------------
                            	     2: ; rom.s (assembles with vasmm68k_mot)
                            	     3: ; lime
                            	     4: ;
                            	     5: ; Copyright © 2025-2026 elmerucr. All rights reserved.
                            	     6: ;
                            	     7: ;-----------------------------------------------------------------------
                            	     8: ; - Calling convention:
                            	     9: ;   - D0-D1/A0-A1 are scratch registers, and need to be caller saved
                            	    10: ;     when to be kept
                            	    11: ;   - Calling a trap is an exception, but otherwise works the same as
                            	    12: ;     a conventional function / routine
                            	    13: ;   - Other exceptions will save and restore all registers
                            	    14: ;
                            	    15: ; - tab size: 8
                            	    16: ;
                            	    17: ;-----------------------------------------------------------------------
                            	    18: ; rom v0.10
                            	    19: ; adjusted (again) for 320x180 resolution
                            	    20: ;
                            	    21: ; rom v0.9
                            	    22: ; adjusted for 320x176 screen resolution
                            	    23: ;
                            	    24: ;-----------------------------------------------------------------------
                            	    25: 
                            	    26: 	include	"definitions.inc"

Source: "definitions.inc"
                            	     1: ; ----------------------------------------------------------------------
                            	     2: ; definitions.i
                            	     3: ; lime
                            	     4: ;
                            	     5: ; Copyright © 2025 elmerucr. All rights reserved.
                            	     6: ; ----------------------------------------------------------------------
                            	     7: 
                            	     8: ; vectors
                            	     9: VEC_ADDR_ERROR			equ	$000c
                            	    10: VEC_ILLEGAL_INSTR		equ	$0010
                            	    11: VEC_PRIVILEGE_VIOLATION	equ	$0020
                            	    12: VEC_SPURIOUS_INTERRUPT	equ	$0060
                            	    13: VEC_LVL1_IRQ_AUTO		equ	$0064
                            	    14: VEC_LVL2_IRQ_AUTO		equ	$0068	; entry point for core
                            	    15: VEC_LVL4_IRQ_AUTO		equ	$0070	; entry point for timer
                            	    16: VEC_LVL6_IRQ_AUTO		equ	$0078	; entry point for vdc
                            	    17: VEC_LVL7_IRQ_AUTO		equ	$007c	; currently unused
                            	    18: VEC_TRAP0			equ	$0080
                            	    19: VEC_TRAP1			equ	$0084
                            	    20: VEC_TRAP2			equ	$0088
                            	    21: VEC_TRAP3			equ	$008c
                            	    22: VEC_TRAP4			equ	$0090
                            	    23: VEC_TRAP5			equ	$0094
                            	    24: VEC_TRAP6			equ	$0098
                            	    25: VEC_TRAP7			equ	$009c
                            	    26: VEC_TRAP8			equ	$00a0
                            	    27: VEC_TRAP9			equ	$00a4
                            	    28: VEC_TRAP10			equ	$00a8
                            	    29: VEC_TRAP11			equ	$00ac
                            	    30: VEC_TRAP12			equ	$00b0
                            	    31: VEC_TRAP13			equ	$00b4
                            	    32: VEC_TRAP14			equ	$00b8
                            	    33: VEC_TRAP15			equ	$00bc
                            	    34: 
                            	    35: VEC_TIMER0			equ	$0100	; $0100 onwards, user vectors
                            	    36: VEC_TIMER1			equ	$0104
                            	    37: VEC_TIMER2			equ	$0108
                            	    38: VEC_TIMER3			equ	$010c
                            	    39: VEC_TIMER4			equ	$0110
                            	    40: VEC_TIMER5			equ	$0114
                            	    41: VEC_TIMER6			equ	$0118
                            	    42: VEC_TIMER7			equ	$011c
                            	    43: 
                            	    44: ; vdc (video display controller)
                            	    45: VDC_SR				equ	$0400
                            	    46: VDC_CR				equ	$0401
                            	    47: VDC_BORDER_COLOR		equ	$0402
                            	    48: VDC_BORDER_SIZE			equ	$0403
                            	    49: VDC_BG_COLOR			equ	$0404
                            	    50: VDC_CURRENT_LAYER		equ	$0406
                            	    51: VDC_CURRENT_SPRITE		equ	$0407
                            	    52: VDC_CURRENT_SCANLINE_MSB	equ	$040c
                            	    53: VDC_CURRENT_SCANLINE_LSB	equ	$040d
                            	    54: VDC_IRQ_SCANLINE_MSB		equ	$040e
                            	    55: VDC_IRQ_SCANLINE_LSB		equ	$040f
                            	    56: 
                            	    57: VDC_LAYER_X_MSB			equ	$0410
                            	    58: VDC_LAYER_X_LSB			equ	$0411
                            	    59: VDC_LAYER_Y_MSB			equ	$0412
                            	    60: VDC_LAYER_Y_LSB			equ	$0413
                            	    61: VDC_LAYER_FLAGS0		equ	$0414
                            	    62: VDC_LAYER_FLAGS1		equ	$0415
                            	    63: VDC_LAYER_FLAGS2		equ	$0416
                            	    64: VDC_LAYER_COLOR0		equ	$0418
                            	    65: VDC_LAYER_COLOR1		equ	$0419
                            	    66: VDC_LAYER_COLOR2		equ	$041a
                            	    67: VDC_LAYER_COLOR3		equ	$041b
                            	    68: VDC_LAYER_TILES_PAGE		equ	$041c
                            	    69: VDC_LAYER_COLORS_PAGE		equ	$041d
                            	    70: VDC_LAYER_TILESET_PAGE		equ	$041e
                            	    71: 
                            	    72: VDC_SPRITE_X_MSB		equ	$0420
                            	    73: VDC_SPRITE_X_LSB		equ	$0421
                            	    74: VDC_SPRITE_Y_MSB		equ	$0422
                            	    75: VDC_SPRITE_Y_LSB		equ	$0423
                            	    76: VDC_SPRITE_FLAGS0		equ	$0424
                            	    77: VDC_SPRITE_FLAGS1		equ	$0425
                            	    78: VDC_SPRITE_FLAGS2		equ	$0426
                            	    79: VDC_SPRITE_INDEX		equ	$0427
                            	    80: VDC_SPRITE_COLOR0		equ	$0428
                            	    81: VDC_SPRITE_COLOR1		equ	$0429
                            	    82: VDC_SPRITE_COLOR2		equ	$042a
                            	    83: VDC_SPRITE_COLOR3		equ	$042b
                            	    84: VDC_SPRITE_TILESET_PAGE		equ	$042e
                            	    85: 
                            	    86: KEYBOARD_SR				equ	$0600
                            	    87: KEYBOARD_CR				equ	$0601
                            	    88: KEYBOARD_STATE			equ	$0680
                            	    89: 
                            	    90: VDC_TILESET_ADDRESS		equ	$1000
                            	    91: 
                            	    92: VDC_LAYER_TILES			equ	$2000
                            	    93: VDC_LAYER_COLORS		equ	$3000
                            	    94: 
                            	    95: ; sound devices
                            	    96: SID0_F				equ	$0500
                            	    97: SID0_PW				equ	$0502
                            	    98: SID0_V				equ	$051b
                            	    99: SID1_V				equ	$053b
                            	   100: MIX_SID0_LEFT			equ	$0580
                            	   101: MIX_SID0_RIGHT			equ	$0581
                            	   102: MIX_SID1_LEFT			equ	$0582
                            	   103: MIX_SID1_RIGHT			equ	$0583
                            	   104: MIX_ANA0_LEFT			equ	$0584
                            	   105: MIX_ANA0_RIGHT			equ	$0585
                            	   106: MIX_ANA1_LEFT			equ	$0586
                            	   107: MIX_ANA1_RIGHT			equ	$0587
                            	   108: 
                            	   109: ; timer
                            	   110: TIMER_SR			equ	$0440
                            	   111: TIMER_CR			equ	$0441
                            	   112: TIMER0_BPM			equ	$0450
                            	   113: TIMER1_BPM			equ	$0452
                            	   114: TIMER2_BPM			equ	$0454
                            	   115: TIMER3_BPM			equ	$0456
                            	   116: TIMER4_BPM			equ	$0458
                            	   117: TIMER5_BPM			equ	$045a
                            	   118: TIMER6_BPM			equ	$045c
                            	   119: TIMER7_BPM			equ	$045e
                            	   120: 
                            	   121: ; core
                            	   122: CORE_SR				equ	$0480
                            	   123: CORE_CR				equ	$0481
                            	   124: CORE_ROMS			equ	$0482
                            	   125: CORE_FILE_DATA			equ	$0484
                            	   126: CORE_INPUT0			equ	$0488
                            	   127: 
                            	   128: RAM_START			equ	$20000
                            	   129: 

Source: "rom.s"
                            	    27: 
                            	    28: ;-----------------------------------------------------------------------
                            	    29: ; constants
                            	    30: TERMINAL_HPITCH	equ	$80	; 128 tiles
                            	    31: TERMINAL_VPITCH	equ	$20	; 32 tiles
                            	    32: TERMINAL_WIDTH	equ	$50	; 80 columns visible
                            	    33: TERMINAL_HEIGHT	equ	$14	; 20 rows
                            	    34: 
                            	    35: ;-----------------------------------------------------------------------
                            	    36: 		rsset	$6000
                            	    37: 
                            	    38: logo_scr_cnt	rs.l	1
                            	    39: logo_animation	rs.b	1
                            	    40: logo_status	rs.b	1
                            	    41: cursor_pos	rs.w	1
                            	    42: cursor_color	rs.b	1
                            	    43: cursor_visible	rs.b	1
                            	    44: terminal_chars	rs.l	1
                            	    45: terminal_colors	rs.l	1
                            	    46: chunk_length	rs.l	1
                            	    47: exec_address	rs.l	1
                            	    48: rnda		rs.b	1
                            	    49: rndb		rs.b	1
                            	    50: rndc		rs.b	1
                            	    51: rndx		rs.b	1
                            	    52: 
                            	    53: ;-----------------------------------------------------------------------
                            	    54: 
                            	    55: 	section	code
                            	    56: 
                            	    57: 	org	$00010000	; rom based at $10000
                            	    58: 
00:00010000 01000000        	    59: 	dc.l	$01000000	; initial ssp at end of ram
00:00010004 00010024        	    60: 	dc.l	start		; reset vector
00:00010008 726F6D206D633638	    61: version	dc.b	"rom mc68000 0.10.20260620",0
00:00010010 30303020302E3130
00:00010018 2E32303236303632
00:00010020 30
00:00010021 00
                            	    62: 
                            	    63: 	align	2
                            	    64: 
                            	    65: start
00:00010024 207C00010000    	    66: 	move.l	#$00010000,A0			; set usp
00:0001002A 4E60            	    67: 	move.l	A0,USP
                            	    68: 
00:0001002C 203C0000F000    	    69: 	move.l	#$f000,D0			; small delay at reset
00:00010032 5380            	    70: .1	subq.l	#1,D0
00:00010034 6600FFFC        	    71: 	bne	.1
                            	    72: 
00:00010038 4EB900010426    	    73: 	jsr	init_vector_table
00:0001003E 4EB9000104B8    	    74: 	jsr	copy_fonts_from_rom
00:00010044 4EB9000104DC    	    75: 	jsr	copy_logo_tiles
00:0001004A 4EB9000104F4    	    76: 	jsr	init_logo
00:00010050 4EB9000103E4    	    77: 	jsr	sound_reset
                            	    78: 
00:00010056 23FC000020000000	    79: 	move.l	#VDC_LAYER_TILES,terminal_chars		; default location
00:0001005E 600A
00:00010060 23FC000030000000	    80: 	move.l	#VDC_LAYER_COLORS,terminal_colors	; default location
00:00010068 600E
                            	    81: 
00:0001006A 11FC00010402    	    82: 	move.b	#$01,VDC_BORDER_COLOR.w		; dark grey / black
00:00010070 11FC000A0403    	    83: 	move.b	#$0a,VDC_BORDER_SIZE.w
00:00010076 42380406        	    84: 	clr.b	VDC_CURRENT_LAYER.w		; make layer 0 current
00:0001007A 11FC000C0414    	    85: 	move.b	#%1100,VDC_LAYER_FLAGS0.w	;
00:00010080 31FCFFF60412    	    86: 	move.w	#$fff6,VDC_LAYER_Y_MSB.w	; y location
                            	    87: 
00:00010086 13FC00B700006008	    88: 	move.b	#$b7,cursor_color			; greenish
00:0001008E 13FC000100000404	    89: 	move.b	#$01,VDC_BG_COLOR			; black / dark grey
                            	    90: 
00:00010096 4EB900010522    	    91: 	jsr	terminal_clear
00:0001009C 487900010784    	    92: 	pea	logo_boot_message		; print boot message
00:000100A2 610005E8        	    93: 	bsr	terminal_putstring
00:000100A6 588F            	    94: 	addq.l	#4,SP
                            	    95: 
00:000100A8 11FC00686004    	    96: 	move.b	#$68,logo_animation.w		; init variable for letter wobble
00:000100AE 23FC001770000000	    97: 	move.l	#$177000,logo_scr_cnt		; counter init value before displaying message
00:000100B6 6000
00:000100B8 13FC00B30000040F	    98: 	move.b	#$b3,VDC_IRQ_SCANLINE_LSB	; set rasterline 179
00:000100C0 13FC000100000401	    99: 	move.b	#%00000001,VDC_CR		; enable irq's for vdc
                            	   100: 
00:000100C8 027C00FF        	   101: 	andi.w	#$00ff,SR			; jump to user mode, IPL reg = 0b000
                            	   102: 
00:000100CC 42386005        	   103: 	clr.b	logo_status.w
00:000100D0 42B90000601A    	   104: 	clr.l	rnda				; init random generator, clears all: rnda, rndb, rndc, rndx
                            	   105: 
                            	   106: logo_screen
00:000100D6 53B900006000    	   107: 	subq.l	#1,logo_scr_cnt
00:000100DC 6606            	   108: 	bne.s	.ls1				; didn't reach 0
00:000100DE 11FC000D0414    	   109: 	move.b	#%1101,$414.w			; display layer 0
                            	   110: 
00:000100E4 10380681        	   111: .ls1	move.b	(KEYBOARD_STATE+1).w,D0		; check status of esc key
00:000100E8 670E            	   112: 	beq.s	.ls2				; not pressed
00:000100EA 08000000        	   113: 	btst	#0,D0				; check bit0
00:000100EE 6608            	   114: 	bne.s	.ls2
00:000100F0 0039000200006005	   115: 	or.b	#%00000010,logo_status
00:000100F8 4A3900006005    	   116: .ls2	tst.b	logo_status
00:000100FE 67D6            	   117: 	beq.s	logo_screen			; nothing happened, go back
                            	   118: 
                            	   119: ; either [esc] or boot happened
00:00010100 423900000481    	   120: 	clr.b	CORE_CR				; stop irq's when new bin inserted or basic mode starts
00:00010106 423900000401    	   121: 	clr.b	VDC_CR				; stop VDC interrupts
                            	   122: 
00:0001010C 4200            	   123: 	clr.b	D0
00:0001010E 13C000000407    	   124: .ls3	move.b	D0,VDC_CURRENT_SPRITE		; make sprite 0-7 inactive
00:00010114 423900000424    	   125: 	clr.b	VDC_SPRITE_FLAGS0
00:0001011A 5200            	   126: 	addq.b	#1,D0
00:0001011C B03C0008        	   127: 	cmp.b	#8,D0
00:00010120 6600FFEC        	   128: 	bne	.ls3
                            	   129: 
00:00010124 42380406        	   130: 	clr.b	VDC_CURRENT_LAYER.w		; make layer 0 current and visible
00:00010128 003800010414    	   131: 	or.b	#%00000001,VDC_LAYER_FLAGS0.w
                            	   132: 
00:0001012E 13FC000B00006008	   133: 	move.b	#$0b,cursor_color
00:00010136 11FC00940404    	   134: 	move.b	#$94,VDC_BG_COLOR.w		; Atari Basic BG
00:0001013C 11FC00800601    	   135: 	move.b	#%10000000,KEYBOARD_CR.w	; purge keyboard events
00:00010142 4EB900010522    	   136: 	jsr	terminal_clear
00:00010148 4EB90001072A    	   137: 	jsr	terminal_welcome
                            	   138: 
00:0001014E 0839000000006005	   139: 	btst	#0,logo_status
00:00010156 660E            	   140: 	bne.s	boot_binary
                            	   141: 
                            	   142: screen_editor
00:00010158 12380606        	   143: 	move.b	$606.w,D1
00:0001015C 67FA            	   144: 	beq.s	screen_editor
00:0001015E 103C0001        	   145: 	move.b	#1,D0
00:00010162 4E4F            	   146: 	trap	#15
00:00010164 60F2            	   147: 	bra.s	screen_editor
                            	   148: 
                            	   149: boot_binary
00:00010166 487900010830    	   150: 	pea	file_loading4
00:0001016C 6100051E        	   151: 	bsr	terminal_putstring
00:00010170 588F            	   152: 	addq.l	#4,SP
                            	   153: 
00:00010172 2F3900006016    	   154: 	move.l	exec_address,-(SP)
00:00010178 1F3C0008        	   155: 	move.b	#8,-(SP)
00:0001017C 6100052A        	   156: 	bsr	terminal_put_hex_number
00:00010180 5C8F            	   157: 	addq.l	#6,SP
                            	   158: 
00:00010182 203C000C0000    	   159: 	move.l	#$000c0000,D0			; wait loop
00:00010188 5380            	   160: .2	subq.l	#1,D0
00:0001018A 6600FFFC        	   161: 	bne	.2
                            	   162: 
00:0001018E 61000392        	   163: 	bsr	terminal_clear
                            	   164: 
00:00010192 207900006016    	   165: 	movea.l	exec_address,A0
00:00010198 4ED0            	   166: 	jmp	(A0)
                            	   167: 
                            	   168: 
                            	   169: terminal_flip_cursor
00:0001019A 303900006006    	   170: 	move.w	cursor_pos,D0
00:000101A0 207C00002000    	   171: 	movea.l	#VDC_LAYER_TILES,A0
00:000101A6 0A3000800000    	   172: 	eori.b	#$80,(A0,D0)
00:000101AC 4E75            	   173: 	rts
                            	   174: 
                            	   175: 
                            	   176: exc_addr_error
00:000101AE 11FC00100404    	   177: 	move.b	#$10,VDC_BG_COLOR.w	; black
00:000101B4 6000FFFE        	   178: .1	bra	.1
                            	   179: 
                            	   180: 
                            	   181: exc_illegal_instr
00:000101B8 11FC00120404    	   182: 	move.b	#$12,VDC_BG_COLOR.w	; red
00:000101BE 60FE            	   183: .1	bra.s	.1
                            	   184: 
                            	   185: 
                            	   186: exc_privilege_violation
00:000101C0 11FC00150404    	   187: 	move.b	#$15,VDC_BG_COLOR.w
00:000101C6 60FE            	   188: .1	bra.s	.1
                            	   189: 
                            	   190: 
                            	   191: exc_spurious_interrupt
00:000101C8 4E73            	   192: 	rte
                            	   193: 
                            	   194: 
                            	   195: exc_lvl1_irq_auto
00:000101CA 4E73            	   196: 	rte
                            	   197: 
                            	   198: 
                            	   199: exc_lvl2_irq_auto
00:000101CC 48E7C000        	   200: 	movem.l	D0-D1,-(SP)
00:000101D0 10380480        	   201: 	move.b	CORE_SR.w,D0			; did core cause an irq?
00:000101D4 67000124        	   202: 	beq	.3				; no
00:000101D8 11C00480        	   203: 	move.b	D0,CORE_SR.w			; yes, acknowledge
                            	   204: 
00:000101DC 10380484        	   205: 	move.b	CORE_FILE_DATA.w,D0		; get first byte
00:000101E0 B03C0001        	   206: 	cmp.b	#1,D0
00:000101E4 66000108        	   207: 	bne	.2				; it's not a valid file
                            	   208: 
00:000101E8 487900010814    	   209: 	pea	file_loading1
00:000101EE 6100049C        	   210: 	bsr	terminal_putstring
00:000101F2 588F            	   211: 	addq.l	#4,SP
                            	   212: 
00:000101F4 48790001082A    	   213: .start	pea	file_loading2
00:000101FA 61000490        	   214: 	bsr	terminal_putstring
00:000101FE 588F            	   215: 	addq.l	#4,SP
                            	   216: 
00:00010200 4280            	   217: 	clr.l	D0
00:00010202 10380484        	   218: 	move.b	CORE_FILE_DATA.w,D0
00:00010206 660000E6        	   219: 	bne	.2					; should be zero this first byte
00:0001020A 10380484        	   220: 	move.b	CORE_FILE_DATA.w,D0
00:0001020E E188            	   221: 	lsl.l	#8,D0
00:00010210 10380484        	   222: 	move.b	CORE_FILE_DATA.w,D0
00:00010214 E188            	   223: 	lsl.l	#8,D0
00:00010216 10380484        	   224: 	move.b	CORE_FILE_DATA.w,D0
                            	   225: 
00:0001021A 23C000006012    	   226: 	move.l	D0,chunk_length
                            	   227: 
00:00010220 2F00            	   228: 	move.l	D0,-(SP)
00:00010222 1F3C0006        	   229: 	move.b	#6,-(SP)
00:00010226 61000480        	   230: 	bsr	terminal_put_hex_number
00:0001022A 5C8F            	   231: 	addq.l	#6,SP
                            	   232: 
00:0001022C 48790001082D    	   233: 	pea	file_loading3
00:00010232 61000458        	   234: 	bsr	terminal_putstring
00:00010236 588F            	   235: 	addq.l	#4,SP
                            	   236: 
00:00010238 4281            	   237: 	clr.l	D1
00:0001023A 12380484        	   238: 	move.b	CORE_FILE_DATA.w,D1
00:0001023E 660000AE        	   239: 	bne	.2
00:00010242 12380484        	   240: 	move.b	CORE_FILE_DATA.w,D1
00:00010246 E189            	   241: 	lsl.l	#8,D1
00:00010248 12380484        	   242: 	move.b	CORE_FILE_DATA.w,D1
00:0001024C E189            	   243: 	lsl.l	#8,D1
00:0001024E 12380484        	   244: 	move.b	CORE_FILE_DATA.w,D1
                            	   245: 
00:00010252 2F01            	   246: 	move.l	D1,-(SP)
00:00010254 1F3C0006        	   247: 	move.b	#6,-(SP)
00:00010258 6100044E        	   248: 	bsr	terminal_put_hex_number
00:0001025C 548F            	   249: 	addq.l	#2,SP
00:0001025E 205F            	   250: 	movea.l	(SP)+,A0
                            	   251: 
00:00010260 203900006012    	   252: 	move.l	chunk_length,D0
                            	   253: 
00:00010266 10F80484        	   254: .1	move.b	CORE_FILE_DATA.w,(A0)+	; get data and store in memory
00:0001026A 5340            	   255: 	subq	#1,D0
00:0001026C 6600FFF8        	   256: 	bne	.1
                            	   257: 
00:00010270 2F08            	   258: 	move.l	A0,-(SP)
00:00010272 48790001082D    	   259: 	pea	file_loading3
00:00010278 61000412        	   260: 	bsr	terminal_putstring
00:0001027C 588F            	   261: 	addq.l	#4,SP
00:0001027E 205F            	   262: 	movea.l	(SP)+,A0
                            	   263: 
00:00010280 5348            	   264: 	subq.w	#1,A0			; now A0 contains the last address in which a byte was loaded
00:00010282 2F08            	   265: 	move.l	A0,-(SP)
00:00010284 1F3C0006        	   266: 	move.b	#6,-(SP)
00:00010288 6100041E        	   267: 	bsr	terminal_put_hex_number
00:0001028C 5C8F            	   268: 	addq.l	#6,SP
                            	   269: 
00:0001028E 10380484        	   270: 	move.b	CORE_FILE_DATA.w,D0	; look for next chunk
00:00010292 B03C0001        	   271: 	cmp.b	#1,D0
00:00010296 6700FF5C        	   272: 	beq	.start			; yes, another data chunk
00:0001029A B03C00FE        	   273: 	cmp.b	#$fe,D0			; no, is this a postamble?
00:0001029E 6600004E        	   274: 	bne	.2			; no = error
                            	   275: 
00:000102A2 10380484        	   276: 	move.b	CORE_FILE_DATA.w,D0	; yes it's the postamble
00:000102A6 66000046        	   277: 	bne	.2			; should be zero
00:000102AA 10380484        	   278: 	move.b	CORE_FILE_DATA.w,D0
00:000102AE 6600003E        	   279: 	bne	.2			; should be zero
00:000102B2 10380484        	   280: 	move.b	CORE_FILE_DATA.w,D0
00:000102B6 66000036        	   281: 	bne	.2			; should be zero
00:000102BA 10380484        	   282: 	move.b	CORE_FILE_DATA.w,D0
00:000102BE 6600002E        	   283: 	bne	.2			; should be zero
                            	   284: 
00:000102C2 4280            	   285: 	clr.l	D0
00:000102C4 10380484        	   286: 	move.b	CORE_FILE_DATA.w,D0
00:000102C8 66000024        	   287: 	bne	.2			; should be zero
00:000102CC 10380484        	   288: 	move.b	CORE_FILE_DATA.w,D0
00:000102D0 E188            	   289: 	lsl.l	#8,D0
00:000102D2 10380484        	   290: 	move.b	CORE_FILE_DATA.w,D0
00:000102D6 E188            	   291: 	lsl.l	#8,D0
00:000102D8 10380484        	   292: 	move.b	CORE_FILE_DATA.w,D0	; D0 contains starting address
00:000102DC 23C000006016    	   293: 	move.l	D0,exec_address
                            	   294: 
00:000102E2 0039000100006005	   295: 	or.b	#%00000001,logo_status
00:000102EA 6000000E        	   296: 	bra	.3
                            	   297: 
00:000102EE 4879000107F9    	   298: .2	pea	file_error
00:000102F4 61000396        	   299: 	bsr	terminal_putstring
00:000102F8 588F            	   300: 	addq.l	#4,SP
00:000102FA 4CDF0003        	   301: .3	movem.l	(SP)+,D0-D1
00:000102FE 4E73            	   302: 	rte
                            	   303: 
                            	   304: 
                            	   305: exc_lvl4_irq_auto		; coupled to timer
00:00010300 48E7C080        	   306: 	movem.l	D0-D1/A0,-(SP)
00:00010304 207C00000100    	   307: 	movea.l	#VEC_TIMER0,A0
00:0001030A 103C0001        	   308: 	move.b	#%00000001,D0	; D0 contains the bit to be tested
                            	   309: 
00:0001030E 1200            	   310: .1	move.b	D0,D1		; copy D0 to D1
00:00010310 C2380440        	   311: 	and.b	TIMER_SR.w,D1
00:00010314 6600000C        	   312: 	bne	.2		; it was this timer
00:00010318 5848            	   313: 	addq	#4,A0
00:0001031A E300            	   314: 	asl.b	D0
00:0001031C 6700000C        	   315: 	beq	.3
00:00010320 60EC            	   316: 	bra.s	.1
                            	   317: 
                            	   318: 	; code for dealing with this timer
00:00010322 11C00440        	   319: .2	move.b	D0,TIMER_SR.w	; confirm this irq
00:00010326 2050            	   320: 	movea.l	(A0),A0
00:00010328 4E90            	   321: 	jsr	(A0)
                            	   322: 
00:0001032A 4CDF0103        	   323: .3	movem.l	(SP)+,D0-D1/A0
00:0001032E 4E73            	   324: 	rte
                            	   325: 
                            	   326: 
                            	   327: exc_lvl6_irq_auto				; coupled to vdc
00:00010330 1F3900000407    	   328: 	move.b	VDC_CURRENT_SPRITE,-(SP)
00:00010336 48E7C000        	   329: 	movem.l	D0-D1,-(SP)
                            	   330: 
00:0001033A 10380400        	   331: 	move.b	VDC_SR.w,D0
00:0001033E 6700005E        	   332: 	beq	.end
00:00010342 11C00400        	   333: 	move.b	D0,VDC_SR.w			; acknowledge irq
                            	   334: 
00:00010346 103900006004    	   335: 	move.b	logo_animation,D0
00:0001034C 5200            	   336: 	addq.b	#$1,D0
00:0001034E B03C00B8        	   337: 	cmp.b	#$b8,D0				; did we reach x position $b8?
00:00010352 6600000E        	   338: 	bne	.1				; no jump to .1
00:00010356 13FC000100000481	   339: 	move.b	#%00000001,CORE_CR		; yes, activate irq's for binary insert (each time we reach $b8)
                            	   340: 						; this makes sure letters wobble at least 1 time before binary
                            	   341: 						; load process starts
00:0001035E 103C0048        	   342: 	move.b	#$48,D0				; reset x position to $48
                            	   343: 
00:00010362 13C000006004    	   344: .1	move.b	D0,logo_animation
                            	   345: 
00:00010368 123C0004        	   346: 	move.b	#4,D1				; start with sprite 4 (letter 'l')
00:0001036C 13C100000407    	   347: .2	move.b	D1,VDC_CURRENT_SPRITE
00:00010372 13FC005C00000423	   348: 	move.b	#92,VDC_SPRITE_Y_LSB		; base position for each letter
                            	   349: 
00:0001037A 103900000421    	   350: 	move.b	VDC_SPRITE_X_LSB,D0		; store x for current sprite in D0
00:00010380 903900006004    	   351: 	sub.b	logo_animation,D0		; subtract logo_an x value from D0
                            	   352: 
00:00010386 B03C0008        	   353: 	cmp.b	#8,D0
00:0001038A 64000008        	   354: 	bcc	.3				; if more than 8, jump to .3
                            	   355: 
00:0001038E 533900000423    	   356: 	subq.b	#1,VDC_SPRITE_Y_LSB		; move letter up 1 pixel
                            	   357: 
00:00010394 5241            	   358: .3	addq	#1,D1				; move to next sprite
00:00010396 B23C0008        	   359: 	cmp.b	#8,D1				; did we reach sprite 8?
00:0001039A 6600FFD0        	   360: 	bne	.2				; not yet, jump to .2
                            	   361: 
00:0001039E 4CDF0003        	   362: .end	movem.l	(SP)+,D0-D1
00:000103A2 13DF00000407    	   363: 	move.b	(SP)+,VDC_CURRENT_SPRITE
00:000103A8 4E73            	   364: 	rte
                            	   365: 
                            	   366: exc_trap14_handler
00:000103AA B03C0000        	   367: 	cmp.b	#0,D0
00:000103AE 66000006        	   368: 	bne	.1
00:000103B2 610003A0        	   369: 	bsr	rnd_impl
00:000103B6 4E73            	   370: .1	rte
                            	   371: 
                            	   372: exc_trap15_handler
00:000103B8 B03C0001        	   373: 	cmp.b	#1,D0
00:000103BC 6600000C        	   374: 	bne	.1
00:000103C0 1F01            	   375: 	move.b	D1,-(SP)
00:000103C2 6100018C        	   376: 	bsr	terminal_putchar
00:000103C6 548F            	   377: 	addq.l	#2,SP
00:000103C8 4E73            	   378: 	rte
                            	   379: 
00:000103CA B03C0002        	   380: .1	cmp.b	#2,D0
00:000103CE 6600000A        	   381: 	bne	.2
00:000103D2 2F08            	   382: 	move.l	A0,-(SP)
00:000103D4 610002B6        	   383: 	bsr	terminal_putstring
00:000103D8 588F            	   384: 	addq.l	#4,SP
                            	   385: 
00:000103DA 4E73            	   386: .2	rte
                            	   387: 
                            	   388: timer_default_handler
00:000103DC 11FC00120404    	   389: 	move.b	#$12,VDC_BG_COLOR.w
00:000103E2 4E75            	   390: 	rts
                            	   391: 
                            	   392: sound_reset
00:000103E4 48E78080        	   393: 	movem.l	D0/A0,-(SP)
                            	   394: 
00:000103E8 207C00000500    	   395: 	movea.l	#SID0_F,A0
                            	   396: 
00:000103EE 4218            	   397: .1	clr.b	(A0)+
00:000103F0 B1FC00000540    	   398: 	cmpa.l	#SID0_F+$40,A0
00:000103F6 6600FFF6        	   399: 	bne	.1
                            	   400: 
00:000103FA 103C007F        	   401: 	move.b	#$7f,D0
00:000103FE 207C00000580    	   402: 	movea.l	#MIX_SID0_LEFT,A0
                            	   403: 
00:00010404 10C0            	   404: .2	move.b	D0,(A0)+
00:00010406 B1FC00000588    	   405: 	cmpa.l	#MIX_SID0_LEFT+$8,A0
00:0001040C 6600FFF6        	   406: 	bne	.2
                            	   407: 
00:00010410 13FC000F0000051B	   408: 	move.b	#$f,SID0_V
00:00010418 13FC000F0000053B	   409: 	move.b	#$f,SID1_V
                            	   410: 
00:00010420 4CDF0101        	   411: 	movem.l	(SP)+,D0/A0
00:00010424 4E75            	   412: 	rts
                            	   413: 
                            	   414: 
                            	   415: ;-----------------------------------------------------------------------
                            	   416: ; Doesn't affect any registers
                            	   417: ;-----------------------------------------------------------------------
                            	   418: init_vector_table
00:00010426 21FC000101AE000C	   419: 	move.l	#exc_addr_error,VEC_ADDR_ERROR.w
00:0001042E 21FC000101B80010	   420: 	move.l	#exc_illegal_instr,VEC_ILLEGAL_INSTR.w
00:00010436 21FC000101C00020	   421: 	move.l	#exc_privilege_violation,VEC_PRIVILEGE_VIOLATION.w
00:0001043E 21FC000101C80060	   422: 	move.l	#exc_spurious_interrupt,VEC_SPURIOUS_INTERRUPT.w
00:00010446 21FC000101CA0064	   423: 	move.l	#exc_lvl1_irq_auto,VEC_LVL1_IRQ_AUTO.w
00:0001044E 21FC000101CC0068	   424: 	move.l	#exc_lvl2_irq_auto,VEC_LVL2_IRQ_AUTO.w
00:00010456 21FC000103000070	   425: 	move.l	#exc_lvl4_irq_auto,VEC_LVL4_IRQ_AUTO.w
00:0001045E 21FC000103300078	   426: 	move.l	#exc_lvl6_irq_auto,VEC_LVL6_IRQ_AUTO.w
00:00010466 21FC000103AA00B8	   427: 	move.l	#exc_trap14_handler,VEC_TRAP14.w
00:0001046E 21FC000103B800BC	   428: 	move.l	#exc_trap15_handler,VEC_TRAP15.w
00:00010476 21FC000103DC0100	   429: 	move.l	#timer_default_handler,VEC_TIMER0.w
00:0001047E 21FC000103DC0104	   430: 	move.l	#timer_default_handler,VEC_TIMER1.w
00:00010486 21FC000103DC0108	   431: 	move.l	#timer_default_handler,VEC_TIMER2.w
00:0001048E 21FC000103DC010C	   432: 	move.l	#timer_default_handler,VEC_TIMER3.w
00:00010496 21FC000103DC0110	   433: 	move.l	#timer_default_handler,VEC_TIMER4.w
00:0001049E 21FC000103DC0114	   434: 	move.l	#timer_default_handler,VEC_TIMER5.w
00:000104A6 21FC000103DC0118	   435: 	move.l	#timer_default_handler,VEC_TIMER6.w
00:000104AE 21FC000103DC011C	   436: 	move.l	#timer_default_handler,VEC_TIMER7.w
00:000104B6 4E75            	   437: 	rts
                            	   438: 
                            	   439: 
                            	   440: copy_fonts_from_rom
00:000104B8 1F380482        	   441: 	move.b	CORE_ROMS.w,-(SP)
                            	   442: 
00:000104BC 003800060482    	   443: 	or.b	#%00000110,CORE_ROMS.w			; make rom font visible to cpu
00:000104C2 207C00000800    	   444: 	movea.l	#$800,A0
00:000104C8 227C00002000    	   445: 	movea.l	#$2000,A1
                            	   446: 
00:000104CE 20D0            	   447: .1	move.l	(A0),(A0)+				; copy rom font to underlying ram
00:000104D0 B0C9            	   448: 	cmpa	A1,A0
00:000104D2 6600FFFA        	   449: 	bne	.1
                            	   450: 
00:000104D6 11DF0482        	   451: 	move.b	(SP)+,CORE_ROMS.w
00:000104DA 4E75            	   452: 	rts
                            	   453: 
                            	   454: 
                            	   455: copy_logo_tiles
00:000104DC 207C00010880    	   456: 	movea.l	#logo_tiles,A0
00:000104E2 327C11C0        	   457: 	movea.w	#$11c0,A1		; start at tile $1c
                            	   458: 
00:000104E6 12D8            	   459: .1	move.b	(A0)+,(A1)+
00:000104E8 B1FC000108C0    	   460: 	cmpa.l	#logo_tiles+64,A0	; 64 bytes = 4 tiles, 16 bytes/tile
00:000104EE 6600FFF6        	   461: 	bne	.1
                            	   462: 
00:000104F2 4E75            	   463: 	rts
                            	   464: 
                            	   465: 
                            	   466: ; setup sprites 0 - 7 (position, flags, index)
                            	   467: init_logo
00:000104F4 207C00010840    	   468: 	movea.l	#logo_data,A0
00:000104FA 4200            	   469: 	clr.b	D0
                            	   470: 
00:000104FC 13C000000407    	   471: .1	move.b	D0,VDC_CURRENT_SPRITE
00:00010502 227C00000420    	   472: 	movea.l	#VDC_SPRITE_X_MSB,A1
                            	   473: 
00:00010508 12D8            	   474: .2	move.b	(A0)+,(A1)+
00:0001050A B3FC00000428    	   475: 	cmpa.l	#VDC_SPRITE_X_MSB+8,A1
00:00010510 6600FFF6        	   476: 	bne	.2
00:00010514 5240            	   477: 	addq	#1,D0
00:00010516 B1FC00010880    	   478: 	cmpa.l	#logo_data+64,A0	; 8 * 8 bytes = 64 bytes
00:0001051C 6600FFDE        	   479: 	bne	.1
                            	   480: 
00:00010520 4E75            	   481: 	rts
                            	   482: 
                            	   483: 
                            	   484: terminal_clear
00:00010522 303C1000        	   485: 	move.w	#(TERMINAL_HPITCH*TERMINAL_VPITCH),D0
00:00010526 12386008        	   486: 	move.b	cursor_color.w,D1
00:0001052A 20790000600A    	   487: 	movea.l	terminal_chars,A0
00:00010530 22790000600E    	   488: 	movea.l	terminal_colors,A1
                            	   489: 
00:00010536 10FC0020        	   490: .1	move.b	#' ',(A0)+
00:0001053A 12C1            	   491: 	move.b	D1,(A1)+
00:0001053C 5340            	   492: 	subq.w	#1,D0
00:0001053E 6600FFF6        	   493: 	bne	.1
                            	   494: 
00:00010542 427900006006    	   495: 	clr.w	cursor_pos
00:00010548 4EB90001019A    	   496: 	jsr	terminal_flip_cursor
00:0001054E 4E75            	   497: 	rts
                            	   498: 
                            	   499: terminal_putchar
00:00010550 4EB90001019A    	   500: 	jsr	terminal_flip_cursor	; deactivate the cursor
00:00010556 20790000600A    	   501: 	movea.l	terminal_chars,A0
00:0001055C 22790000600E    	   502: 	movea.l	terminal_colors,A1
00:00010562 303900006006    	   503: 	move.w	cursor_pos,D0
                            	   504: 
00:00010568 0C2F000A0004    	   505: 	cmp.b	#$0a,4(SP)		; check for newline
00:0001056E 6700005C        	   506: 	beq	.nwln
00:00010572 0C2F000D0004    	   507: 	cmp.b	#$0d,4(SP)		; check for carriage return
00:00010578 67000056        	   508: 	beq	.crt
00:0001057C 0C2F001D0004    	   509: 	cmp.b	#$1d,4(SP)		; cursor right
00:00010582 67000038        	   510: 	beq	.cr
00:00010586 0C2F00110004    	   511: 	cmp.b	#$11,4(SP)		; cursor down
00:0001058C 6700006E        	   512: 	beq	.cd
00:00010590 0C2F00910004    	   513: 	cmp.b	#$91,4(SP)		; cursor up
00:00010596 6700006E        	   514: 	beq	.cu
00:0001059A 0C2F009D0004    	   515: 	cmp.b	#$9d,4(SP)		; cursor left
00:000105A0 67000070        	   516: 	beq	.cl
00:000105A4 0C2F00080004    	   517: 	cmp.b	#$08,4(SP)		; backspace
00:000105AA 67000088        	   518: 	beq	.bs
                            	   519: 
00:000105AE 11AF00040000    	   520: 	move.b	(4,SP),(A0,D0.w)	; print char
00:000105B4 13B9000060080000	   521: 	move.b	cursor_color,(A1,D0.w)	; set color
                            	   522: 
00:000105BC 5240            	   523: .cr	addq.w	#1,D0			; move cursor one step to the right
00:000105BE 3200            	   524: 	move.w	D0,D1
00:000105C0 0241007F        	   525: 	andi.w	#%1111111,D1
00:000105C4 B27C0050        	   526: 	cmp.w	#TERMINAL_WIDTH,D1	; are we at pos 80 or higher?
00:000105C8 65000026        	   527: 	blo	.3			; no
                            	   528: 
00:000105CC 06400080        	   529: .nwln	addi.w	#TERMINAL_HPITCH,D0	; yes, move cursor one line down
00:000105D0 0240FF80        	   530: .crt	andi.w	#%1111111110000000,D0	; cursor to beginning of line (carriage return)
                            	   531: 
00:000105D4 B07C0A00        	   532: .2	cmp.w	#(TERMINAL_HPITCH*TERMINAL_HEIGHT),D0	; check for cursor out of screen
00:000105D8 65000016        	   533: 	blo	.3			; no
                            	   534: 
00:000105DC 04400080        	   535: 	subi.w	#TERMINAL_HPITCH,D0	; move cursor one line up
00:000105E0 33C000006006    	   536: 	move.w	D0,cursor_pos
00:000105E6 610000FE        	   537: 	bsr	terminal_add_bottom_row
00:000105EA 6100FBAE        	   538: 	bsr	terminal_flip_cursor	; activate the cursor
00:000105EE 4E75            	   539: 	rts
                            	   540: 
00:000105F0 33C000006006    	   541: .3	move.w	D0,cursor_pos
00:000105F6 6100FBA2        	   542: 	bsr	terminal_flip_cursor	; activate the cursor
00:000105FA 4E75            	   543: 	rts
                            	   544: 
00:000105FC 06400080        	   545: .cd	addi.w	#TERMINAL_HPITCH,D0	; yes, move cursor one line down
00:00010600 6000FFD2        	   546: 	bra	.2
00:00010604 4E75            	   547: 	rts
                            	   548: 
00:00010606 04400080        	   549: .cu	subi.w	#TERMINAL_HPITCH,D0	; move cursor one line up
00:0001060A 6AE4            	   550: 	bpl.s	.3
00:0001060C 06400080        	   551: 	addi.w	#TERMINAL_HPITCH,D0	; move cursor one line down
00:00010610 60DE            	   552: 	bra.s	.3
                            	   553: 
00:00010612 4A40            	   554: .cl	tst.w	D0
00:00010614 6606            	   555: 	bne.s	.cl0
00:00010616 6100FB82        	   556: 	bsr	terminal_flip_cursor	; we're at top left corner
00:0001061A 4E75            	   557: 	rts
00:0001061C 3200            	   558: .cl0	move.w	D0,D1
00:0001061E 0241007F        	   559: 	andi.w	#$7f,D1
00:00010622 4A41            	   560: 	tst.w	D1
00:00010624 6600000A        	   561: 	bne	.cl1
00:00010628 0640004F        	   562: 	addi.w	#(TERMINAL_WIDTH-1),D0
00:0001062C 6000FFD8        	   563: 	bra	.cu
00:00010630 5340            	   564: .cl1	subq.w	#1,D0
00:00010632 60BC            	   565: 	bra.s	.3
                            	   566: 
00:00010634 3200            	   567: .bs	move.w	D0,D1
00:00010636 6700FFB8        	   568: 	beq	.3		; do nothing if we're at position 0 (left top)
00:0001063A 0201007F        	   569: 	andi.b	#$7f,D1		; the byte in D1 now contains the current column
00:0001063E 66000018        	   570: 	bne	.bs0		; it's column 0
00:00010642 04400031        	   571: 	subi.w	#(TERMINAL_HPITCH-(TERMINAL_WIDTH-1)),D0
00:00010646 11BC00200000    	   572: 	move.b	#' ',(A0,D0)
00:0001064C 13B9000060080000	   573: 	move.b	cursor_color,(A1,D0)
00:00010654 6000FF9A        	   574: 	bra	.3
                            	   575: 
00:00010658 2F02            	   576: .bs0	move.l	D2,-(SP)
                            	   577: 
00:0001065A 3400            	   578: 	move.w	D0,D2
00:0001065C 11B0200020FF    	   579: .bs1	move.b	(A0,D2),-1(A0,D2)
00:00010662 13B1200020FF    	   580: 	move.b	(A1,D2),-1(A1,D2)
00:00010668 5242            	   581: 	addq.w	#1,D2
00:0001066A 5201            	   582: 	addq.b	#1,D1
00:0001066C B23C0050        	   583: 	cmp.b	#TERMINAL_WIDTH,D1
00:00010670 6600FFEA        	   584: 	bne	.bs1
                            	   585: 
00:00010674 5342            	   586: 	subq.w	#1,D2
00:00010676 11BC00202000    	   587: 	move.b	#' ',(A0,D2)
00:0001067C 13B9000060082000	   588: 	move.b	cursor_color,(A1,D2)
                            	   589: 
00:00010684 241F            	   590: 	move.l	(SP)+,D2
                            	   591: 
00:00010686 5340            	   592: 	subq.w	#1,D0
                            	   593: 
00:00010688 6000FF66        	   594: 	bra	.3
                            	   595: 
                            	   596: terminal_putstring
00:0001068C 206F0004        	   597: 	movea.l	(4,SP),A0
00:00010690 1018            	   598: .1	move.b	(A0)+,D0
00:00010692 67000012        	   599: 	beq	.2
00:00010696 2F08            	   600: 	move.l	A0,-(SP)
00:00010698 1F00            	   601: 	move.b	D0,-(SP)
00:0001069A 6100FEB4        	   602: 	bsr	terminal_putchar
00:0001069E 548F            	   603: 	addq.l	#2,SP
00:000106A0 205F            	   604: 	movea.l	(SP)+,A0
00:000106A2 6000FFEC        	   605: 	bra	.1
00:000106A6 4E75            	   606: .2	rts
                            	   607: 
                            	   608: 
                            	   609: terminal_put_hex_number
00:000106A8 102F0004        	   610: 	move.b	4(SP),D0	; D0 contains no of digits to print
00:000106AC 67000036        	   611: 	beq	.2		; if this is 0, end this function
                            	   612: 
00:000106B0 5300            	   613: 	subq.b	#1,D0		; reduce number of digits to print by 1
00:000106B2 67000014        	   614: 	beq	.1		; if this is 0 (now), only one digit to print
                            	   615: 
00:000106B6 222F0006        	   616: 	move.l	6(SP),D1	; D1 contains the number to be printed
                            	   617: 
00:000106BA E889            	   618: 	lsr.l	#4,D1
00:000106BC 2F01            	   619: 	move.l	D1,-(SP)
00:000106BE 1F00            	   620: 	move.b	D0,-(SP)
00:000106C0 4EB9000106A8    	   621: 	jsr	terminal_put_hex_number
00:000106C6 5C8F            	   622: 	addq.l	#6,SP
                            	   623: 
00:000106C8 202F0006        	   624: .1	move.l	6(SP),D0
00:000106CC 02800000000F    	   625: 	andi.l	#$f,D0
00:000106D2 41F9000108C0    	   626: 	lea	hex_values,A0
00:000106D8 1F300000        	   627: 	move.b	(A0,D0),-(SP)
00:000106DC 4EB900010550    	   628: 	jsr	terminal_putchar
00:000106E2 548F            	   629: 	addq.l	#2,SP
                            	   630: 
00:000106E4 4E75            	   631: .2	rts
                            	   632: 
                            	   633: terminal_add_bottom_row
00:000106E6 48E70030        	   634: 	movem.l	A2-A3,-(SP)
                            	   635: 
00:000106EA 20790000600A    	   636: 	movea.l	terminal_chars,A0
00:000106F0 43E80080        	   637: 	lea	TERMINAL_HPITCH(A0),A1
00:000106F4 24790000600E    	   638: 	movea.l	terminal_colors,A2
00:000106FA 47EA0080        	   639: 	lea	TERMINAL_HPITCH(A2),A3
                            	   640: 
00:000106FE 303C0980        	   641: 	move.w	#(TERMINAL_HPITCH*(TERMINAL_HEIGHT-1)),D0	; use terminal size minus lowest row
00:00010702 E448            	   642: 	lsr.w	#2,D0			; divide by 4
00:00010704 20D9            	   643: .1	move.l	(A1)+,(A0)+		; do 4 bytes at once
00:00010706 24DB            	   644: 	move.l	(A3)+,(A2)+		; do 4 bytes at once
00:00010708 5340            	   645: 	subq.w	#1,D0
00:0001070A 6600FFF8        	   646: 	bne	.1
                            	   647: 
00:0001070E 103C0080        	   648: 	move.b	#TERMINAL_HPITCH,D0	; do last row
00:00010712 123C0020        	   649: 	move.b	#' ',D1
00:00010716 143900006008    	   650: 	move.b	cursor_color,D2
00:0001071C 10C1            	   651: .2	move.b	D1,(A0)+
00:0001071E 14C2            	   652: 	move.b	D2,(A2)+
00:00010720 5300            	   653: 	subq.b	#1,D0
00:00010722 66F8            	   654: 	bne.s	.2
                            	   655: 
00:00010724 4CDF0C00        	   656: 	movem.l	(SP)+,A2-A3
00:00010728 4E75            	   657: 	rts
                            	   658: 
                            	   659: terminal_welcome
00:0001072A 4879000107DB    	   660: 	pea	welcome
00:00010730 4EB90001068C    	   661: 	jsr	terminal_putstring
00:00010736 588F            	   662: 	addq.l	#4,SP
00:00010738 487900010008    	   663: 	pea	version
00:0001073E 4EB90001068C    	   664: 	jsr	terminal_putstring
00:00010744 588F            	   665: 	addq.l	#4,SP
00:00010746 1F3C000A        	   666: 	move.b	#$0a,-(SP)
00:0001074A 4EB900010550    	   667: 	jsr	terminal_putchar
00:00010750 548F            	   668: 	addq.l	#2,SP
00:00010752 4E75            	   669: 	rts
                            	   670: 
                            	   671: ; see: https://www.stix.id.au/wiki/Fast_8-bit_pseudorandom_number_generator
                            	   672: rnd_impl
00:00010754 5238601D        	   673: 	addq.b	#1,rndx.w
00:00010758 1038601A        	   674: 	move.b	rnda.w,D0	; D0 = a
00:0001075C 1238601C        	   675: 	move.b	rndc.w,D1	; D1 = c
00:00010760 B300            	   676: 	eor.b	D1,D0		; (a ^ c), in D0
00:00010762 1238601D        	   677: 	move.b	rndx.w,D1	; D1 = x
00:00010766 B300            	   678: 	eor.b	D1,D0		; (a ^ c) ^ x, in D0
00:00010768 11C0601A        	   679: 	move.b	D0,rnda.w	; store result in a
                            	   680: 
00:0001076C 1238601B        	   681: 	move.b	rndb.w,D1	; D1 = b
00:00010770 D200            	   682: 	add.b	D0,D1		; b = b + a
00:00010772 11C1601B        	   683: 	move.b	D1,rndb.w
00:00010776 E219            	   684: 	ror.b	#1,D1
00:00010778 D238601C        	   685: 	add.b	rndc.w,D1
00:0001077C B300            	   686: 	eor.b	D1,D0
00:0001077E 11C0601C        	   687: 	move.b	D0,rndc.w
00:00010782 4E75            	   688: 	rts
                            	   689: 
00:00010784 0A              	   690: logo_boot_message	dc.b	$0a,$0a,$0a,$0a,$0a,$0a,$0a,$0a,$0a,$0a,$0a,$0a,$0a,$0a,$0a,$0a,$0a,$0a,$0a
00:00010785 0A
00:00010786 0A
00:00010787 0A
00:00010788 0A
00:00010789 0A
00:0001078A 0A
00:0001078B 0A
00:0001078C 0A
00:0001078D 0A
00:0001078E 0A
00:0001078F 0A
00:00010790 0A
00:00010791 0A
00:00010792 0A
00:00010793 0A
00:00010794 0A
00:00010795 0A
00:00010796 0A
00:00010797 2020202020202020	   691: 			dc.b	"             drop a binary file to boot or hit [esc] to start basic",0
00:0001079F 202020202064726F
00:000107A7 7020612062696E61
00:000107AF 72792066696C6520
00:000107B7 746F20626F6F7420
00:000107BF 6F7220686974205B
00:000107C7 6573635D20746F20
00:000107CF 7374617274206261
00:000107D7 736963
00:000107DA 00
00:000107DB 6C696D6520766972	   692: welcome		dc.b	"lime virtual computer system",$0a,0
00:000107E3 7475616C20636F6D
00:000107EB 7075746572207379
00:000107F3 7374656D
00:000107F7 0A
00:000107F8 00
00:000107F9 0A              	   693: file_error	dc.b	$0a,"error: not a valid binary",0
00:000107FA 6572726F723A206E
00:00010802 6F7420612076616C
00:0001080A 69642062696E6172
00:00010812 79
00:00010813 00
00:00010814 0A              	   694: file_loading1	dc.b	$0a,"  size    from    to",0
00:00010815 202073697A652020
00:0001081D 202066726F6D2020
00:00010825 2020746F
00:00010829 00
00:0001082A 0A              	   695: file_loading2	dc.b	$0a,"$",0
00:0001082B 24
00:0001082C 00
00:0001082D 2024            	   696: file_loading3	dc.b	" $",0
00:0001082F 00
00:00010830 0A              	   697: file_loading4	dc.b	$0a,$0a," jumping to $",0
00:00010831 0A
00:00010832 206A756D70696E67
00:0001083A 20746F2024
00:0001083F 00
                            	   698: 
                            	   699: 	align	2
                            	   700: logo_data
00:00010840 00              	   701: 	dc.b	0,152,0,76,%111,0,0,$1c	; icon top left
00:00010841 98
00:00010842 00
00:00010843 4C
00:00010844 07
00:00010845 00
00:00010846 00
00:00010847 1C
00:00010848 00              	   702: 	dc.b	0,160,0,76,%111,0,0,$1d	; icon top right
00:00010849 A0
00:0001084A 00
00:0001084B 4C
00:0001084C 07
00:0001084D 00
00:0001084E 00
00:0001084F 1D
00:00010850 00              	   703: 	dc.b	0,152,0,84,%111,0,0,$1e	; icon bottom left
00:00010851 98
00:00010852 00
00:00010853 54
00:00010854 07
00:00010855 00
00:00010856 00
00:00010857 1E
00:00010858 00              	   704: 	dc.b	0,160,0,84,%111,0,0,$1f	; icon bottom right
00:00010859 A0
00:0001085A 00
00:0001085B 54
00:0001085C 07
00:0001085D 00
00:0001085E 00
00:0001085F 1F
00:00010860 00              	   705: 	dc.b	0,147,0,92,%111,0,0,$6c	; l
00:00010861 93
00:00010862 00
00:00010863 5C
00:00010864 07
00:00010865 00
00:00010866 00
00:00010867 6C
00:00010868 00              	   706: 	dc.b	0,152,0,92,%111,0,0,$69	; i
00:00010869 98
00:0001086A 00
00:0001086B 5C
00:0001086C 07
00:0001086D 00
00:0001086E 00
00:0001086F 69
00:00010870 00              	   707: 	dc.b	0,158,0,92,%111,0,0,$6d	; m
00:00010871 9E
00:00010872 00
00:00010873 5C
00:00010874 07
00:00010875 00
00:00010876 00
00:00010877 6D
00:00010878 00              	   708: 	dc.b	0,166,0,92,%111,0,0,$65	; e
00:00010879 A6
00:0001087A 00
00:0001087B 5C
00:0001087C 07
00:0001087D 00
00:0001087E 00
00:0001087F 65
                            	   709: 
                            	   710: 
                            	   711: logo_tiles
00:00010880 00              	   712: 	dc.b	%00000000,%00000000	; tile 1 (icon upper left)
00:00010881 00
00:00010882 01              	   713: 	dc.b	%00000001,%00000000
00:00010883 00
00:00010884 07              	   714: 	dc.b	%00000111,%10000000
00:00010885 80
00:00010886 07              	   715: 	dc.b	%00000111,%10100000
00:00010887 A0
00:00010888 1E              	   716: 	dc.b	%00011110,%11111000
00:00010889 F8
00:0001088A 1E              	   717: 	dc.b	%00011110,%10101111
00:0001088B AF
00:0001088C 1E              	   718: 	dc.b	%00011110,%10101010
00:0001088D AA
00:0001088E 1E              	   719: 	dc.b	%00011110,%10101111
00:0001088F AF
                            	   720: 
00:00010890 00              	   721: 	dc.b	%00000000,%00000000	; tile 2 (icon upper right)
00:00010891 00
00:00010892 00              	   722: 	dc.b	%00000000,%00000000
00:00010893 00
00:00010894 00              	   723: 	dc.b	%00000000,%00000000
00:00010895 00
00:00010896 00              	   724: 	dc.b	%00000000,%00000000
00:00010897 00
00:00010898 00              	   725: 	dc.b	%00000000,%00000000
00:00010899 00
00:0001089A 00              	   726: 	dc.b	%00000000,%00000000
00:0001089B 00
00:0001089C C0              	   727: 	dc.b	%11000000,%00000000
00:0001089D 00
00:0001089E B0              	   728: 	dc.b	%10110000,%00000000
00:0001089F 00
                            	   729: 
00:000108A0 1E              	   730: 	dc.b	%00011110,%11111010	; tile 3 (icon bottom left)
00:000108A1 FA
00:000108A2 07              	   731: 	dc.b	%00000111,%10101010
00:000108A3 AA
00:000108A4 07              	   732: 	dc.b	%00000111,%10101011
00:000108A5 AB
00:000108A6 01              	   733: 	dc.b	%00000001,%11101011
00:000108A7 EB
00:000108A8 00              	   734: 	dc.b	%00000000,%01111110
00:000108A9 7E
00:000108AA 00              	   735: 	dc.b	%00000000,%00010111
00:000108AB 17
00:000108AC 00              	   736: 	dc.b	%00000000,%00000001
00:000108AD 01
00:000108AE 00              	   737: 	dc.b	%00000000,%00000000
00:000108AF 00
                            	   738: 
00:000108B0 EC              	   739: 	dc.b	%11101100,%00000000	; tile 4 (icon bottom right)
00:000108B1 00
00:000108B2 EE              	   740: 	dc.b	%11101110,%00000000
00:000108B3 00
00:000108B4 AB              	   741: 	dc.b	%10101011,%10000000
00:000108B5 80
00:000108B6 AB              	   742: 	dc.b	%10101011,%10100000
00:000108B7 A0
00:000108B8 AA              	   743: 	dc.b	%10101010,%11110100
00:000108B9 F4
00:000108BA FF              	   744: 	dc.b	%11111111,%01010000
00:000108BB 50
00:000108BC 55              	   745: 	dc.b	%01010101,%00000000
00:000108BD 00
00:000108BE 00              	   746: 	dc.b	%00000000,%00000000
00:000108BF 00
                            	   747: 
                            	   748: hex_values
00:000108C0 3031323334353637	   749: 	dc.b	"0123456789abcdef"
00:000108C8 3839616263646566
                            	   750: 
                            	   751: end_of_rom
                            	   752: 


Symbols by name:
CORE_CR                          E:00000481
CORE_FILE_DATA                   E:00000484
CORE_ROMS                        E:00000482
CORE_SR                          E:00000480
KEYBOARD_CR                      E:00000601
KEYBOARD_STATE                   E:00000680
MIX_SID0_LEFT                    E:00000580
SID0_F                           E:00000500
SID0_V                           E:0000051B
SID1_V                           E:0000053B
TERMINAL_HEIGHT                  E:00000014
TERMINAL_HPITCH                  E:00000080
TERMINAL_VPITCH                  E:00000020
TERMINAL_WIDTH                   E:00000050
TIMER_SR                         E:00000440
VDC_BG_COLOR                     E:00000404
VDC_BORDER_COLOR                 E:00000402
VDC_BORDER_SIZE                  E:00000403
VDC_CR                           E:00000401
VDC_CURRENT_LAYER                E:00000406
VDC_CURRENT_SPRITE               E:00000407
VDC_IRQ_SCANLINE_LSB             E:0000040F
VDC_LAYER_COLORS                 E:00003000
VDC_LAYER_FLAGS0                 E:00000414
VDC_LAYER_TILES                  E:00002000
VDC_LAYER_Y_MSB                  E:00000412
VDC_SPRITE_FLAGS0                E:00000424
VDC_SPRITE_X_LSB                 E:00000421
VDC_SPRITE_X_MSB                 E:00000420
VDC_SPRITE_Y_LSB                 E:00000423
VDC_SR                           E:00000400
VEC_ADDR_ERROR                   E:0000000C
VEC_ILLEGAL_INSTR                E:00000010
VEC_LVL1_IRQ_AUTO                E:00000064
VEC_LVL2_IRQ_AUTO                E:00000068
VEC_LVL4_IRQ_AUTO                E:00000070
VEC_LVL6_IRQ_AUTO                E:00000078
VEC_PRIVILEGE_VIOLATION          E:00000020
VEC_SPURIOUS_INTERRUPT           E:00000060
VEC_TIMER0                       E:00000100
VEC_TIMER1                       E:00000104
VEC_TIMER2                       E:00000108
VEC_TIMER3                       E:0000010C
VEC_TIMER4                       E:00000110
VEC_TIMER5                       E:00000114
VEC_TIMER6                       E:00000118
VEC_TIMER7                       E:0000011C
VEC_TRAP14                       E:000000B8
VEC_TRAP15                       E:000000BC
boot_binary                      A:00010166
chunk_length                     E:00006012
copy_fonts_from_rom              A:000104B8
copy_logo_tiles                  A:000104DC
cursor_color                     E:00006008
cursor_pos                       E:00006006
end_of_rom                       A:000108D0
exc_addr_error                   A:000101AE
exc_illegal_instr                A:000101B8
exc_lvl1_irq_auto                A:000101CA
exc_lvl2_irq_auto                A:000101CC
exc_lvl4_irq_auto                A:00010300
exc_lvl6_irq_auto                A:00010330
exc_privilege_violation          A:000101C0
exc_spurious_interrupt           A:000101C8
exc_trap14_handler               A:000103AA
exc_trap15_handler               A:000103B8
exec_address                     E:00006016
file_error                       A:000107F9
file_loading1                    A:00010814
file_loading2                    A:0001082A
file_loading3                    A:0001082D
file_loading4                    A:00010830
hex_values                       A:000108C0
init_logo                        A:000104F4
init_vector_table                A:00010426
logo_animation                   E:00006004
logo_boot_message                A:00010784
logo_data                        A:00010840
logo_scr_cnt                     E:00006000
logo_screen                      A:000100D6
logo_status                      E:00006005
logo_tiles                       A:00010880
rnd_impl                         A:00010754
rnda                             E:0000601A
rndb                             E:0000601B
rndc                             E:0000601C
rndx                             E:0000601D
screen_editor                    A:00010158
sound_reset                      A:000103E4
start                            A:00010024
terminal_add_bottom_row          A:000106E6
terminal_chars                   E:0000600A
terminal_clear                   A:00010522
terminal_colors                  E:0000600E
terminal_flip_cursor             A:0001019A
terminal_put_hex_number          A:000106A8
terminal_putchar                 A:00010550
terminal_putstring               A:0001068C
terminal_welcome                 A:0001072A
timer_default_handler            A:000103DC
version                          A:00010008
welcome                          A:000107DB

Symbols by value:
0000000C VEC_ADDR_ERROR
00000010 VEC_ILLEGAL_INSTR
00000014 TERMINAL_HEIGHT
00000020 TERMINAL_VPITCH
00000020 VEC_PRIVILEGE_VIOLATION
00000050 TERMINAL_WIDTH
00000060 VEC_SPURIOUS_INTERRUPT
00000064 VEC_LVL1_IRQ_AUTO
00000068 VEC_LVL2_IRQ_AUTO
00000070 VEC_LVL4_IRQ_AUTO
00000078 VEC_LVL6_IRQ_AUTO
00000080 TERMINAL_HPITCH
000000B8 VEC_TRAP14
000000BC VEC_TRAP15
00000100 VEC_TIMER0
00000104 VEC_TIMER1
00000108 VEC_TIMER2
0000010C VEC_TIMER3
00000110 VEC_TIMER4
00000114 VEC_TIMER5
00000118 VEC_TIMER6
0000011C VEC_TIMER7
00000400 VDC_SR
00000401 VDC_CR
00000402 VDC_BORDER_COLOR
00000403 VDC_BORDER_SIZE
00000404 VDC_BG_COLOR
00000406 VDC_CURRENT_LAYER
00000407 VDC_CURRENT_SPRITE
0000040F VDC_IRQ_SCANLINE_LSB
00000412 VDC_LAYER_Y_MSB
00000414 VDC_LAYER_FLAGS0
00000420 VDC_SPRITE_X_MSB
00000421 VDC_SPRITE_X_LSB
00000423 VDC_SPRITE_Y_LSB
00000424 VDC_SPRITE_FLAGS0
00000440 TIMER_SR
00000480 CORE_SR
00000481 CORE_CR
00000482 CORE_ROMS
00000484 CORE_FILE_DATA
00000500 SID0_F
0000051B SID0_V
0000053B SID1_V
00000580 MIX_SID0_LEFT
00000601 KEYBOARD_CR
00000680 KEYBOARD_STATE
00002000 VDC_LAYER_TILES
00003000 VDC_LAYER_COLORS
00006000 logo_scr_cnt
00006004 logo_animation
00006005 logo_status
00006006 cursor_pos
00006008 cursor_color
0000600A terminal_chars
0000600E terminal_colors
00006012 chunk_length
00006016 exec_address
0000601A rnda
0000601B rndb
0000601C rndc
0000601D rndx
00010008 version
00010024 start
000100D6 logo_screen
00010158 screen_editor
00010166 boot_binary
0001019A terminal_flip_cursor
000101AE exc_addr_error
000101B8 exc_illegal_instr
000101C0 exc_privilege_violation
000101C8 exc_spurious_interrupt
000101CA exc_lvl1_irq_auto
000101CC exc_lvl2_irq_auto
00010300 exc_lvl4_irq_auto
00010330 exc_lvl6_irq_auto
000103AA exc_trap14_handler
000103B8 exc_trap15_handler
000103DC timer_default_handler
000103E4 sound_reset
00010426 init_vector_table
000104B8 copy_fonts_from_rom
000104DC copy_logo_tiles
000104F4 init_logo
00010522 terminal_clear
00010550 terminal_putchar
0001068C terminal_putstring
000106A8 terminal_put_hex_number
000106E6 terminal_add_bottom_row
0001072A terminal_welcome
00010754 rnd_impl
00010784 logo_boot_message
000107DB welcome
000107F9 file_error
00010814 file_loading1
0001082A file_loading2
0001082D file_loading3
00010830 file_loading4
00010840 logo_data
00010880 logo_tiles
000108C0 hex_values
000108D0 end_of_rom
