Sections:
00: "code" (0-969)


Source: "rom.s"
                            	     1: ;-----------------------------------------------------------------------
                            	     2: ; rom.s (assembles with vasmm68k_mot)
                            	     3: ; lime
                            	     4: ;
                            	     5: ; Copyright © 2025-2026 elmerucr. All rights reserved.
                            	     6: ;-----------------------------------------------------------------------
                            	     7: ; Calling convention:
                            	     8: ; - D0-D1/A0-A1 are scratch registers, and need to be caller saved
                            	     9: ;   when to be kept
                            	    10: ; - Calling a trap is an exception, but otherwise works the same as
                            	    11: ;   a conventional function / routine (scratch registers)
                            	    12: ; - Other (real) exceptions will save and restore all registers
                            	    13: ; - Tab size: 8
                            	    14: ;-----------------------------------------------------------------------
                            	    15: ; rom v0.10
                            	    16: ; adjusted (again) for 320x180 resolution
                            	    17: ;
                            	    18: ; rom v0.9
                            	    19: ; adjusted for 320x176 screen resolution
                            	    20: ;-----------------------------------------------------------------------
                            	    21: 
                            	    22: 	include	"definitions.inc"

Source: "definitions.inc"
                            	     1: ; ----------------------------------------------------------------------
                            	     2: ; definitions.i
                            	     3: ; lime
                            	     4: ;
                            	     5: ; Copyright © 2025-2026 elmerucr. All rights reserved.
                            	     6: ; ----------------------------------------------------------------------
                            	     7: 
                            	     8: ; vectors
                            	     9: VEC_ADDR_ERROR			equ	$000c
                            	    10: VEC_ILLEGAL_INSTR		equ	$0010
                            	    11: VEC_PRIVILEGE_VIOLATION	equ	$0020
                            	    12: VEC_SPURIOUS_INTERRUPT	equ	$0060
                            	    13: VEC_LVL1_IRQ_AUTO		equ	$0064
                            	    14: VEC_LVL2_IRQ_AUTO		equ	$0068	; entry point for core
                            	    15: VEC_LVL4_IRQ_AUTO		equ	$0070	; entry point for timer
                            	    16: VEC_LVL6_IRQ_AUTO		equ	$0078	; entry point for vdc
                            	    17: VEC_LVL7_IRQ_AUTO		equ	$007c	; currently unused
                            	    18: VEC_TRAP0			equ	$0080
                            	    19: VEC_TRAP1			equ	$0084
                            	    20: VEC_TRAP2			equ	$0088
                            	    21: VEC_TRAP3			equ	$008c
                            	    22: VEC_TRAP4			equ	$0090
                            	    23: VEC_TRAP5			equ	$0094
                            	    24: VEC_TRAP6			equ	$0098
                            	    25: VEC_TRAP7			equ	$009c
                            	    26: VEC_TRAP8			equ	$00a0
                            	    27: VEC_TRAP9			equ	$00a4
                            	    28: VEC_TRAP10			equ	$00a8
                            	    29: VEC_TRAP11			equ	$00ac
                            	    30: VEC_TRAP12			equ	$00b0
                            	    31: VEC_TRAP13			equ	$00b4
                            	    32: VEC_TRAP14			equ	$00b8
                            	    33: VEC_TRAP15			equ	$00bc
                            	    34: 
                            	    35: VEC_TIMER0			equ	$0100	; $0100 onwards, user vectors
                            	    36: VEC_TIMER1			equ	$0104
                            	    37: VEC_TIMER2			equ	$0108
                            	    38: VEC_TIMER3			equ	$010c
                            	    39: VEC_TIMER4			equ	$0110
                            	    40: VEC_TIMER5			equ	$0114
                            	    41: VEC_TIMER6			equ	$0118
                            	    42: VEC_TIMER7			equ	$011c
                            	    43: 
                            	    44: ; vdc (video display controller)
                            	    45: VDC_SR				equ	$0400
                            	    46: VDC_CR				equ	$0401
                            	    47: VDC_BORDER_COLOR		equ	$0402
                            	    48: VDC_BORDER_SIZE			equ	$0403
                            	    49: VDC_BG_COLOR			equ	$0404
                            	    50: VDC_CURRENT_LAYER		equ	$0406
                            	    51: VDC_CURRENT_SPRITE		equ	$0407
                            	    52: VDC_CURRENT_SCANLINE_MSB	equ	$040c
                            	    53: VDC_CURRENT_SCANLINE_LSB	equ	$040d
                            	    54: VDC_IRQ_SCANLINE_MSB		equ	$040e
                            	    55: VDC_IRQ_SCANLINE_LSB		equ	$040f
                            	    56: 
                            	    57: VDC_LAYER_X_MSB			equ	$0410
                            	    58: VDC_LAYER_X_LSB			equ	$0411
                            	    59: VDC_LAYER_Y_MSB			equ	$0412
                            	    60: VDC_LAYER_Y_LSB			equ	$0413
                            	    61: VDC_LAYER_FLAGS0		equ	$0414
                            	    62: VDC_LAYER_FLAGS1		equ	$0415
                            	    63: VDC_LAYER_FLAGS2		equ	$0416
                            	    64: VDC_LAYER_COLOR0		equ	$0418
                            	    65: VDC_LAYER_COLOR1		equ	$0419
                            	    66: VDC_LAYER_COLOR2		equ	$041a
                            	    67: VDC_LAYER_COLOR3		equ	$041b
                            	    68: VDC_LAYER_TILES_PAGE		equ	$041c
                            	    69: VDC_LAYER_COLORS_PAGE		equ	$041d
                            	    70: VDC_LAYER_TILESET_PAGE		equ	$041e
                            	    71: 
                            	    72: VDC_SPRITE_X_MSB		equ	$0420
                            	    73: VDC_SPRITE_X_LSB		equ	$0421
                            	    74: VDC_SPRITE_Y_MSB		equ	$0422
                            	    75: VDC_SPRITE_Y_LSB		equ	$0423
                            	    76: VDC_SPRITE_FLAGS0		equ	$0424
                            	    77: VDC_SPRITE_FLAGS1		equ	$0425
                            	    78: VDC_SPRITE_FLAGS2		equ	$0426
                            	    79: VDC_SPRITE_INDEX		equ	$0427
                            	    80: VDC_SPRITE_COLOR0		equ	$0428
                            	    81: VDC_SPRITE_COLOR1		equ	$0429
                            	    82: VDC_SPRITE_COLOR2		equ	$042a
                            	    83: VDC_SPRITE_COLOR3		equ	$042b
                            	    84: VDC_SPRITE_TILESET_PAGE		equ	$042e
                            	    85: 
                            	    86: KEYBOARD_SR			equ	$0600
                            	    87: KEYBOARD_CR			equ	$0601
                            	    88: KEYBOARD_EVENTS			equ	$0606
                            	    89: KEYBOARD_STATE			equ	$0680
                            	    90: 
                            	    91: VDC_LAYER_TILES			equ	$2000
                            	    92: VDC_LAYER_COLORS		equ	$3000
                            	    93: 
                            	    94: ; sound devices
                            	    95: SID0_F				equ	$0500
                            	    96: SID0_PW				equ	$0502
                            	    97: SID0_V				equ	$051b
                            	    98: SID1_V				equ	$053b
                            	    99: MIX_SID0_LEFT			equ	$0580
                            	   100: MIX_SID0_RIGHT			equ	$0581
                            	   101: MIX_SID1_LEFT			equ	$0582
                            	   102: MIX_SID1_RIGHT			equ	$0583
                            	   103: MIX_ANA0_LEFT			equ	$0584
                            	   104: MIX_ANA0_RIGHT			equ	$0585
                            	   105: MIX_ANA1_LEFT			equ	$0586
                            	   106: MIX_ANA1_RIGHT			equ	$0587
                            	   107: 
                            	   108: ; timer
                            	   109: TIMER_SR			equ	$0440
                            	   110: TIMER_CR			equ	$0441
                            	   111: TIMER0_BPM			equ	$0450
                            	   112: TIMER1_BPM			equ	$0452
                            	   113: TIMER2_BPM			equ	$0454
                            	   114: TIMER3_BPM			equ	$0456
                            	   115: TIMER4_BPM			equ	$0458
                            	   116: TIMER5_BPM			equ	$045a
                            	   117: TIMER6_BPM			equ	$045c
                            	   118: TIMER7_BPM			equ	$045e
                            	   119: 
                            	   120: ; core
                            	   121: CORE_SR				equ	$0480
                            	   122: CORE_CR				equ	$0481
                            	   123: CORE_ROMS			equ	$0482
                            	   124: CORE_FILE_DATA			equ	$0484
                            	   125: CORE_INPUT0			equ	$0488
                            	   126: 
                            	   127: RAM_START			equ	$20000
                            	   128: 

Source: "rom.s"
                            	    23: 
                            	    24: ;-----------------------------------------------------------------------
                            	    25: ; constants
                            	    26: TERMINAL_HPITCH	equ	$80	; 128 tiles
                            	    27: TERMINAL_VPITCH	equ	$20	; 32 tiles
                            	    28: TERMINAL_WIDTH	equ	$50	; 80 columns visible
                            	    29: TERMINAL_HEIGHT	equ	$14	; 20 rows
                            	    30: TERMINAL_BG_COL	equ	$93
                            	    31: TERMINAL_FG_COL	equ	$99
                            	    32: 
                            	    33: ;-----------------------------------------------------------------------
                            	    34: 		rsset	$6000
                            	    35: 
                            	    36: logo_cntdwn	rs.l	1
                            	    37: logo_animation	rs.b	1
                            	    38: logo_status	rs.b	1
                            	    39: cursor_pos	rs.w	1
                            	    40: cursor_color	rs.b	1
                            	    41: cursor_active	rs.b	1
                            	    42: terminal_chars	rs.l	1
                            	    43: terminal_colors	rs.l	1
                            	    44: terminal_buf_1	rs.b	128
                            	    45: terminal_buf_2	rs.b	128
                            	    46: 
                            	    47: chunk_length	rs.l	1
                            	    48: chunk_address	rs.l	1
                            	    49: exec_address	rs.l	1
                            	    50: 
                            	    51: prnga		rs.b	1
                            	    52: prngb		rs.b	1
                            	    53: prngc		rs.b	1
                            	    54: prngx		rs.b	1
                            	    55: 
                            	    56: ;-----------------------------------------------------------------------
                            	    57: 
                            	    58: 	section	code
                            	    59: 
                            	    60: 	org	$00010000	; rom based at $10000
                            	    61: 
00:00010000 01000000        	    62: 	dc.l	$01000000	; initial ssp at end of ram
00:00010004 00010022        	    63: 	dc.l	start		; reset vector
00:00010008 726F6D206D633638	    64: version	dc.b	"rom mc68000 0.10.20260719",0
00:00010010 30303020302E3130
00:00010018 2E32303236303731
00:00010020 39
00:00010021 00
                            	    65: 
                            	    66: 
                            	    67: start
00:00010022 207C00010000    	    68: 	move.l	#$00010000,A0			; set usp
00:00010028 4E60            	    69: 	move.l	A0,USP
                            	    70: 
                            	    71: ;	move.l	#$f000,D0			; small delay at reset
                            	    72: ;.1	subq.l	#1,D0
                            	    73: ;	bne	.1
                            	    74: 
00:0001002A 4EB900010470    	    75: 	jsr	init_vector_table
00:00010030 4EB900010502    	    76: 	jsr	copy_fonts_from_rom
00:00010036 4EB900010526    	    77: 	jsr	copy_logo_tiles
00:0001003C 4EB90001053E    	    78: 	jsr	init_logo
00:00010042 4EB90001042E    	    79: 	jsr	sound_reset
                            	    80: 
00:00010048 23FC000020000000	    81: 	move.l	#VDC_LAYER_TILES,terminal_chars		; default location
00:00010050 600A
00:00010052 23FC000030000000	    82: 	move.l	#VDC_LAYER_COLORS,terminal_colors	; default location
00:0001005A 600E
                            	    83: 
00:0001005C 11FC00010402    	    84: 	move.b	#$01,VDC_BORDER_COLOR.w		; dark grey / black
00:00010062 11FC000A0403    	    85: 	move.b	#$0a,VDC_BORDER_SIZE.w
00:00010068 42380406        	    86: 	clr.b	VDC_CURRENT_LAYER.w		; make layer 0 current
00:0001006C 11FC000C0414    	    87: 	move.b	#%1100,VDC_LAYER_FLAGS0.w	;
00:00010072 31FCFFF60412    	    88: 	move.w	#$fff6,VDC_LAYER_Y_MSB.w	; y location
                            	    89: 
00:00010078 423900006009    	    90: 	clr.b	cursor_active
00:0001007E 13FC00B700006008	    91: 	move.b	#$b7,cursor_color		; greenish
00:00010086 13FC000100000404	    92: 	move.b	#$01,VDC_BG_COLOR		; black / dark grey
                            	    93: 
00:0001008E 610004DC        	    94: 	bsr	terminal_clear
00:00010092 41F900010786    	    95: 	lea	logo_boot_msg,A0		; print boot message
00:00010098 61000614        	    96: 	bsr	terminal_putstring
                            	    97: 
00:0001009C 11FC00686004    	    98: 	move.b	#$68,logo_animation.w		; init variable for letter wobble
00:000100A2 23FC000777770000	    99: 	move.l	#$77777,logo_cntdwn		; counter init value before displaying message
00:000100AA 6000
00:000100AC 13FC00B30000040F	   100: 	move.b	#$b3,VDC_IRQ_SCANLINE_LSB	; set rasterline 179
00:000100B4 13FC000100000401	   101: 	move.b	#%00000001,VDC_CR		; enable irq's for vdc
                            	   102: 
00:000100BC 027C00FF        	   103: 	andi.w	#$00ff,SR			; jump to user mode, IPL reg = 0b000
                            	   104: 
00:000100C0 42386005        	   105: 	clr.b	logo_status.w
00:000100C4 42B90000611E    	   106: 	clr.l	prnga				; init random generator, clears all: rnda, rndb, rndc, rndx
                            	   107: 
                            	   108: 
                            	   109: logo_screen
00:000100CA 53B900006000    	   110: 	subq.l	#1,logo_cntdwn
00:000100D0 6606            	   111: 	bne.s	.ls1				; didn't reach 0
00:000100D2 11FC000D0414    	   112: 	move.b	#%1101,$414.w			; display layer 0
                            	   113: 
00:000100D8 10380681        	   114: .ls1	move.b	(KEYBOARD_STATE+1).w,D0		; check status of esc key
00:000100DC 670E            	   115: 	beq.s	.ls2				; not pressed
00:000100DE 08000000        	   116: 	btst	#0,D0				; check bit0
00:000100E2 6608            	   117: 	bne.s	.ls2
00:000100E4 0039000200006005	   118: 	or.b	#%00000010,logo_status
00:000100EC 4A3900006005    	   119: .ls2	tst.b	logo_status
00:000100F2 67D6            	   120: 	beq.s	logo_screen			; nothing happened, go back
                            	   121: 
                            	   122: ; either [esc] or boot happened
00:000100F4 423900000481    	   123: 	clr.b	CORE_CR				; stop irq's when new bin inserted or basic mode starts
00:000100FA 423900000401    	   124: 	clr.b	VDC_CR				; stop VDC interrupts
                            	   125: 
00:00010100 4200            	   126: 	clr.b	D0
00:00010102 13C000000407    	   127: .ls3	move.b	D0,VDC_CURRENT_SPRITE		; make sprite 0-7 inactive
00:00010108 423900000424    	   128: 	clr.b	VDC_SPRITE_FLAGS0
00:0001010E 5200            	   129: 	addq.b	#1,D0
00:00010110 B03C0008        	   130: 	cmp.b	#8,D0
00:00010114 6600FFEC        	   131: 	bne	.ls3
                            	   132: 
00:00010118 42380406        	   133: 	clr.b	VDC_CURRENT_LAYER.w		; make layer 0 current and visible
00:0001011C 003800010414    	   134: 	or.b	#%00000001,VDC_LAYER_FLAGS0.w
                            	   135: 
00:00010122 13FC009900006008	   136: 	move.b	#TERMINAL_FG_COL,cursor_color
00:0001012A 11FC00930404    	   137: 	move.b	#TERMINAL_BG_COL,VDC_BG_COLOR.w	; Atari Basic BG
00:00010130 11FC00800601    	   138: 	move.b	#%10000000,KEYBOARD_CR.w	; purge keyboard events
00:00010136 61000434        	   139: 	bsr	terminal_clear
00:0001013A 61000600        	   140: 	bsr	terminal_welcome
                            	   141: 
00:0001013E 0839000000006005	   142: 	btst	#0,logo_status
00:00010146 6666            	   143: 	bne.s	boot_binary
                            	   144: 
                            	   145: 
                            	   146: screen_editor
00:00010148 6100078A        	   147: 	bsr	b_cold_start
00:0001014C 6100079C        	   148: 	bsr	b_warm_start
00:00010150 13FC000100006009	   149: 	move.b	#%1,cursor_active
00:00010158 610001A0        	   150: .se1	bsr	terminal_flip_cursor		; make cursor visible
                            	   151: 
00:0001015C 10380606        	   152: .se2	move.b	KEYBOARD_EVENTS.w,D0		; load potential key event into D0
00:00010160 67FA            	   153: 	beq.s	.se2				; no key event (D0 == 0)
00:00010162 2F00            	   154: 	move.l	D0,-(SP)
00:00010164 61000194        	   155: 	bsr	terminal_flip_cursor		; hide
00:00010168 201F            	   156: 	move.l	(SP)+,D0
00:0001016A B03C000A        	   157: 	cmp.b	#$0a,D0				; is it a newline (return)?
00:0001016E 660A            	   158: 	bne.s	.se3				; no
                            	   159: 
00:00010170 2F00            	   160: 	move.l	D0,-(SP)
00:00010172 610E            	   161: 	bsr.s	screen_copy_to_line_buffer	; yes, copy to line buffer
00:00010174 61000780        	   162: 	bsr	b_process_buffer
00:00010178 201F            	   163: 	move.l	(SP)+,D0
                            	   164: 
00:0001017A 123C0001        	   165: .se3	move.b	#1,D1				; char out routine
00:0001017E 4E4F            	   166: 	trap	#15				;
00:00010180 60D6            	   167: 	bra.s	.se1
                            	   168: 
                            	   169: 
                            	   170: ;-----------------------------------------------------------------------
                            	   171: ; Subroutine: screen_copy_to_line_buffer
                            	   172: ; Inputs:     -
                            	   173: ; Outputs:    -
                            	   174: ; Destroyed:  D0, A0, A1
                            	   175: ;-----------------------------------------------------------------------
                            	   176: screen_copy_to_line_buffer
00:00010182 303900006006    	   177: 	move.w	cursor_pos,D0		; get current cursor position
00:00010188 0240FF80        	   178: 	andi.w	#$ff80,D0		; cursor to start of line
00:0001018C 20790000600A    	   179: 	movea.l	terminal_chars,A0	; point to beginning of chars
00:00010192 41F00000        	   180: 	lea	(A0,D0),A0		; point to start of current line
00:00010196 43F900006012    	   181: 	lea	terminal_buf_1,A1	; point to buffer
00:0001019C 203C0000004F    	   182: 	move.l	#(80-1),D0		; counter = 80 chars
00:000101A2 12D8            	   183: .1	move.b	(A0)+,(A1)+
00:000101A4 51C8FFFC        	   184: 	dbra	D0,.1
00:000101A8 12BC0000        	   185: 	move.b	#$00,(A1)		; end of line marker
00:000101AC 4E75            	   186: 	rts
                            	   187: 
                            	   188: 
                            	   189: boot_binary
00:000101AE 48E7C000        	   190: 	movem.l	D0-D1,-(SP)
00:000101B2 10380484        	   191: 	move.b	CORE_FILE_DATA.w,D0		; get first byte
00:000101B6 B03C0001        	   192: 	cmp.b	#1,D0
00:000101BA 66000100        	   193: 	bne	.bb3				; it's not a valid file
                            	   194: 
00:000101BE 41F900010817    	   195: 	lea	file_loading1,A0
00:000101C4 610004E8        	   196: 	bsr	terminal_putstring
                            	   197: 
00:000101C8 41F90001082E    	   198: .bb1	lea	file_loading2,A0
00:000101CE 610004DE        	   199: 	bsr	terminal_putstring
                            	   200: 
00:000101D2 4280            	   201: 	clr.l	D0					; getting chunk length
00:000101D4 10380484        	   202: 	move.b	CORE_FILE_DATA.w,D0
00:000101D8 660000E2        	   203: 	bne	.bb3					; should be zero this first byte
00:000101DC 10380484        	   204: 	move.b	CORE_FILE_DATA.w,D0
00:000101E0 E188            	   205: 	lsl.l	#8,D0
00:000101E2 10380484        	   206: 	move.b	CORE_FILE_DATA.w,D0
00:000101E6 E188            	   207: 	lsl.l	#8,D0
00:000101E8 10380484        	   208: 	move.b	CORE_FILE_DATA.w,D0
00:000101EC 23C000006112    	   209: 	move.l	D0,chunk_length
                            	   210: 
00:000101F2 123C0006        	   211: 	move.b	#6,D1
00:000101F6 610004CA        	   212: 	bsr	terminal_put_hex_number
                            	   213: 
00:000101FA 41F900010831    	   214: 	lea	file_loading3,A0
00:00010200 610004AC        	   215: 	bsr	terminal_putstring
                            	   216: 
00:00010204 4280            	   217: 	clr.l	D0			; getting the start address of
00:00010206 10380484        	   218: 	move.b	CORE_FILE_DATA.w,D0	; chunk into D0
00:0001020A 660000B0        	   219: 	bne	.bb3
00:0001020E 10380484        	   220: 	move.b	CORE_FILE_DATA.w,D0
00:00010212 E188            	   221: 	lsl.l	#8,D0
00:00010214 10380484        	   222: 	move.b	CORE_FILE_DATA.w,D0
00:00010218 E188            	   223: 	lsl.l	#8,D0
00:0001021A 10380484        	   224: 	move.b	CORE_FILE_DATA.w,D0
00:0001021E 23C000006116    	   225: 	move.l	D0,chunk_address
                            	   226: 
00:00010224 123C0006        	   227: 	move.b	#6,D1
00:00010228 61000498        	   228: 	bsr	terminal_put_hex_number
                            	   229: 
00:0001022C 203900006112    	   230: 	move.l	chunk_length,D0
00:00010232 207900006116    	   231: 	movea.l	chunk_address,A0
                            	   232: 
00:00010238 10F80484        	   233: .bb2	move.b	CORE_FILE_DATA.w,(A0)+	; get data and store in memory
00:0001023C 5340            	   234: 	subq	#1,D0
00:0001023E 6600FFF8        	   235: 	bne	.bb2
                            	   236: 
00:00010242 2F08            	   237: 	move.l	A0,-(SP)
00:00010244 41F900010831    	   238: 	lea	file_loading3,A0
00:0001024A 61000462        	   239: 	bsr	terminal_putstring
00:0001024E 205F            	   240: 	movea.l	(SP)+,A0
                            	   241: 
00:00010250 5388            	   242: 	subq.l	#1,A0			; now A0 contains the last address in which a byte was loaded
00:00010252 2008            	   243: 	move.l	A0,D0
00:00010254 123C0006        	   244: 	move.b	#6,D1
00:00010258 61000468        	   245: 	bsr	terminal_put_hex_number
                            	   246: 
00:0001025C 10380484        	   247: 	move.b	CORE_FILE_DATA.w,D0	; look for next chunk
00:00010260 B03C0001        	   248: 	cmp.b	#1,D0
00:00010264 6700FF62        	   249: 	beq	.bb1			; yes, another data chunk
00:00010268 B03C00FE        	   250: 	cmp.b	#$fe,D0			; no, is this a postamble?
00:0001026C 6600004E        	   251: 	bne	.bb3			; no = error
                            	   252: 
00:00010270 10380484        	   253: 	move.b	CORE_FILE_DATA.w,D0	; yes it's the postamble
00:00010274 66000046        	   254: 	bne	.bb3			; should be zero
00:00010278 10380484        	   255: 	move.b	CORE_FILE_DATA.w,D0
00:0001027C 6600003E        	   256: 	bne	.bb3			; should be zero
00:00010280 10380484        	   257: 	move.b	CORE_FILE_DATA.w,D0
00:00010284 66000036        	   258: 	bne	.bb3			; should be zero
00:00010288 10380484        	   259: 	move.b	CORE_FILE_DATA.w,D0
00:0001028C 6600002E        	   260: 	bne	.bb3			; should be zero
                            	   261: 
00:00010290 4280            	   262: 	clr.l	D0
00:00010292 10380484        	   263: 	move.b	CORE_FILE_DATA.w,D0
00:00010296 66000024        	   264: 	bne	.bb3			; should be zero
00:0001029A 10380484        	   265: 	move.b	CORE_FILE_DATA.w,D0
00:0001029E E188            	   266: 	lsl.l	#8,D0
00:000102A0 10380484        	   267: 	move.b	CORE_FILE_DATA.w,D0
00:000102A4 E188            	   268: 	lsl.l	#8,D0
00:000102A6 10380484        	   269: 	move.b	CORE_FILE_DATA.w,D0	; D0 contains starting address
00:000102AA 23C00000611A    	   270: 	move.l	D0,exec_address
                            	   271: 
00:000102B0 0039000100006005	   272: 	or.b	#%00000001,logo_status
00:000102B8 6000000C        	   273: 	bra	.bb4
                            	   274: 
00:000102BC 41F9000107FB    	   275: .bb3	lea	file_error,A0
00:000102C2 610003EA        	   276: 	bsr	terminal_putstring
00:000102C6 4CDF0003        	   277: .bb4	movem.l	(SP)+,D0-D1
                            	   278: 
00:000102CA 41F900010834    	   279: 	lea	file_loading4,A0
00:000102D0 610003DC        	   280: 	bsr	terminal_putstring
                            	   281: 
00:000102D4 20390000611A    	   282: 	move.l	exec_address,D0
00:000102DA 123C0008        	   283: 	move.b	#8,D1
00:000102DE 610003E2        	   284: 	bsr	terminal_put_hex_number
                            	   285: 
00:000102E2 203C000C0000    	   286: 	move.l	#$000c0000,D0			; wait loop
00:000102E8 5380            	   287: .bb5	subq.l	#1,D0
00:000102EA 6600FFFC        	   288: 	bne	.bb5
                            	   289: 
00:000102EE 6100027C        	   290: 	bsr	terminal_clear
                            	   291: 
00:000102F2 20790000611A    	   292: 	movea.l	exec_address,A0
00:000102F8 4ED0            	   293: 	jmp	(A0)
                            	   294: 
                            	   295: ;----------------------------------
                            	   296: ; destroys D0, A0
                            	   297: ;----------------------------------
                            	   298: terminal_flip_cursor
00:000102FA 4A3900006009    	   299: 	tst.b	cursor_active
00:00010300 6712            	   300: 	beq.s	.1
00:00010302 303900006006    	   301: 	move.w	cursor_pos,D0
00:00010308 207C00002000    	   302: 	movea.l	#VDC_LAYER_TILES,A0
00:0001030E 0A3000800000    	   303: 	eori.b	#$80,(A0,D0)
00:00010314 4E75            	   304: .1	rts
                            	   305: 
                            	   306: 
                            	   307: exc_addr_error
00:00010316 11FC00010404    	   308: 	move.b	#$01,VDC_BG_COLOR.w	; black
00:0001031C 6000FFFE        	   309: .1	bra	.1
                            	   310: 
                            	   311: 
                            	   312: exc_illegal_instr
00:00010320 11FC00410404    	   313: 	move.b	#$41,VDC_BG_COLOR.w	; red
00:00010326 60FE            	   314: .1	bra.s	.1
                            	   315: 
                            	   316: 
                            	   317: exc_privilege_violation
00:00010328 11FC00B40404    	   318: 	move.b	#$b4,VDC_BG_COLOR.w	; green
00:0001032E 60FE            	   319: .1	bra.s	.1
                            	   320: 
                            	   321: 
                            	   322: exc_spurious_interrupt
00:00010330 4E73            	   323: 	rte
                            	   324: 
                            	   325: 
                            	   326: exc_lvl1_irq_auto
00:00010332 4E73            	   327: 	rte
                            	   328: 
                            	   329: 
                            	   330: exc_lvl2_irq_auto
00:00010334 48E7C000        	   331: 	movem.l	D0-D1,-(SP)
00:00010338 10380480        	   332: 	move.b	CORE_SR.w,D0			; did core cause an irq?
00:0001033C 6700000E        	   333: 	beq	.el1				; no
00:00010340 11C00480        	   334: 	move.b	D0,CORE_SR.w			; yes, acknowledge
00:00010344 0039000100006005	   335: 	or.b	#%1,logo_status
00:0001034C 4CDF0003        	   336: .el1	movem.l	(SP)+,D0-D1
00:00010350 4E73            	   337: 	rte
                            	   338: 
                            	   339: 
                            	   340: exc_lvl4_irq_auto		; coupled to timer
00:00010352 48E7C080        	   341: 	movem.l	D0-D1/A0,-(SP)
00:00010356 207C00000100    	   342: 	movea.l	#VEC_TIMER0,A0
00:0001035C 103C0001        	   343: 	move.b	#%00000001,D0	; D0 contains the bit to be tested
                            	   344: 
00:00010360 1200            	   345: .1	move.b	D0,D1		; copy D0 to D1
00:00010362 C2380440        	   346: 	and.b	TIMER_SR.w,D1
00:00010366 6600000C        	   347: 	bne	.2		; it was this timer
00:0001036A 5848            	   348: 	addq	#4,A0
00:0001036C E300            	   349: 	asl.b	D0
00:0001036E 6700000C        	   350: 	beq	.3
00:00010372 60EC            	   351: 	bra.s	.1
                            	   352: 
                            	   353: 	; code for dealing with this timer
00:00010374 11C00440        	   354: .2	move.b	D0,TIMER_SR.w	; confirm this irq
00:00010378 2050            	   355: 	movea.l	(A0),A0
00:0001037A 4E90            	   356: 	jsr	(A0)
                            	   357: 
00:0001037C 4CDF0103        	   358: .3	movem.l	(SP)+,D0-D1/A0
00:00010380 4E73            	   359: 	rte
                            	   360: 
                            	   361: 
                            	   362: exc_lvl6_irq_auto				; coupled to vdc
00:00010382 1F3900000407    	   363: 	move.b	VDC_CURRENT_SPRITE,-(SP)
00:00010388 48E7C000        	   364: 	movem.l	D0-D1,-(SP)
                            	   365: 
00:0001038C 10380400        	   366: 	move.b	VDC_SR.w,D0
00:00010390 6700005E        	   367: 	beq	.end
00:00010394 11C00400        	   368: 	move.b	D0,VDC_SR.w			; acknowledge irq
                            	   369: 
00:00010398 103900006004    	   370: 	move.b	logo_animation,D0
00:0001039E 5200            	   371: 	addq.b	#$1,D0
00:000103A0 B03C00B8        	   372: 	cmp.b	#$b8,D0				; did we reach x position $b8?
00:000103A4 6600000E        	   373: 	bne	.1				; no jump to .1
00:000103A8 13FC000100000481	   374: 	move.b	#%00000001,CORE_CR		; yes, activate irq's for binary insert (each time we reach $b8)
                            	   375: 						; this makes sure letters wobble at least 1 time before binary
                            	   376: 						; load process starts
00:000103B0 103C0048        	   377: 	move.b	#$48,D0				; reset x position to $48
                            	   378: 
00:000103B4 13C000006004    	   379: .1	move.b	D0,logo_animation
                            	   380: 
00:000103BA 123C0004        	   381: 	move.b	#4,D1				; start with sprite 4 (letter 'l')
00:000103BE 13C100000407    	   382: .2	move.b	D1,VDC_CURRENT_SPRITE
00:000103C4 13FC005C00000423	   383: 	move.b	#92,VDC_SPRITE_Y_LSB		; base position for each letter
                            	   384: 
00:000103CC 103900000421    	   385: 	move.b	VDC_SPRITE_X_LSB,D0		; store x for current sprite in D0
00:000103D2 903900006004    	   386: 	sub.b	logo_animation,D0		; subtract logo_an x value from D0
                            	   387: 
00:000103D8 B03C0008        	   388: 	cmp.b	#8,D0
00:000103DC 64000008        	   389: 	bcc	.3				; if more than 8, jump to .3
                            	   390: 
00:000103E0 533900000423    	   391: 	subq.b	#1,VDC_SPRITE_Y_LSB		; move letter up 1 pixel
                            	   392: 
00:000103E6 5241            	   393: .3	addq	#1,D1				; move to next sprite
00:000103E8 B23C0008        	   394: 	cmp.b	#8,D1				; did we reach sprite 8?
00:000103EC 6600FFD0        	   395: 	bne	.2				; not yet, jump to .2
                            	   396: 
00:000103F0 4CDF0003        	   397: .end	movem.l	(SP)+,D0-D1
00:000103F4 13DF00000407    	   398: 	move.b	(SP)+,VDC_CURRENT_SPRITE
00:000103FA 4E73            	   399: 	rte
                            	   400: 
                            	   401: exc_trap14_handler
00:000103FC B23C0000        	   402: 	cmp.b	#0,D1
00:00010400 66000006        	   403: 	bne	.1
00:00010404 61000350        	   404: 	bsr	prng
00:00010408 4E73            	   405: .1	rte
                            	   406: 
                            	   407: ; ----------------------------------------------------------------------
                            	   408: ;
                            	   409: ;
                            	   410: ;
                            	   411: ;
                            	   412: ; ----------------------------------------------------------------------
                            	   413: exc_trap15_handler
00:0001040A B23C0001        	   414: 	cmp.b	#1,D1			; simple, no jump table needed yet
00:0001040E 66000008        	   415: 	bne	.1
                            	   416: 	;move.b	D1,D0
00:00010412 61000180        	   417: 	bsr	terminal_putchar
00:00010416 4E73            	   418: 	rte
                            	   419: 
00:00010418 B23C0002        	   420: .1	cmp.b	#2,D1
00:0001041C 66000006        	   421: 	bne	.2
00:00010420 6100028C        	   422: 	bsr	terminal_putstring
                            	   423: 
00:00010424 4E73            	   424: .2	rte
                            	   425: 
                            	   426: timer_default_handler
00:00010426 11FC00120404    	   427: 	move.b	#$12,VDC_BG_COLOR.w
00:0001042C 4E75            	   428: 	rts
                            	   429: 
                            	   430: sound_reset
00:0001042E 48E78080        	   431: 	movem.l	D0/A0,-(SP)
                            	   432: 
00:00010432 207C00000500    	   433: 	movea.l	#SID0_F,A0
                            	   434: 
00:00010438 4218            	   435: .1	clr.b	(A0)+
00:0001043A B1FC00000540    	   436: 	cmpa.l	#SID0_F+$40,A0
00:00010440 6600FFF6        	   437: 	bne	.1
                            	   438: 
00:00010444 103C007F        	   439: 	move.b	#$7f,D0
00:00010448 207C00000580    	   440: 	movea.l	#MIX_SID0_LEFT,A0
                            	   441: 
00:0001044E 10C0            	   442: .2	move.b	D0,(A0)+
00:00010450 B1FC00000588    	   443: 	cmpa.l	#MIX_SID0_LEFT+$8,A0
00:00010456 6600FFF6        	   444: 	bne	.2
                            	   445: 
00:0001045A 13FC000F0000051B	   446: 	move.b	#$f,SID0_V
00:00010462 13FC000F0000053B	   447: 	move.b	#$f,SID1_V
                            	   448: 
00:0001046A 4CDF0101        	   449: 	movem.l	(SP)+,D0/A0
00:0001046E 4E75            	   450: 	rts
                            	   451: 
                            	   452: 
                            	   453: ;-----------------------------------------------------------------------
                            	   454: ; Doesn't affect any registers
                            	   455: ;-----------------------------------------------------------------------
                            	   456: init_vector_table
00:00010470 21FC00010316000C	   457: 	move.l	#exc_addr_error,VEC_ADDR_ERROR.w
00:00010478 21FC000103200010	   458: 	move.l	#exc_illegal_instr,VEC_ILLEGAL_INSTR.w
00:00010480 21FC000103280020	   459: 	move.l	#exc_privilege_violation,VEC_PRIVILEGE_VIOLATION.w
00:00010488 21FC000103300060	   460: 	move.l	#exc_spurious_interrupt,VEC_SPURIOUS_INTERRUPT.w
00:00010490 21FC000103320064	   461: 	move.l	#exc_lvl1_irq_auto,VEC_LVL1_IRQ_AUTO.w
00:00010498 21FC000103340068	   462: 	move.l	#exc_lvl2_irq_auto,VEC_LVL2_IRQ_AUTO.w
00:000104A0 21FC000103520070	   463: 	move.l	#exc_lvl4_irq_auto,VEC_LVL4_IRQ_AUTO.w
00:000104A8 21FC000103820078	   464: 	move.l	#exc_lvl6_irq_auto,VEC_LVL6_IRQ_AUTO.w
00:000104B0 21FC000103FC00B8	   465: 	move.l	#exc_trap14_handler,VEC_TRAP14.w
00:000104B8 21FC0001040A00BC	   466: 	move.l	#exc_trap15_handler,VEC_TRAP15.w
00:000104C0 21FC000104260100	   467: 	move.l	#timer_default_handler,VEC_TIMER0.w
00:000104C8 21FC000104260104	   468: 	move.l	#timer_default_handler,VEC_TIMER1.w
00:000104D0 21FC000104260108	   469: 	move.l	#timer_default_handler,VEC_TIMER2.w
00:000104D8 21FC00010426010C	   470: 	move.l	#timer_default_handler,VEC_TIMER3.w
00:000104E0 21FC000104260110	   471: 	move.l	#timer_default_handler,VEC_TIMER4.w
00:000104E8 21FC000104260114	   472: 	move.l	#timer_default_handler,VEC_TIMER5.w
00:000104F0 21FC000104260118	   473: 	move.l	#timer_default_handler,VEC_TIMER6.w
00:000104F8 21FC00010426011C	   474: 	move.l	#timer_default_handler,VEC_TIMER7.w
00:00010500 4E75            	   475: 	rts
                            	   476: 
                            	   477: 
                            	   478: copy_fonts_from_rom
00:00010502 1F380482        	   479: 	move.b	CORE_ROMS.w,-(SP)
                            	   480: 
00:00010506 003800060482    	   481: 	or.b	#%00000110,CORE_ROMS.w			; make rom font visible to cpu
00:0001050C 207C00000800    	   482: 	movea.l	#$800,A0
00:00010512 227C00002000    	   483: 	movea.l	#$2000,A1
                            	   484: 
00:00010518 10D0            	   485: .1	move.b	(A0),(A0)+				; copy rom font to underlying ram
00:0001051A B0C9            	   486: 	cmpa	A1,A0
00:0001051C 6600FFFA        	   487: 	bne	.1
                            	   488: 
00:00010520 11DF0482        	   489: 	move.b	(SP)+,CORE_ROMS.w
00:00010524 4E75            	   490: 	rts
                            	   491: 
                            	   492: 
                            	   493: copy_logo_tiles
00:00010526 207C00010884    	   494: 	movea.l	#logo_tiles,A0
00:0001052C 327C11C0        	   495: 	movea.w	#$11c0,A1		; start at tile $1c
                            	   496: 
00:00010530 12D8            	   497: .1	move.b	(A0)+,(A1)+
00:00010532 B1FC000108C4    	   498: 	cmpa.l	#logo_tiles+64,A0	; 64 bytes = 4 tiles, 16 bytes/tile
00:00010538 6600FFF6        	   499: 	bne	.1
                            	   500: 
00:0001053C 4E75            	   501: 	rts
                            	   502: 
                            	   503: 
                            	   504: ; setup sprites 0 - 7 (position, flags, index)
                            	   505: init_logo
00:0001053E 207C00010844    	   506: 	movea.l	#logo_data,A0
00:00010544 4200            	   507: 	clr.b	D0
                            	   508: 
00:00010546 13C000000407    	   509: .1	move.b	D0,VDC_CURRENT_SPRITE
00:0001054C 227C00000420    	   510: 	movea.l	#VDC_SPRITE_X_MSB,A1
                            	   511: 
00:00010552 12D8            	   512: .2	move.b	(A0)+,(A1)+
00:00010554 B3FC00000428    	   513: 	cmpa.l	#VDC_SPRITE_X_MSB+8,A1
00:0001055A 6600FFF6        	   514: 	bne	.2
00:0001055E 5240            	   515: 	addq	#1,D0
00:00010560 B1FC00010884    	   516: 	cmpa.l	#logo_data+64,A0	; 8 * 8 bytes = 64 bytes
00:00010566 6600FFDE        	   517: 	bne	.1
                            	   518: 
00:0001056A 4E75            	   519: 	rts
                            	   520: 
                            	   521: 
                            	   522: terminal_clear
00:0001056C 303C1000        	   523: 	move.w	#(TERMINAL_HPITCH*TERMINAL_VPITCH),D0
00:00010570 12386008        	   524: 	move.b	cursor_color.w,D1
00:00010574 20790000600A    	   525: 	movea.l	terminal_chars,A0
00:0001057A 22790000600E    	   526: 	movea.l	terminal_colors,A1
                            	   527: 
00:00010580 10FC0020        	   528: .1	move.b	#' ',(A0)+
00:00010584 12C1            	   529: 	move.b	D1,(A1)+
00:00010586 5340            	   530: 	subq.w	#1,D0
00:00010588 6600FFF6        	   531: 	bne	.1
                            	   532: 
00:0001058C 427900006006    	   533: 	clr.w	cursor_pos
00:00010592 4E75            	   534: 	rts
                            	   535: 
                            	   536: ; ----------------------------------------------------------------------
                            	   537: ; Subroutine: terminal_putchar
                            	   538: ; Inputs:     D0 contains char to be printed
                            	   539: ; Outputs:    -
                            	   540: ; Destroyed:  D0,D1,A0,A1
                            	   541: ; ----------------------------------------------------------------------
                            	   542: terminal_putchar
00:00010594 20790000600A    	   543: 	movea.l	terminal_chars,A0
00:0001059A 22790000600E    	   544: 	movea.l	terminal_colors,A1
00:000105A0 323900006006    	   545: 	move.w	cursor_pos,D1
                            	   546: 
00:000105A6 B03C000A        	   547: 	cmp.b	#$0a,D0			; check for linefeed
00:000105AA 6700004E        	   548: 	beq	.lf
00:000105AE B03C000D        	   549: 	cmp.b	#$0d,D0			; check for carriage return
00:000105B2 6700004A        	   550: 	beq	.cr
00:000105B6 B03C001D        	   551: 	cmp.b	#$1d,D0			; cursor right
00:000105BA 6700002E        	   552: 	beq	.right
00:000105BE B03C0011        	   553: 	cmp.b	#$11,D0			; cursor down
00:000105C2 6700005E        	   554: 	beq	.down
00:000105C6 B03C0091        	   555: 	cmp.b	#$91,D0			; cursor up
00:000105CA 67000060        	   556: 	beq	.up
00:000105CE B03C009D        	   557: 	cmp.b	#$9d,D0			; cursor left
00:000105D2 67000064        	   558: 	beq	.left
00:000105D6 B03C0008        	   559: 	cmp.b	#$08,D0			; backspace
00:000105DA 6700007A        	   560: 	beq	.bs
                            	   561: 
00:000105DE 11801000        	   562: 	move.b	D0,(A0,D1.w)		; print char
00:000105E2 13B9000060081000	   563: 	move.b	cursor_color,(A1,D1.w)	; set color
                            	   564: 
00:000105EA 5241            	   565: .right	addq.w	#1,D1			; move cursor one step to the right
00:000105EC 3001            	   566: 	move.w	D1,D0
00:000105EE 0240007F        	   567: 	andi.w	#%1111111,D0
00:000105F2 B07C0050        	   568: 	cmp.w	#TERMINAL_WIDTH,D0	; are we at pos 80 or higher?
00:000105F6 65000022        	   569: 	blo	.2			; no
                            	   570: 
00:000105FA 06410080        	   571: .lf	addi.w	#TERMINAL_HPITCH,D1	; yes, move cursor one line down, followed by carriage return
00:000105FE 0241FF80        	   572: .cr	andi.w	#%1111111110000000,D1	; cursor to beginning of line (carriage return)
                            	   573: 
00:00010602 B27C0A00        	   574: .1	cmp.w	#(TERMINAL_HPITCH*TERMINAL_HEIGHT),D1	; check for cursor out of screen
00:00010606 65000012        	   575: 	blo	.2			; no
                            	   576: 
00:0001060A 04410080        	   577: 	subi.w	#TERMINAL_HPITCH,D1	; move cursor one line up
00:0001060E 33C100006006    	   578: 	move.w	D1,cursor_pos
00:00010614 610000E2        	   579: 	bsr	terminal_add_bottom_row
00:00010618 4E75            	   580: 	rts
                            	   581: 
00:0001061A 33C100006006    	   582: .2	move.w	D1,cursor_pos
00:00010620 4E75            	   583: 	rts
                            	   584: 
00:00010622 06410080        	   585: .down	addi.w	#TERMINAL_HPITCH,D1	; yes, move cursor one line down
00:00010626 6000FFDA        	   586: 	bra	.1
00:0001062A 4E75            	   587: 	rts
                            	   588: 
00:0001062C 04410080        	   589: .up	subi.w	#TERMINAL_HPITCH,D1	; move cursor one line up
00:00010630 6AE8            	   590: 	bpl.s	.2
00:00010632 06410080        	   591: 	addi.w	#TERMINAL_HPITCH,D1	; move cursor one line down
00:00010636 60E2            	   592: 	bra.s	.2
                            	   593: 
00:00010638 4A41            	   594: .left	tst.w	D1
00:0001063A 6602            	   595: 	bne.s	.l0
00:0001063C 4E75            	   596: 	rts
00:0001063E 3001            	   597: .l0	move.w	D1,D0
00:00010640 0240007F        	   598: 	andi.w	#$7f,D0
00:00010644 4A40            	   599: 	tst.w	D0
00:00010646 6600000A        	   600: 	bne	.l1
00:0001064A 0641004F        	   601: 	addi.w	#(TERMINAL_WIDTH-1),D1
00:0001064E 6000FFDC        	   602: 	bra	.up
00:00010652 5341            	   603: .l1	subq.w	#1,D1
00:00010654 60C4            	   604: 	bra.s	.2
                            	   605: 
00:00010656 3001            	   606: .bs	move.w	D1,D0
00:00010658 6700FFC0        	   607: 	beq	.2		; do nothing if we're at position 0 (left top)
00:0001065C 0200007F        	   608: 	andi.b	#$7f,D0		; the byte in D1 now contains the current column
00:00010660 66000018        	   609: 	bne	.bs0		; it's column 0
00:00010664 04410031        	   610: 	subi.w	#(TERMINAL_HPITCH-(TERMINAL_WIDTH-1)),D1
00:00010668 11BC00201000    	   611: 	move.b	#' ',(A0,D1)
00:0001066E 13B9000060081000	   612: 	move.b	cursor_color,(A1,D1)
00:00010676 6000FFA2        	   613: 	bra	.2
                            	   614: 
00:0001067A 2F02            	   615: .bs0	move.l	D2,-(SP)
                            	   616: 
00:0001067C 3401            	   617: 	move.w	D1,D2
00:0001067E 11B0200020FF    	   618: .bs1	move.b	(A0,D2),-1(A0,D2)
00:00010684 13B1200020FF    	   619: 	move.b	(A1,D2),-1(A1,D2)
00:0001068A 5242            	   620: 	addq.w	#1,D2
00:0001068C 5200            	   621: 	addq.b	#1,D0
00:0001068E B03C0050        	   622: 	cmp.b	#TERMINAL_WIDTH,D0
00:00010692 6600FFEA        	   623: 	bne	.bs1
                            	   624: 
00:00010696 5342            	   625: 	subq.w	#1,D2
00:00010698 11BC00202000    	   626: 	move.b	#' ',(A0,D2)
00:0001069E 13B9000060082000	   627: 	move.b	cursor_color,(A1,D2)
                            	   628: 
00:000106A6 241F            	   629: 	move.l	(SP)+,D2
                            	   630: 
00:000106A8 5341            	   631: 	subq.w	#1,D1
                            	   632: 
00:000106AA 6000FF6E        	   633: 	bra	.2
                            	   634: 
                            	   635: 
                            	   636: ; ----------------------------------------------------------------------
                            	   637: ;
                            	   638: ;
                            	   639: ;
                            	   640: ;
                            	   641: ; ----------------------------------------------------------------------
                            	   642: terminal_putstring
00:000106AE 1018            	   643: 	move.b	(A0)+,D0
00:000106B0 6700000E        	   644: 	beq	.1
00:000106B4 2F08            	   645: 	move.l	A0,-(SP)
00:000106B6 6100FEDC        	   646: 	bsr	terminal_putchar
00:000106BA 205F            	   647: 	movea.l	(SP)+,A0
00:000106BC 6000FFF0        	   648: 	bra	terminal_putstring
00:000106C0 4E75            	   649: .1	rts
                            	   650: 
                            	   651: 
                            	   652: ; ----------------------------------------------------------------------
                            	   653: ;
                            	   654: ; Inputs:    D0 contains de number to print, D1 no of digits to print
                            	   655: ; Outputs:   -
                            	   656: ; Destroyed: D0,D1,A0,A1
                            	   657: ; ----------------------------------------------------------------------
                            	   658: terminal_put_hex_number
00:000106C2 4A01            	   659: 	tst.b	D1		; D1 contains no of digits to print
00:000106C4 67000030        	   660: 	beq	.2		; if this is 0, end this function
00:000106C8 5301            	   661: 	subq.b	#1,D1		; reduce number of digits to print by 1
00:000106CA 67000012        	   662: 	beq	.1		; if this is 0 (now), only one digit to print
00:000106CE 2F00            	   663: 	move.l	D0,-(SP)
00:000106D0 E888            	   664: 	lsr.l	#4,D0
00:000106D2 1F01            	   665: 	move.b	D1,-(SP)
00:000106D4 4EB9000106C2    	   666: 	jsr	terminal_put_hex_number
00:000106DA 121F            	   667: 	move.b	(SP)+,D1
00:000106DC 201F            	   668: 	move.l	(SP)+,D0
00:000106DE 2200            	   669: .1	move.l	D0,D1
00:000106E0 02810000000F    	   670: 	andi.l	#$f,D1
00:000106E6 41F9000108C4    	   671: 	lea	hex_values,A0
00:000106EC 10301000        	   672: 	move.b	(A0,D1),D0
00:000106F0 4EB900010594    	   673: 	jsr	terminal_putchar
00:000106F6 4E75            	   674: .2	rts
                            	   675: 
                            	   676: 
                            	   677: ; ----------------------------------------------------------------------
                            	   678: ; Routine:   terminal_add_bottom_row
                            	   679: ; Inputs:    -
                            	   680: ; Outputs:   -
                            	   681: ; Destroyed: D0,D1,A0,A1
                            	   682: ; ----------------------------------------------------------------------
                            	   683: terminal_add_bottom_row
00:000106F8 48E72030        	   684: 	movem.l	D2/A2-A3,-(SP)
                            	   685: 
00:000106FC 20790000600A    	   686: 	movea.l	terminal_chars,A0
00:00010702 43E80080        	   687: 	lea	TERMINAL_HPITCH(A0),A1
00:00010706 24790000600E    	   688: 	movea.l	terminal_colors,A2
00:0001070C 47EA0080        	   689: 	lea	TERMINAL_HPITCH(A2),A3
                            	   690: 
00:00010710 303C0980        	   691: 	move.w	#(TERMINAL_HPITCH*(TERMINAL_HEIGHT-1)),D0	; use terminal size minus lowest row
00:00010714 E448            	   692: 	lsr.w	#2,D0			; divide by 4
00:00010716 20D9            	   693: .1	move.l	(A1)+,(A0)+		; do 4 bytes at once
00:00010718 24DB            	   694: 	move.l	(A3)+,(A2)+		; do 4 bytes at once
00:0001071A 5340            	   695: 	subq.w	#1,D0
00:0001071C 6600FFF8        	   696: 	bne	.1
                            	   697: 
00:00010720 103C0080        	   698: 	move.b	#TERMINAL_HPITCH,D0	; do last row
00:00010724 123C0020        	   699: 	move.b	#' ',D1
00:00010728 143900006008    	   700: 	move.b	cursor_color,D2
00:0001072E 10C1            	   701: .2	move.b	D1,(A0)+
00:00010730 14C2            	   702: 	move.b	D2,(A2)+
00:00010732 5300            	   703: 	subq.b	#1,D0
00:00010734 66F8            	   704: 	bne.s	.2
                            	   705: 
00:00010736 4CDF0C04        	   706: 	movem.l	(SP)+,D2/A2-A3
00:0001073A 4E75            	   707: 	rts
                            	   708: 
                            	   709: terminal_welcome
00:0001073C 41F9000107DD    	   710: 	lea	welcome,A0
00:00010742 4EB9000106AE    	   711: 	jsr	terminal_putstring
00:00010748 41F900010008    	   712: 	lea	version,A0
00:0001074E 4EB9000106AE    	   713: 	jsr	terminal_putstring
00:00010754 4E75            	   714: 	rts
                            	   715: 
                            	   716: 
                            	   717: ; ----------------------------------------------------------------------
                            	   718: ; Subroutine: prng
                            	   719: ; see:        https://www.stix.id.au/wiki/Fast_8-bit_pseudorandom_number_generator
                            	   720: ; Inputs:     -
                            	   721: ; Outputs:    D0 contains random number between 0 and 255
                            	   722: ; Destroyed:  D1
                            	   723: ; ----------------------------------------------------------------------
                            	   724: prng
00:00010756 52386121        	   725: 	addq.b	#1,prngx.w
00:0001075A 1038611E        	   726: 	move.b	prnga.w,D0	; D0 = a
00:0001075E 12386120        	   727: 	move.b	prngc.w,D1	; D1 = c
00:00010762 B300            	   728: 	eor.b	D1,D0		; (a ^ c), in D0
00:00010764 12386121        	   729: 	move.b	prngx.w,D1	; D1 = x
00:00010768 B300            	   730: 	eor.b	D1,D0		; (a ^ c) ^ x, in D0
00:0001076A 11C0611E        	   731: 	move.b	D0,prnga.w	; store result in a
                            	   732: 
00:0001076E 1238611F        	   733: 	move.b	prngb.w,D1	; D1 = b
00:00010772 D200            	   734: 	add.b	D0,D1		; b = b + a
00:00010774 11C1611F        	   735: 	move.b	D1,prngb.w
00:00010778 E219            	   736: 	ror.b	#1,D1
00:0001077A D2386120        	   737: 	add.b	prngc.w,D1
00:0001077E B300            	   738: 	eor.b	D1,D0
00:00010780 11C06120        	   739: 	move.b	D0,prngc.w
00:00010784 4E75            	   740: 	rts
                            	   741: 
                            	   742: logo_boot_msg
00:00010786 0A              	   743: 		dc.b	$0a,$0a,$0a,$0a,$0a,$0a,$0a,$0a,$0a,$0a,$0a,$0a,$0a,$0a,$0a,$0a,$0a,$0a,$0a
00:00010787 0A
00:00010788 0A
00:00010789 0A
00:0001078A 0A
00:0001078B 0A
00:0001078C 0A
00:0001078D 0A
00:0001078E 0A
00:0001078F 0A
00:00010790 0A
00:00010791 0A
00:00010792 0A
00:00010793 0A
00:00010794 0A
00:00010795 0A
00:00010796 0A
00:00010797 0A
00:00010798 0A
00:00010799 2020202020202020	   744: 		dc.b	"             drop a binary file to boot or hit [esc] to start basic",0
00:000107A1 202020202064726F
00:000107A9 7020612062696E61
00:000107B1 72792066696C6520
00:000107B9 746F20626F6F7420
00:000107C1 6F7220686974205B
00:000107C9 6573635D20746F20
00:000107D1 7374617274206261
00:000107D9 736963
00:000107DC 00
00:000107DD 6C696D6520766972	   745: welcome		dc.b	"lime virtual computer system",$0a,0
00:000107E5 7475616C20636F6D
00:000107ED 7075746572207379
00:000107F5 7374656D
00:000107F9 0A
00:000107FA 00
00:000107FB 0A              	   746: file_error	dc.b	$0a,$0a,"error: not a valid binary",0
00:000107FC 0A
00:000107FD 6572726F723A206E
00:00010805 6F7420612076616C
00:0001080D 69642062696E6172
00:00010815 79
00:00010816 00
00:00010817 0A              	   747: file_loading1	dc.b	$0a,$0a,"  size    from    to",0
00:00010818 0A
00:00010819 202073697A652020
00:00010821 202066726F6D2020
00:00010829 2020746F
00:0001082D 00
00:0001082E 0A              	   748: file_loading2	dc.b	$0a,"$",0
00:0001082F 24
00:00010830 00
00:00010831 2024            	   749: file_loading3	dc.b	" $",0
00:00010833 00
00:00010834 0A              	   750: file_loading4	dc.b	$0a,$0a," jumping to $",0
00:00010835 0A
00:00010836 206A756D70696E67
00:0001083E 20746F2024
00:00010843 00
                            	   751: 
                            	   752: 
                            	   753: logo_data
00:00010844 00              	   754: 	dc.b	0,152,0,76,%111,0,0,$1c	; icon top left
00:00010845 98
00:00010846 00
00:00010847 4C
00:00010848 07
00:00010849 00
00:0001084A 00
00:0001084B 1C
00:0001084C 00              	   755: 	dc.b	0,160,0,76,%111,0,0,$1d	; icon top right
00:0001084D A0
00:0001084E 00
00:0001084F 4C
00:00010850 07
00:00010851 00
00:00010852 00
00:00010853 1D
00:00010854 00              	   756: 	dc.b	0,152,0,84,%111,0,0,$1e	; icon bottom left
00:00010855 98
00:00010856 00
00:00010857 54
00:00010858 07
00:00010859 00
00:0001085A 00
00:0001085B 1E
00:0001085C 00              	   757: 	dc.b	0,160,0,84,%111,0,0,$1f	; icon bottom right
00:0001085D A0
00:0001085E 00
00:0001085F 54
00:00010860 07
00:00010861 00
00:00010862 00
00:00010863 1F
00:00010864 00              	   758: 	dc.b	0,147,0,92,%111,0,0,$6c	; l
00:00010865 93
00:00010866 00
00:00010867 5C
00:00010868 07
00:00010869 00
00:0001086A 00
00:0001086B 6C
00:0001086C 00              	   759: 	dc.b	0,152,0,92,%111,0,0,$69	; i
00:0001086D 98
00:0001086E 00
00:0001086F 5C
00:00010870 07
00:00010871 00
00:00010872 00
00:00010873 69
00:00010874 00              	   760: 	dc.b	0,158,0,92,%111,0,0,$6d	; m
00:00010875 9E
00:00010876 00
00:00010877 5C
00:00010878 07
00:00010879 00
00:0001087A 00
00:0001087B 6D
00:0001087C 00              	   761: 	dc.b	0,166,0,92,%111,0,0,$65	; e
00:0001087D A6
00:0001087E 00
00:0001087F 5C
00:00010880 07
00:00010881 00
00:00010882 00
00:00010883 65
                            	   762: 
                            	   763: 
                            	   764: logo_tiles
00:00010884 00              	   765: 	dc.b	%00000000,%00000000	; tile 1 (icon upper left)
00:00010885 00
00:00010886 01              	   766: 	dc.b	%00000001,%00000000
00:00010887 00
00:00010888 07              	   767: 	dc.b	%00000111,%10000000
00:00010889 80
00:0001088A 07              	   768: 	dc.b	%00000111,%10100000
00:0001088B A0
00:0001088C 1E              	   769: 	dc.b	%00011110,%11111000
00:0001088D F8
00:0001088E 1E              	   770: 	dc.b	%00011110,%10101111
00:0001088F AF
00:00010890 1E              	   771: 	dc.b	%00011110,%10101010
00:00010891 AA
00:00010892 1E              	   772: 	dc.b	%00011110,%10101111
00:00010893 AF
                            	   773: 
00:00010894 00              	   774: 	dc.b	%00000000,%00000000	; tile 2 (icon upper right)
00:00010895 00
00:00010896 00              	   775: 	dc.b	%00000000,%00000000
00:00010897 00
00:00010898 00              	   776: 	dc.b	%00000000,%00000000
00:00010899 00
00:0001089A 00              	   777: 	dc.b	%00000000,%00000000
00:0001089B 00
00:0001089C 00              	   778: 	dc.b	%00000000,%00000000
00:0001089D 00
00:0001089E 00              	   779: 	dc.b	%00000000,%00000000
00:0001089F 00
00:000108A0 C0              	   780: 	dc.b	%11000000,%00000000
00:000108A1 00
00:000108A2 B0              	   781: 	dc.b	%10110000,%00000000
00:000108A3 00
                            	   782: 
00:000108A4 1E              	   783: 	dc.b	%00011110,%11111010	; tile 3 (icon bottom left)
00:000108A5 FA
00:000108A6 07              	   784: 	dc.b	%00000111,%10101010
00:000108A7 AA
00:000108A8 07              	   785: 	dc.b	%00000111,%10101011
00:000108A9 AB
00:000108AA 01              	   786: 	dc.b	%00000001,%11101011
00:000108AB EB
00:000108AC 00              	   787: 	dc.b	%00000000,%01111110
00:000108AD 7E
00:000108AE 00              	   788: 	dc.b	%00000000,%00010111
00:000108AF 17
00:000108B0 00              	   789: 	dc.b	%00000000,%00000001
00:000108B1 01
00:000108B2 00              	   790: 	dc.b	%00000000,%00000000
00:000108B3 00
                            	   791: 
00:000108B4 EC              	   792: 	dc.b	%11101100,%00000000	; tile 4 (icon bottom right)
00:000108B5 00
00:000108B6 EE              	   793: 	dc.b	%11101110,%00000000
00:000108B7 00
00:000108B8 AB              	   794: 	dc.b	%10101011,%10000000
00:000108B9 80
00:000108BA AB              	   795: 	dc.b	%10101011,%10100000
00:000108BB A0
00:000108BC AA              	   796: 	dc.b	%10101010,%11110100
00:000108BD F4
00:000108BE FF              	   797: 	dc.b	%11111111,%01010000
00:000108BF 50
00:000108C0 55              	   798: 	dc.b	%01010101,%00000000
00:000108C1 00
00:000108C2 00              	   799: 	dc.b	%00000000,%00000000
00:000108C3 00
                            	   800: 
                            	   801: hex_values
00:000108C4 3031323334353637	   802: 	dc.b	"0123456789abcdef"
00:000108CC 3839616263646566
                            	   803: 
                            	   804: 	include "basic.s"

Source: "basic.s"
                            	     1: ;-----------------------------------------------------------------------
                            	     2: b_start	rs.l	1	;rsset	$....	no need, rs continues
                            	     3: b_end	rs.l	1
                            	     4: ;-----------------------------------------------------------------------
                            	     5: 
                            	     6: 
                            	     7: b_cold_start
00:000108D4 23F9000200000000	     8: 	move.l	$20000,b_start	; start of basic memory
00:000108DC 6122
00:000108DE 23F9000300000000	     9: 	move.l	$30000,b_end
00:000108E6 6126
00:000108E8 4E75            	    10: 	rts
                            	    11: 
                            	    12: 
                            	    13: b_warm_start
00:000108EA 41F900010960    	    14: 	lea	b_prompt,A0
00:000108F0 6100FDBC        	    15: 	bsr	terminal_putstring
00:000108F4 4E75            	    16: 	rts
                            	    17: 
                            	    18: 
                            	    19: b_process_buffer
00:000108F6 41F900006012    	    20: 	lea	terminal_buf_1,A0
00:000108FC 611A            	    21: 	bsr.s	b_remove_spaces
00:000108FE 612E            	    22: 	bsr.s	b_get_number
00:00010900 4A01            	    23: 	tst.b	D1
00:00010902 6712            	    24: 	beq.s	.end
00:00010904 2F00            	    25: 	move.l	D0,-(SP)
00:00010906 103C000A        	    26: 	move.b	#$a,D0
00:0001090A 7201            	    27: 	moveq	#1,D1
00:0001090C 4E4F            	    28: 	trap	#15
00:0001090E 201F            	    29: 	move.l	(SP)+,D0
00:00010910 7208            	    30: 	moveq	#8,D1
00:00010912 6100FDAE        	    31: 	bsr	terminal_put_hex_number
00:00010916 4E75            	    32: .end	rts
                            	    33: 
                            	    34: 
                            	    35: ; ----------------------------------------------------------------------
                            	    36: ; Subroutine: b_remove_spaces
                            	    37: ; Inputs:     A0 pointer to text in buffer
                            	    38: ; Outputs:    A0 point to first item not #$20 (char OR 0 = EOL), D0.b contains content at A0
                            	    39: ; ----------------------------------------------------------------------
                            	    40: b_remove_spaces
00:00010918 123C0050        	    41: 	move.b	#TERMINAL_WIDTH,D1
00:0001091C 5301            	    42: 	subq.b	#1,D1
00:0001091E 1010            	    43: .start	move.b	(A0),D0
00:00010920 B03C0020        	    44: 	cmp.b	#' ',D0
00:00010924 6702            	    45: 	beq.s	.next		; it is a space
00:00010926 4E75            	    46: 	rts
00:00010928 5288            	    47: .next	addq.l	#1,A0
00:0001092A 51C9FFF2        	    48: 	dbra	D1,.start	; TODO???? how to limit to a maximum if not found?
                            	    49: 
                            	    50: 
                            	    51: ; ----------------------------------------------------------------------
                            	    52: ; Subroutine: b_get_number (number in decimal)
                            	    53: ; Inputs:     A0 points to text
                            	    54: ; Outputs:    D0.l contains the number (32 bits), D1 contains the number
                            	    55: ;             of digits (so is 0 when NAN)
                            	    56: ;             A0 remains (1) the same if NAN or (2) points to next char
                            	    57: ; ----------------------------------------------------------------------
                            	    58: b_get_number
00:0001092E 2F02            	    59: 	move.l	D2,-(SP)
00:00010930 4280            	    60: 	clr.l	D0		; will contain end result
00:00010932 4281            	    61: 	clr.l	D1		; is zero if NAN
00:00010934 0C100030        	    62: .start	cmp.b	#'0',(A0)
00:00010938 65000022        	    63: 	blo	.end
00:0001093C 0C100039        	    64: 	cmp.b	#'9',(A0)
00:00010940 6200001A        	    65: 	bhi	.end
00:00010944 2400            	    66: 	move.l	D0,D2		; times ten: first save D0 into D2
00:00010946 E580            	    67: 	asl.l	#2,D0		; double D0
00:00010948 D082            	    68: 	add.l	D2,D0		; now D0 is times 5
00:0001094A E380            	    69: 	asl.l	#1,D0		; double D0 (times 10)
00:0001094C 1418            	    70: 	move.b	(A0)+,D2
00:0001094E 02820000000F    	    71: 	andi.l	#$f,D2
00:00010954 D082            	    72: 	add.l	D2,D0
00:00010956 5281            	    73: 	addq.l	#1,D1
00:00010958 6000FFDA        	    74: 	bra	.start
00:0001095C 241F            	    75: .end	move.l	(SP)+,D2
00:0001095E 4E75            	    76: 	rts
                            	    77: 
                            	    78: 
                            	    79: b_prompt
00:00010960 0A              	    80: 	dc.b	$a,"ready.",$a,0
00:00010961 72656164792E
00:00010967 0A
00:00010968 00
                            	    81: 

Source: "rom.s"
                            	   805: 
                            	   806: 	;include	"TBI68K.ASM"
                            	   807: 
                            	   808: end_of_rom
                            	   809: 


Symbols by name:
CORE_CR                          E:00000481
CORE_FILE_DATA                   E:00000484
CORE_ROMS                        E:00000482
CORE_SR                          E:00000480
KEYBOARD_CR                      E:00000601
KEYBOARD_EVENTS                  E:00000606
KEYBOARD_STATE                   E:00000680
MIX_SID0_LEFT                    E:00000580
SID0_F                           E:00000500
SID0_V                           E:0000051B
SID1_V                           E:0000053B
TERMINAL_BG_COL                  E:00000093
TERMINAL_FG_COL                  E:00000099
TERMINAL_HEIGHT                  E:00000014
TERMINAL_HPITCH                  E:00000080
TERMINAL_VPITCH                  E:00000020
TERMINAL_WIDTH                   E:00000050
TIMER_SR                         E:00000440
VDC_BG_COLOR                     E:00000404
VDC_BORDER_COLOR                 E:00000402
VDC_BORDER_SIZE                  E:00000403
VDC_CR                           E:00000401
VDC_CURRENT_LAYER                E:00000406
VDC_CURRENT_SPRITE               E:00000407
VDC_IRQ_SCANLINE_LSB             E:0000040F
VDC_LAYER_COLORS                 E:00003000
VDC_LAYER_FLAGS0                 E:00000414
VDC_LAYER_TILES                  E:00002000
VDC_LAYER_Y_MSB                  E:00000412
VDC_SPRITE_FLAGS0                E:00000424
VDC_SPRITE_X_LSB                 E:00000421
VDC_SPRITE_X_MSB                 E:00000420
VDC_SPRITE_Y_LSB                 E:00000423
VDC_SR                           E:00000400
VEC_ADDR_ERROR                   E:0000000C
VEC_ILLEGAL_INSTR                E:00000010
VEC_LVL1_IRQ_AUTO                E:00000064
VEC_LVL2_IRQ_AUTO                E:00000068
VEC_LVL4_IRQ_AUTO                E:00000070
VEC_LVL6_IRQ_AUTO                E:00000078
VEC_PRIVILEGE_VIOLATION          E:00000020
VEC_SPURIOUS_INTERRUPT           E:00000060
VEC_TIMER0                       E:00000100
VEC_TIMER1                       E:00000104
VEC_TIMER2                       E:00000108
VEC_TIMER3                       E:0000010C
VEC_TIMER4                       E:00000110
VEC_TIMER5                       E:00000114
VEC_TIMER6                       E:00000118
VEC_TIMER7                       E:0000011C
VEC_TRAP14                       E:000000B8
VEC_TRAP15                       E:000000BC
b_cold_start                     A:000108D4
b_end                            E:00006126
b_get_number                     A:0001092E
b_process_buffer                 A:000108F6
b_prompt                         A:00010960
b_remove_spaces                  A:00010918
b_start                          E:00006122
b_warm_start                     A:000108EA
boot_binary                      A:000101AE
chunk_address                    E:00006116
chunk_length                     E:00006112
copy_fonts_from_rom              A:00010502
copy_logo_tiles                  A:00010526
cursor_active                    E:00006009
cursor_color                     E:00006008
cursor_pos                       E:00006006
end_of_rom                       A:00010969
exc_addr_error                   A:00010316
exc_illegal_instr                A:00010320
exc_lvl1_irq_auto                A:00010332
exc_lvl2_irq_auto                A:00010334
exc_lvl4_irq_auto                A:00010352
exc_lvl6_irq_auto                A:00010382
exc_privilege_violation          A:00010328
exc_spurious_interrupt           A:00010330
exc_trap14_handler               A:000103FC
exc_trap15_handler               A:0001040A
exec_address                     E:0000611A
file_error                       A:000107FB
file_loading1                    A:00010817
file_loading2                    A:0001082E
file_loading3                    A:00010831
file_loading4                    A:00010834
hex_values                       A:000108C4
init_logo                        A:0001053E
init_vector_table                A:00010470
logo_animation                   E:00006004
logo_boot_msg                    A:00010786
logo_cntdwn                      E:00006000
logo_data                        A:00010844
logo_screen                      A:000100CA
logo_status                      E:00006005
logo_tiles                       A:00010884
prng                             A:00010756
prnga                            E:0000611E
prngb                            E:0000611F
prngc                            E:00006120
prngx                            E:00006121
screen_copy_to_line_buffer       A:00010182
screen_editor                    A:00010148
sound_reset                      A:0001042E
start                            A:00010022
terminal_add_bottom_row          A:000106F8
terminal_buf_1                   E:00006012
terminal_chars                   E:0000600A
terminal_clear                   A:0001056C
terminal_colors                  E:0000600E
terminal_flip_cursor             A:000102FA
terminal_put_hex_number          A:000106C2
terminal_putchar                 A:00010594
terminal_putstring               A:000106AE
terminal_welcome                 A:0001073C
timer_default_handler            A:00010426
version                          A:00010008
welcome                          A:000107DD

Symbols by value:
0000000C VEC_ADDR_ERROR
00000010 VEC_ILLEGAL_INSTR
00000014 TERMINAL_HEIGHT
00000020 TERMINAL_VPITCH
00000020 VEC_PRIVILEGE_VIOLATION
00000050 TERMINAL_WIDTH
00000060 VEC_SPURIOUS_INTERRUPT
00000064 VEC_LVL1_IRQ_AUTO
00000068 VEC_LVL2_IRQ_AUTO
00000070 VEC_LVL4_IRQ_AUTO
00000078 VEC_LVL6_IRQ_AUTO
00000080 TERMINAL_HPITCH
00000093 TERMINAL_BG_COL
00000099 TERMINAL_FG_COL
000000B8 VEC_TRAP14
000000BC VEC_TRAP15
00000100 VEC_TIMER0
00000104 VEC_TIMER1
00000108 VEC_TIMER2
0000010C VEC_TIMER3
00000110 VEC_TIMER4
00000114 VEC_TIMER5
00000118 VEC_TIMER6
0000011C VEC_TIMER7
00000400 VDC_SR
00000401 VDC_CR
00000402 VDC_BORDER_COLOR
00000403 VDC_BORDER_SIZE
00000404 VDC_BG_COLOR
00000406 VDC_CURRENT_LAYER
00000407 VDC_CURRENT_SPRITE
0000040F VDC_IRQ_SCANLINE_LSB
00000412 VDC_LAYER_Y_MSB
00000414 VDC_LAYER_FLAGS0
00000420 VDC_SPRITE_X_MSB
00000421 VDC_SPRITE_X_LSB
00000423 VDC_SPRITE_Y_LSB
00000424 VDC_SPRITE_FLAGS0
00000440 TIMER_SR
00000480 CORE_SR
00000481 CORE_CR
00000482 CORE_ROMS
00000484 CORE_FILE_DATA
00000500 SID0_F
0000051B SID0_V
0000053B SID1_V
00000580 MIX_SID0_LEFT
00000601 KEYBOARD_CR
00000606 KEYBOARD_EVENTS
00000680 KEYBOARD_STATE
00002000 VDC_LAYER_TILES
00003000 VDC_LAYER_COLORS
00006000 logo_cntdwn
00006004 logo_animation
00006005 logo_status
00006006 cursor_pos
00006008 cursor_color
00006009 cursor_active
0000600A terminal_chars
0000600E terminal_colors
00006012 terminal_buf_1
00006112 chunk_length
00006116 chunk_address
0000611A exec_address
0000611E prnga
0000611F prngb
00006120 prngc
00006121 prngx
00006122 b_start
00006126 b_end
00010008 version
00010022 start
000100CA logo_screen
00010148 screen_editor
00010182 screen_copy_to_line_buffer
000101AE boot_binary
000102FA terminal_flip_cursor
00010316 exc_addr_error
00010320 exc_illegal_instr
00010328 exc_privilege_violation
00010330 exc_spurious_interrupt
00010332 exc_lvl1_irq_auto
00010334 exc_lvl2_irq_auto
00010352 exc_lvl4_irq_auto
00010382 exc_lvl6_irq_auto
000103FC exc_trap14_handler
0001040A exc_trap15_handler
00010426 timer_default_handler
0001042E sound_reset
00010470 init_vector_table
00010502 copy_fonts_from_rom
00010526 copy_logo_tiles
0001053E init_logo
0001056C terminal_clear
00010594 terminal_putchar
000106AE terminal_putstring
000106C2 terminal_put_hex_number
000106F8 terminal_add_bottom_row
0001073C terminal_welcome
00010756 prng
00010786 logo_boot_msg
000107DD welcome
000107FB file_error
00010817 file_loading1
0001082E file_loading2
00010831 file_loading3
00010834 file_loading4
00010844 logo_data
00010884 logo_tiles
000108C4 hex_values
000108D4 b_cold_start
000108EA b_warm_start
000108F6 b_process_buffer
00010918 b_remove_spaces
0001092E b_get_number
00010960 b_prompt
00010969 end_of_rom
