Sections:
00: "org0001:10000" (10000-10480)


Source: "rom.s"
                            	     1: ; ----------------------------------------------------------------------
                            	     2: ; rom.s (assembles with vasmm68k_mot)
                            	     3: ; lime
                            	     4: ;
                            	     5: ; Copyright © 2025 elmerucr. All rights reserved.
                            	     6: ; ----------------------------------------------------------------------
                            	     7: 
                            	     8: ; ----------------------------------------------------------------------
                            	     9: ; - Calling convention: D0-D1/A0-A1 are scratch registers, and need to
                            	    10: ;   be caller saved when preserved
                            	    11: ; - tab size: 8
                            	    12: ;
                            	    13: ; ----------------------------------------------------------------------
                            	    14: 
                            	    15: 	include	"definitions.i"

Source: "definitions.i"
                            	     1: ; ----------------------------------------------------------------------
                            	     2: ; definitions.i
                            	     3: ; lime
                            	     4: ;
                            	     5: ; Copyright © 2025 elmerucr. All rights reserved.
                            	     6: ; ----------------------------------------------------------------------
                            	     7: 
                            	     8: ; vectors
                            	     9: VEC_ADDR_ERROR			equ	$000c
                            	    10: VEC_LVL1_IRQ_AUTO		equ	$0064
                            	    11: VEC_LVL2_IRQ_AUTO		equ	$0068	; entry point for core
                            	    12: VEC_LVL4_IRQ_AUTO		equ	$0070	; entry point for timer
                            	    13: VEC_LVL6_IRQ_AUTO		equ	$0078	; entry point for vdc
                            	    14: VEC_TIMER0			equ	$0100
                            	    15: VEC_TIMER1			equ	$0104
                            	    16: VEC_TIMER2			equ	$0108
                            	    17: VEC_TIMER3			equ	$010c
                            	    18: VEC_TIMER4			equ	$0110
                            	    19: VEC_TIMER5			equ	$0114
                            	    20: VEC_TIMER6			equ	$0118
                            	    21: VEC_TIMER7			equ	$011c
                            	    22: 
                            	    23: ; vdc (video display controller)
                            	    24: VDC_SR				equ	$0400
                            	    25: VDC_CR				equ	$0401
                            	    26: VDC_BG_COLOR			equ	$0404
                            	    27: VDC_CURRENT_LAYER		equ	$0406
                            	    28: VDC_CURRENT_SPRITE		equ	$0407
                            	    29: VDC_CURRENT_SCANLINE_MSB	equ	$040c
                            	    30: VDC_CURRENT_SCANLINE_LSB	equ	$040d
                            	    31: VDC_IRQ_SCANLINE_MSB		equ	$040e
                            	    32: VDC_IRQ_SCANLINE_LSB		equ	$040f
                            	    33: 
                            	    34: VDC_LAYER_X_MSB			equ	$0410
                            	    35: VDC_LAYER_X_LSB			equ	$0411
                            	    36: VDC_LAYER_Y_MSB			equ	$0412
                            	    37: VDC_LAYER_Y_LSB			equ	$0413
                            	    38: VDC_LAYER_FLAGS0		equ	$0414
                            	    39: VDC_LAYER_FLAGS1		equ	$0415
                            	    40: VDC_LAYER_COLOR0		equ	$0418
                            	    41: VDC_LAYER_COLOR1		equ	$0419
                            	    42: VDC_LAYER_COLOR2		equ	$041a
                            	    43: VDC_LAYER_COLOR3		equ	$041b
                            	    44: VDC_LAYER_TILES_MSB		equ	$041c
                            	    45: VDC_LAYER_TILES_LSB		equ	$041d
                            	    46: VDC_LAYER_TILESET_MSB	equ	$041e
                            	    47: VDC_LAYER_TILESET_LSB	equ	$041f
                            	    48: 
                            	    49: VDC_SPRITE_X_MSB		equ	$0420
                            	    50: VDC_SPRITE_X_LSB		equ	$0421
                            	    51: VDC_SPRITE_Y_MSB		equ	$0422
                            	    52: VDC_SPRITE_Y_LSB		equ	$0423
                            	    53: VDC_SPRITE_COLOR0		equ	$0428
                            	    54: VDC_SPRITE_COLOR1		equ	$0429
                            	    55: VDC_SPRITE_COLOR2		equ	$042a
                            	    56: VDC_SPRITE_COLOR3		equ	$042b
                            	    57: 
                            	    58: VDC_TILESET_ADDRESS		equ	$1000
                            	    59: 
                            	    60: VDC_LAYER0_COLORS		equ	$2000
                            	    61: VDC_LAYER1_COLORS		equ	$2800
                            	    62: VDC_LAYER2_COLORS		equ	$3000
                            	    63: VDC_LAYER3_COLORS		equ	$3800
                            	    64: 
                            	    65: VDC_LAYER0_TILES		equ	$4000
                            	    66: VDC_LAYER1_TILES		equ	$4800
                            	    67: VDC_LAYER2_TILES		equ	$5000
                            	    68: VDC_LAYER3_TILES		equ	$5800
                            	    69: 
                            	    70: ; sound devices
                            	    71: SID0_F				equ	$0500
                            	    72: SID0_PW				equ	$0502
                            	    73: SID0_V				equ	$051b
                            	    74: SID1_V				equ	$053b
                            	    75: MIX_SID0_LEFT			equ	$0580
                            	    76: MIX_SID0_RIGHT			equ	$0581
                            	    77: MIX_SID1_LEFT			equ	$0582
                            	    78: MIX_SID1_RIGHT			equ	$0583
                            	    79: MIX_ANA0_LEFT			equ	$0584
                            	    80: MIX_ANA0_RIGHT			equ	$0585
                            	    81: MIX_ANA1_LEFT			equ	$0586
                            	    82: MIX_ANA1_RIGHT			equ	$0587
                            	    83: 
                            	    84: ; timer
                            	    85: TIMER_SR			equ	$0440
                            	    86: TIMER_CR			equ	$0441
                            	    87: TIMER0_BPM			equ	$0450
                            	    88: TIMER1_BPM			equ	$0452
                            	    89: TIMER2_BPM			equ	$0454
                            	    90: TIMER3_BPM			equ	$0456
                            	    91: TIMER4_BPM			equ	$0458
                            	    92: TIMER5_BPM			equ	$045a
                            	    93: TIMER6_BPM			equ	$045c
                            	    94: TIMER7_BPM			equ	$045e
                            	    95: 
                            	    96: ; core
                            	    97: CORE_SR				equ	$0480
                            	    98: CORE_CR				equ	$0481
                            	    99: CORE_ROMS			equ	$0482
                            	   100: CORE_INPUT0			equ	$0488

Source: "rom.s"
                            	    16: 
                            	    17: logo_animation	equ	$6000	; 1 byte
                            	    18: binary_ready	equ	$6001	; 1 byte
                            	    19: cursor_pos	equ	$6002	; 1 word
                            	    20: cursor_color	equ	$6004	; 1 byte
                            	    21: ; available slot
                            	    22: terminal_chars	equ	$6006	; 1 word
                            	    23: terminal_colors	equ	$6008	; 1 word
                            	    24: 
                            	    25: TERMINAL_HPITCH	equ	$40	; 64
                            	    26: TERMINAL_VPITCH	equ	$20	; 32
                            	    27: TERMINAL_WIDTH	equ	$28	; 40 columns
                            	    28: TERMINAL_HEIGHT	equ	$16	; 22 rows
                            	    29: TERMINAL_SIZE	equ	(TERMINAL_HPITCH*TERMINAL_HEIGHT)
                            	    30: 
                            	    31: 
                            	    32: 	org	$00010000	; rom based at $10000
                            	    33: 
00:00010000 01000000        	    34: 	dc.l	$01000000	; initial ssp at end of ram
00:00010004 00010020        	    35: 	dc.l	_start		; reset vector
00:00010008 726F6D206D633638	    36: 	dc.b	"rom mc68000 0.6.20260103"
00:00010010 30303020302E362E
00:00010018 3230323630313033
                            	    37: 
                            	    38: 	align	2
                            	    39: 
                            	    40: _start
00:00010020 207C00010000    	    41: 	move.l	#$00010000,A0			; set usp
00:00010026 4E60            	    42: 	move.l	A0,USP
                            	    43: 
00:00010028 203C00008000    	    44: 	move.l	#$8000,D0			; small delay at reset
00:0001002E 5380            	    45: .1	subq.l	#1,D0
00:00010030 6600FFFC        	    46: 	bne	.1
                            	    47: 
00:00010034 4EB9000101C0    	    48: 	jsr	init_vector_table
00:0001003A 4EB90001022A    	    49: 	jsr	vdc_init_layer0
00:00010040 4EB90001023E    	    50: 	jsr	vdc_copy_rom_font
00:00010046 4EB900010262    	    51: 	jsr	vdc_copy_logo_tiles
00:0001004C 4EB90001027A    	    52: 	jsr	vdc_init_logo
00:00010052 4EB90001017E    	    53: 	jsr	sound_reset
00:00010058 4EB9000102A8    	    54: 	jsr	terminal_init
00:0001005E 4EB9000102C2    	    55: 	jsr	terminal_clear
                            	    56: 
00:00010064 4879000103E8    	    57: 	pea	hello
00:0001006A 4EB900010358    	    58: 	jsr	terminal_putstring
00:00010070 4FEF0004        	    59: 	lea	(4,SP),SP
                            	    60: 
00:00010074 2F3C0000D021    	    61: 	move.l	#$d021,-(SP)
00:0001007A 1F3C0004        	    62: 	move.b	#4,-(SP)
00:0001007E 4EB900010378    	    63: 	jsr	terminal_put_hex_byte
00:00010084 4FEF0006        	    64: 	lea	(6,SP),SP
                            	    65: 
00:00010088 11FC00686000    	    66: 	move.b	#$68,logo_animation.w		; init variable for letter wobble
00:0001008E 13FC00B30000040F	    67: 	move.b	#$b3,VDC_IRQ_SCANLINE_LSB	; set rasterline 179
00:00010096 13FC000100000401	    68: 	move.b	#%00000001,VDC_CR		; enable irq's for vdc
                            	    69: 
00:0001009E 46FC0000        	    70: 	move.w	#$0000,SR			; set status register (User Mode, ipl = 0)
                            	    71: 
00:000100A2 42386001        	    72: 	clr.b	binary_ready.w
                            	    73: 
00:000100A6 4A386001        	    74: loop	tst.b	binary_ready.w
00:000100AA 6700FFFA        	    75: 	beq	loop				; loop forever, wait for events
                            	    76: 
                            	    77: _jump
                            	    78: 
                            	    79: 
                            	    80: exc_addr_error
00:000100AE 6000FFFE        	    81: 	bra	exc_addr_error			; TODO: bsod when this happens?
                            	    82: 
                            	    83: 
                            	    84: exc_lvl1_irq_auto
00:000100B2 4E73            	    85: 	rte
                            	    86: 
                            	    87: 
                            	    88: exc_lvl2_irq_auto
00:000100B4 1F00            	    89: 	move.b	D0,-(SP)
                            	    90: 
00:000100B6 103900000480    	    91: 	move.b	CORE_SR,D0				; did core cause an irq?
00:000100BC 67000016        	    92: 	beq	.1					; no
00:000100C0 13C000000480    	    93: 	move.b	D0,CORE_SR				; yes, acknowledge
00:000100C6 423900000407    	    94: 	clr.b	VDC_CURRENT_SPRITE			; set sprite 0
00:000100CC 523900000429    	    95: 	addq.b	#1,VDC_SPRITE_COLOR1			; change color of bit pattern 0b01
                            	    96: 
00:000100D2 101F            	    97: 	move.b	(SP)+,D0
00:000100D4 4E73            	    98: .1	rte
                            	    99: 
                            	   100: 
                            	   101: exc_lvl4_irq_auto					; coupled to timer
00:000100D6 207C00000100    	   102: 	movea.l	#VEC_TIMER0,A0
00:000100DC 103C0001        	   103: 	move.b	#%00000001,D0	; D0 contains the bit to be tested
                            	   104: 
00:000100E0 1200            	   105: .1	move.b	D0,D1		; copy D0 to D1
00:000100E2 C2380440        	   106: 	and.b	TIMER_SR.w,D1
00:000100E6 6600000C        	   107: 	bne	.2		; it was this timer
00:000100EA 5848            	   108: 	addq	#4,A0
00:000100EC E300            	   109: 	asl.b	D0
00:000100EE 6700000C        	   110: 	beq	.3
00:000100F2 60EC            	   111: 	bra.s	.1
                            	   112: 
                            	   113: 	; code for dealing with this timer
00:000100F4 11C00440        	   114: .2	move.b	D0,TIMER_SR.w	; confirm this irq
00:000100F8 2050            	   115: 	movea.l	(A0),A0
00:000100FA 4E90            	   116: 	jsr	(A0)
                            	   117: 
00:000100FC 4E73            	   118: .3	rte
                            	   119: 
                            	   120: 
                            	   121: exc_lvl6_irq_auto				; coupled to vdc
00:000100FE 1F3900000407    	   122: 	move.b	VDC_CURRENT_SPRITE,-(SP)
                            	   123: 
00:00010104 10380400        	   124: 	move.b	VDC_SR.w,D0
00:00010108 6700005E        	   125: 	beq	.end
00:0001010C 11C00400        	   126: 	move.b	D0,VDC_SR.w			; acknowledge irq
                            	   127: 
00:00010110 103900006000    	   128: 	move.b	logo_animation,D0
00:00010116 5200            	   129: 	addq.b	#$1,D0
00:00010118 B03C00B8        	   130: 	cmp.b	#$b8,D0
00:0001011C 6600000E        	   131: 	bne	.1
00:00010120 13FC000100000481	   132: 	move.b	#%00000001,CORE_CR		; activate irq's for binary insert
                            	   133: 						; this makes sure letters wobble at least 1 time
00:00010128 103C0048        	   134: 	move.b	#$48,D0
                            	   135: 
00:0001012C 13C000006000    	   136: .1	move.b	D0,logo_animation
                            	   137: 
00:00010132 123C0004        	   138: 	move.b	#4,D1				; start with sprite 4 (letter 'l')
00:00010136 13C100000407    	   139: .2	move.b	D1,VDC_CURRENT_SPRITE
00:0001013C 13FC005A00000423	   140: 	move.b	#90,VDC_SPRITE_Y_LSB		; base position for each letter
                            	   141: 
00:00010144 103900000421    	   142: 	move.b	VDC_SPRITE_X_LSB,D0		; store x for current sprite in D0
00:0001014A 903900006000    	   143: 	sub.b	logo_animation,D0		; subtract logo_an x value from D0
                            	   144: 
00:00010150 B03C0008        	   145: 	cmp.b	#8,D0
00:00010154 64000008        	   146: 	bcc	.3				; if more than 8, jump to .3
                            	   147: 
00:00010158 533900000423    	   148: 	subq.b	#1,VDC_SPRITE_Y_LSB		; move letter up 1 pixel
                            	   149: 
00:0001015E 5241            	   150: .3	addq	#1,D1				; move to next sprite
00:00010160 B23C0008        	   151: 	cmp.b	#8,D1				; did we reach sprite 8?
00:00010164 6600FFD0        	   152: 	bne	.2				; not yet, jump to .2
                            	   153: 
00:00010168 11F804880404    	   154: .end	move.b	CORE_INPUT0.w,VDC_BG_COLOR.w
                            	   155: 
00:0001016E 13DF00000407    	   156: 	move.b	(SP)+,VDC_CURRENT_SPRITE
00:00010174 4E73            	   157: 	rte
                            	   158: 
                            	   159: 
                            	   160: timer_default_handler
00:00010176 11FC00120404    	   161: 	move.b	#$12,VDC_BG_COLOR.w
00:0001017C 4E75            	   162: 	rts
                            	   163: 
                            	   164: 
                            	   165: sound_reset
00:0001017E 48E78080        	   166: 	movem.l	D0/A0,-(SP)
                            	   167: 
00:00010182 207C00000500    	   168: 	movea.l	#SID0_F,A0
                            	   169: 
00:00010188 4218            	   170: .1	clr.b	(A0)+
00:0001018A B1FC00000540    	   171: 	cmpa.l	#SID0_F+$40,A0
00:00010190 6600FFF6        	   172: 	bne	.1
                            	   173: 
00:00010194 103C007F        	   174: 	move.b	#$7f,D0
00:00010198 207C00000580    	   175: 	movea.l	#MIX_SID0_LEFT,A0
                            	   176: 
00:0001019E 10C0            	   177: .2	move.b	D0,(A0)+
00:000101A0 B1FC00000588    	   178: 	cmpa.l	#MIX_SID0_LEFT+$8,A0
00:000101A6 6600FFF6        	   179: 	bne	.2
                            	   180: 
00:000101AA 13FC000F0000051B	   181: 	move.b	#$f,SID0_V
00:000101B2 13FC000F0000053B	   182: 	move.b	#$f,SID1_V
                            	   183: 
00:000101BA 4CDF0101        	   184: 	movem.l	(SP)+,D0/A0
00:000101BE 4E75            	   185: 	rts
                            	   186: 
                            	   187: 
                            	   188: init_vector_table
                            	   189: 	; can this be improved?
00:000101C0 21FC000100AE000C	   190: 	move.l	#exc_addr_error,VEC_ADDR_ERROR.w
00:000101C8 21FC000100B20064	   191: 	move.l	#exc_lvl1_irq_auto,VEC_LVL1_IRQ_AUTO.w
00:000101D0 21FC000100B40068	   192: 	move.l	#exc_lvl2_irq_auto,VEC_LVL2_IRQ_AUTO.w
00:000101D8 21FC000100D60070	   193: 	move.l	#exc_lvl4_irq_auto,VEC_LVL4_IRQ_AUTO.w
00:000101E0 21FC000100FE0078	   194: 	move.l	#exc_lvl6_irq_auto,VEC_LVL6_IRQ_AUTO.w
00:000101E8 21FC000101760100	   195: 	move.l	#timer_default_handler,VEC_TIMER0.w
00:000101F0 21FC000101760104	   196: 	move.l	#timer_default_handler,VEC_TIMER1.w
00:000101F8 21FC000101760108	   197: 	move.l	#timer_default_handler,VEC_TIMER2.w
00:00010200 21FC00010176010C	   198: 	move.l	#timer_default_handler,VEC_TIMER3.w
00:00010208 21FC000101760110	   199: 	move.l	#timer_default_handler,VEC_TIMER4.w
00:00010210 21FC000101760114	   200: 	move.l	#timer_default_handler,VEC_TIMER5.w
00:00010218 21FC000101760118	   201: 	move.l	#timer_default_handler,VEC_TIMER6.w
00:00010220 21FC00010176011C	   202: 	move.l	#timer_default_handler,VEC_TIMER7.w
00:00010228 4E75            	   203: 	rts
                            	   204: 
                            	   205: 
                            	   206: vdc_init_layer0
00:0001022A 1F380406        	   207: 	move.b	VDC_CURRENT_LAYER.w,-(SP)
00:0001022E 42380406        	   208: 	clr.b	VDC_CURRENT_LAYER.w		; make layer 0 current
00:00010232 11FC000D0414    	   209: 	move.b	#%1101,VDC_LAYER_FLAGS0.w	;
00:00010238 11DF0406        	   210: 	move.b	(SP)+,VDC_CURRENT_LAYER.w
00:0001023C 4E75            	   211: 	rts
                            	   212: 
                            	   213: 
                            	   214: vdc_copy_rom_font
00:0001023E 1F380482        	   215: 	move.b	CORE_ROMS.w,-(SP)
                            	   216: 
00:00010242 003800020482    	   217: 	or.b	#%00000010,CORE_ROMS.w			; make rom font visible to cpu
00:00010248 207C00001000    	   218: 	movea.l	#VDC_TILESET_ADDRESS,A0
00:0001024E 227C00002000    	   219: 	movea.l	#VDC_TILESET_ADDRESS+$1000,A1
                            	   220: 
00:00010254 20D0            	   221: .1	move.l	(A0),(A0)+				; copy rom font to underlying ram
00:00010256 B0C9            	   222: 	cmpa	A1,A0
00:00010258 6600FFFA        	   223: 	bne	.1
                            	   224: 
00:0001025C 11DF0482        	   225: 	move.b	(SP)+,CORE_ROMS.w
00:00010260 4E75            	   226: 	rts
                            	   227: 
                            	   228: 
                            	   229: vdc_copy_logo_tiles
00:00010262 207C00010430    	   230: 	movea.l	#logo_tiles,A0
00:00010268 327C11C0        	   231: 	movea.w	#$11c0,A1		; start at tile $1c
                            	   232: 
00:0001026C 12D8            	   233: .1	move.b	(A0)+,(A1)+
00:0001026E B1FC00010470    	   234: 	cmpa.l	#logo_tiles+64,A0	; 64 bytes = 4 tiles, 16 bytes/tile
00:00010274 6600FFF6        	   235: 	bne	.1
                            	   236: 
00:00010278 4E75            	   237: 	rts
                            	   238: 
                            	   239: 
                            	   240: ; setup sprites 0 - 7 (position, flags, index)
                            	   241: vdc_init_logo
00:0001027A 207C000103F8    	   242: 	movea.l	#logo_data,A0
00:00010280 4200            	   243: 	clr.b	D0
                            	   244: 
00:00010282 13C000000407    	   245: .1	move.b	D0,VDC_CURRENT_SPRITE
00:00010288 227C00000420    	   246: 	movea.l	#VDC_SPRITE_X_MSB,A1
                            	   247: 
00:0001028E 12D8            	   248: .2	move.b	(A0)+,(A1)+
00:00010290 B3FC00000427    	   249: 	cmpa.l	#VDC_SPRITE_X_MSB+7,A1
00:00010296 6600FFF6        	   250: 	bne	.2
00:0001029A 5240            	   251: 	addq	#1,D0
00:0001029C B1FC00010430    	   252: 	cmpa.l	#logo_data+56,A0	; 8 * 7 bytes = 56 bytes
00:000102A2 6600FFDE        	   253: 	bne	.1
                            	   254: 
00:000102A6 4E75            	   255: 	rts
                            	   256: 
                            	   257: 
                            	   258: terminal_init
00:000102A8 33FC400000006006	   259: 	move.w	#VDC_LAYER0_TILES,terminal_chars
00:000102B0 33FC200000006008	   260: 	move.w	#VDC_LAYER0_COLORS,terminal_colors
00:000102B8 13FC000200006004	   261: 	move.b	#$02,cursor_color
00:000102C0 4E75            	   262: 	rts
                            	   263: 
                            	   264: 
                            	   265: terminal_clear
00:000102C2 303C0580        	   266: 	move.w	#TERMINAL_SIZE,D0
00:000102C6 12386004        	   267: 	move.b	cursor_color.w,D1
00:000102CA 307900006006    	   268: 	movea.w	terminal_chars,A0
00:000102D0 327900006008    	   269: 	movea.w	terminal_colors,A1
                            	   270: 
00:000102D6 10FC0020        	   271: .1	move.b	#' ',(A0)+
00:000102DA 12C1            	   272: 	move.b	D1,(A1)+
00:000102DC 5340            	   273: 	subq.w	#1,D0
00:000102DE 6600FFF6        	   274: 	bne	.1
                            	   275: 
00:000102E2 427900006002    	   276: 	clr.w	cursor_pos
00:000102E8 4E75            	   277: 	rts
                            	   278: 
                            	   279: terminal_putchar
00:000102EA 307900006006    	   280: 	movea.w	terminal_chars,A0
00:000102F0 327900006008    	   281: 	movea.w	terminal_colors,A1
00:000102F6 303900006002    	   282: 	move.w	cursor_pos,D0
                            	   283: 
00:000102FC 0C2F000A0004    	   284: 	cmp.b	#$0a,(4,SP)		; check for newline
00:00010302 6700002A        	   285: 	beq	.1
00:00010306 0C2F000D0004    	   286: 	cmp.b	#$0d,(4,SP)		; check for carriage return
00:0001030C 67000024        	   287: 	beq	.2
                            	   288: 
00:00010310 11AF00040000    	   289: 	move.b	(4,SP),(A0,D0)		; print char
00:00010316 13B9000060040000	   290: 	move.b	cursor_color,(A1,D0)	; set color
                            	   291: 
00:0001031E 5240            	   292: 	addq.w	#1,D0			; move cursor 1 step
00:00010320 3200            	   293: 	move.w	D0,D1
00:00010322 0241003F        	   294: 	andi.w	#%111111,D1
00:00010326 B27C0028        	   295: 	cmp.w	#TERMINAL_WIDTH,D1	; are we at pos 40 or higher?
00:0001032A 65000024        	   296: 	blo	.3			; no
                            	   297: 
00:0001032E 06400040        	   298: .1	addi.w	#TERMINAL_HPITCH,D0	; yes, move cursor one line down
00:00010332 0240FFC0        	   299: .2	andi.w	#%1111111111000000,D0	; cursor to beginning of line (carriage return)
                            	   300: 
00:00010336 B07C0580        	   301: 	cmp.w	#TERMINAL_SIZE,D0	; check for cursor lower than TERMINAL_HEIGHT
00:0001033A 65000014        	   302: 	blo	.3			; no
                            	   303: 
00:0001033E 04400040        	   304: 	subi.w	#TERMINAL_HPITCH,D0	; move cursor one line up
00:00010342 33C000006002    	   305: 	move.w	D0,cursor_pos
00:00010348 4EB9000103BA    	   306: 	jsr	terminal_add_bottom_row
00:0001034E 4E75            	   307: 	rts
                            	   308: 
00:00010350 33C000006002    	   309: .3	move.w	D0,cursor_pos
00:00010356 4E75            	   310: 	rts
                            	   311: 
                            	   312: 
                            	   313: terminal_putstring
00:00010358 206F0004        	   314: 	movea.l	(4,SP),A0
00:0001035C 1018            	   315: .1	move.b	(A0)+,D0
00:0001035E 67000016        	   316: 	beq	.2
00:00010362 2F08            	   317: 	move.l	A0,-(SP)
00:00010364 1F00            	   318: 	move.b	D0,-(SP)
00:00010366 4EB9000102EA    	   319: 	jsr	terminal_putchar
00:0001036C 4FEF0002        	   320: 	lea	(2,SP),SP
00:00010370 205F            	   321: 	movea.l	(SP)+,A0
00:00010372 6000FFE8        	   322: 	bra	.1
00:00010376 4E75            	   323: .2	rts
                            	   324: 
                            	   325: terminal_put_hex_byte
00:00010378 102F0004        	   326: 	move.b	(4,SP),D0	; D0 contains no of digits to print
00:0001037C 6700003A        	   327: 	beq	.2		; if this is 0, end this function
                            	   328: 
00:00010380 5300            	   329: 	subq.b	#1,D0		; reduce number of digits to print by 1
00:00010382 67000016        	   330: 	beq	.1		; if this is 0 (now), only one digit to print
                            	   331: 
00:00010386 222F0006        	   332: 	move.l	(6,SP),D1	; D1 contains the number to be printed
                            	   333: 
00:0001038A E889            	   334: 	lsr.l	#4,D1
00:0001038C 2F01            	   335: 	move.l	D1,-(SP)
00:0001038E 1F00            	   336: 	move.b	D0,-(SP)
00:00010390 4EB900010378    	   337: 	jsr	terminal_put_hex_byte
00:00010396 4FEF0006        	   338: 	lea	(6,SP),SP
                            	   339: 
00:0001039A 202F0006        	   340: .1	move.l	(6,SP),D0
00:0001039E 02800000000F    	   341: 	andi.l	#$f,D0
00:000103A4 41F900010470    	   342: 	lea	hex_values,A0
00:000103AA 1F300000        	   343: 	move.b	(A0,D0),-(SP)
00:000103AE 4EB9000102EA    	   344: 	jsr	terminal_putchar
00:000103B4 4FEF0002        	   345: 	lea	(2,SP),SP
                            	   346: 
00:000103B8 4E75            	   347: .2	rts
                            	   348: 
                            	   349: terminal_add_bottom_row
00:000103BA 48E70030        	   350: 	movem.l	A2-A3,-(SP)
                            	   351: 
00:000103BE 307900006006    	   352: 	movea.w	terminal_chars,A0
00:000103C4 43E80040        	   353: 	lea	(TERMINAL_HPITCH,A0),A1
00:000103C8 347900006008    	   354: 	movea.w	terminal_colors,A2
00:000103CE 47EA0040        	   355: 	lea	(TERMINAL_HPITCH,A2),A3
                            	   356: 
00:000103D2 303C0580        	   357: 	move.w	#TERMINAL_SIZE,D0	; use terminal size, then lowest row is filled properly
00:000103D6 E448            	   358: 	lsr.w	#2,D0			; divide by 4
00:000103D8 20D9            	   359: .1	move.l	(A1)+,(A0)+		; do 4 bytes at once
00:000103DA 24DB            	   360: 	move.l	(A3)+,(A2)+		; do 4 bytes at once
00:000103DC 5340            	   361: 	subq.w	#1,D0
00:000103DE 6600FFF8        	   362: 	bne	.1
                            	   363: 
00:000103E2 4CDF0C00        	   364: 	movem.l	(SP)+,A2-A3
00:000103E6 4E75            	   365: 	rts
                            	   366: 
                            	   367: 
                            	   368: hello
00:000103E8 48656C6C6F2C2057	   369: 	dc.b	"Hello, World!",$0a,0
00:000103F0 6F726C6421
00:000103F5 0A
00:000103F6 00
                            	   370: 
                            	   371: 
                            	   372: 	align	2
                            	   373: logo_data
00:000103F8 00              	   374: 	dc.b	0,152,0,74,%111,0,$1c	; icon top left
00:000103F9 98
00:000103FA 00
00:000103FB 4A
00:000103FC 07
00:000103FD 00
00:000103FE 1C
00:000103FF 00              	   375: 	dc.b	0,160,0,74,%111,0,$1d	; icon top right
00:00010400 A0
00:00010401 00
00:00010402 4A
00:00010403 07
00:00010404 00
00:00010405 1D
00:00010406 00              	   376: 	dc.b	0,152,0,82,%111,0,$1e	; icon bottom left
00:00010407 98
00:00010408 00
00:00010409 52
00:0001040A 07
00:0001040B 00
00:0001040C 1E
00:0001040D 00              	   377: 	dc.b	0,160,0,82,%111,0,$1f	; icon bottom right
00:0001040E A0
00:0001040F 00
00:00010410 52
00:00010411 07
00:00010412 00
00:00010413 1F
00:00010414 00              	   378: 	dc.b	0,147,0,90,%111,0,$6c	; l
00:00010415 93
00:00010416 00
00:00010417 5A
00:00010418 07
00:00010419 00
00:0001041A 6C
00:0001041B 00              	   379: 	dc.b	0,152,0,90,%111,0,$69	; i
00:0001041C 98
00:0001041D 00
00:0001041E 5A
00:0001041F 07
00:00010420 00
00:00010421 69
00:00010422 00              	   380: 	dc.b	0,158,0,90,%111,0,$6d	; m
00:00010423 9E
00:00010424 00
00:00010425 5A
00:00010426 07
00:00010427 00
00:00010428 6D
00:00010429 00              	   381: 	dc.b	0,166,0,90,%111,0,$65	; e
00:0001042A A6
00:0001042B 00
00:0001042C 5A
00:0001042D 07
00:0001042E 00
00:0001042F 65
                            	   382: 
                            	   383: 
                            	   384: logo_tiles
00:00010430 00              	   385: 	dc.b	%00000000,%00000000	; tile 1 (icon upper left)
00:00010431 00
00:00010432 01              	   386: 	dc.b	%00000001,%00000000
00:00010433 00
00:00010434 07              	   387: 	dc.b	%00000111,%10000000
00:00010435 80
00:00010436 07              	   388: 	dc.b	%00000111,%10100000
00:00010437 A0
00:00010438 1E              	   389: 	dc.b	%00011110,%11111000
00:00010439 F8
00:0001043A 1E              	   390: 	dc.b	%00011110,%10101111
00:0001043B AF
00:0001043C 1E              	   391: 	dc.b	%00011110,%10101010
00:0001043D AA
00:0001043E 1E              	   392: 	dc.b	%00011110,%10101111
00:0001043F AF
                            	   393: 
00:00010440 00              	   394: 	dc.b	%00000000,%00000000	; tile 2 (icon upper right)
00:00010441 00
00:00010442 00              	   395: 	dc.b	%00000000,%00000000
00:00010443 00
00:00010444 00              	   396: 	dc.b	%00000000,%00000000
00:00010445 00
00:00010446 00              	   397: 	dc.b	%00000000,%00000000
00:00010447 00
00:00010448 00              	   398: 	dc.b	%00000000,%00000000
00:00010449 00
00:0001044A 00              	   399: 	dc.b	%00000000,%00000000
00:0001044B 00
00:0001044C C0              	   400: 	dc.b	%11000000,%00000000
00:0001044D 00
00:0001044E B0              	   401: 	dc.b	%10110000,%00000000
00:0001044F 00
                            	   402: 
00:00010450 1E              	   403: 	dc.b	%00011110,%11111010	; tile 3 (icon bottom left)
00:00010451 FA
00:00010452 07              	   404: 	dc.b	%00000111,%10101010
00:00010453 AA
00:00010454 07              	   405: 	dc.b	%00000111,%10101011
00:00010455 AB
00:00010456 01              	   406: 	dc.b	%00000001,%11101011
00:00010457 EB
00:00010458 00              	   407: 	dc.b	%00000000,%01111110
00:00010459 7E
00:0001045A 00              	   408: 	dc.b	%00000000,%00010111
00:0001045B 17
00:0001045C 00              	   409: 	dc.b	%00000000,%00000001
00:0001045D 01
00:0001045E 00              	   410: 	dc.b	%00000000,%00000000
00:0001045F 00
                            	   411: 
00:00010460 EC              	   412: 	dc.b	%11101100,%00000000	; tile 4 (icon bottom right)
00:00010461 00
00:00010462 EE              	   413: 	dc.b	%11101110,%00000000
00:00010463 00
00:00010464 AB              	   414: 	dc.b	%10101011,%10000000
00:00010465 80
00:00010466 AB              	   415: 	dc.b	%10101011,%10100000
00:00010467 A0
00:00010468 AA              	   416: 	dc.b	%10101010,%11110100
00:00010469 F4
00:0001046A FF              	   417: 	dc.b	%11111111,%01010000
00:0001046B 50
00:0001046C 55              	   418: 	dc.b	%01010101,%00000000
00:0001046D 00
00:0001046E 00              	   419: 	dc.b	%00000000,%00000000
00:0001046F 00
                            	   420: 
                            	   421: hex_values
00:00010470 3031323334353637	   422: 	dc.b	"0123456789abcdef"
00:00010478 3839616263646566
                            	   423: 


Symbols by name:
CORE_CR                          E:00000481
CORE_INPUT0                      E:00000488
CORE_ROMS                        E:00000482
CORE_SR                          E:00000480
MIX_SID0_LEFT                    E:00000580
SID0_F                           E:00000500
SID0_V                           E:0000051B
SID1_V                           E:0000053B
TERMINAL_HEIGHT                  E:00000016
TERMINAL_HPITCH                  E:00000040
TERMINAL_SIZE                    E:00000580
TERMINAL_WIDTH                   E:00000028
TIMER_SR                         E:00000440
VDC_BG_COLOR                     E:00000404
VDC_CR                           E:00000401
VDC_CURRENT_LAYER                E:00000406
VDC_CURRENT_SPRITE               E:00000407
VDC_IRQ_SCANLINE_LSB             E:0000040F
VDC_LAYER0_COLORS                E:00002000
VDC_LAYER0_TILES                 E:00004000
VDC_LAYER_FLAGS0                 E:00000414
VDC_SPRITE_COLOR1                E:00000429
VDC_SPRITE_X_LSB                 E:00000421
VDC_SPRITE_X_MSB                 E:00000420
VDC_SPRITE_Y_LSB                 E:00000423
VDC_SR                           E:00000400
VDC_TILESET_ADDRESS              E:00001000
VEC_ADDR_ERROR                   E:0000000C
VEC_LVL1_IRQ_AUTO                E:00000064
VEC_LVL2_IRQ_AUTO                E:00000068
VEC_LVL4_IRQ_AUTO                E:00000070
VEC_LVL6_IRQ_AUTO                E:00000078
VEC_TIMER0                       E:00000100
VEC_TIMER1                       E:00000104
VEC_TIMER2                       E:00000108
VEC_TIMER3                       E:0000010C
VEC_TIMER4                       E:00000110
VEC_TIMER5                       E:00000114
VEC_TIMER6                       E:00000118
VEC_TIMER7                       E:0000011C
_jump                            A:000100AE
_start                           A:00010020
binary_ready                     E:00006001
cursor_color                     E:00006004
cursor_pos                       E:00006002
exc_addr_error                   A:000100AE
exc_lvl1_irq_auto                A:000100B2
exc_lvl2_irq_auto                A:000100B4
exc_lvl4_irq_auto                A:000100D6
exc_lvl6_irq_auto                A:000100FE
hello                            A:000103E8
hex_values                       A:00010470
init_vector_table                A:000101C0
logo_animation                   E:00006000
logo_data                        A:000103F8
logo_tiles                       A:00010430
loop                             A:000100A6
sound_reset                      A:0001017E
terminal_add_bottom_row          A:000103BA
terminal_chars                   E:00006006
terminal_clear                   A:000102C2
terminal_colors                  E:00006008
terminal_init                    A:000102A8
terminal_put_hex_byte            A:00010378
terminal_putchar                 A:000102EA
terminal_putstring               A:00010358
timer_default_handler            A:00010176
vdc_copy_logo_tiles              A:00010262
vdc_copy_rom_font                A:0001023E
vdc_init_layer0                  A:0001022A
vdc_init_logo                    A:0001027A

Symbols by value:
0000000C VEC_ADDR_ERROR
00000016 TERMINAL_HEIGHT
00000028 TERMINAL_WIDTH
00000040 TERMINAL_HPITCH
00000064 VEC_LVL1_IRQ_AUTO
00000068 VEC_LVL2_IRQ_AUTO
00000070 VEC_LVL4_IRQ_AUTO
00000078 VEC_LVL6_IRQ_AUTO
00000100 VEC_TIMER0
00000104 VEC_TIMER1
00000108 VEC_TIMER2
0000010C VEC_TIMER3
00000110 VEC_TIMER4
00000114 VEC_TIMER5
00000118 VEC_TIMER6
0000011C VEC_TIMER7
00000400 VDC_SR
00000401 VDC_CR
00000404 VDC_BG_COLOR
00000406 VDC_CURRENT_LAYER
00000407 VDC_CURRENT_SPRITE
0000040F VDC_IRQ_SCANLINE_LSB
00000414 VDC_LAYER_FLAGS0
00000420 VDC_SPRITE_X_MSB
00000421 VDC_SPRITE_X_LSB
00000423 VDC_SPRITE_Y_LSB
00000429 VDC_SPRITE_COLOR1
00000440 TIMER_SR
00000480 CORE_SR
00000481 CORE_CR
00000482 CORE_ROMS
00000488 CORE_INPUT0
00000500 SID0_F
0000051B SID0_V
0000053B SID1_V
00000580 MIX_SID0_LEFT
00000580 TERMINAL_SIZE
00001000 VDC_TILESET_ADDRESS
00002000 VDC_LAYER0_COLORS
00004000 VDC_LAYER0_TILES
00006000 logo_animation
00006001 binary_ready
00006002 cursor_pos
00006004 cursor_color
00006006 terminal_chars
00006008 terminal_colors
00010020 _start
000100A6 loop
000100AE _jump
000100AE exc_addr_error
000100B2 exc_lvl1_irq_auto
000100B4 exc_lvl2_irq_auto
000100D6 exc_lvl4_irq_auto
000100FE exc_lvl6_irq_auto
00010176 timer_default_handler
0001017E sound_reset
000101C0 init_vector_table
0001022A vdc_init_layer0
0001023E vdc_copy_rom_font
00010262 vdc_copy_logo_tiles
0001027A vdc_init_logo
000102A8 terminal_init
000102C2 terminal_clear
000102EA terminal_putchar
00010358 terminal_putstring
00010378 terminal_put_hex_byte
000103BA terminal_add_bottom_row
000103E8 hello
000103F8 logo_data
00010430 logo_tiles
00010470 hex_values
